; Listing generated by Microsoft (R) Optimizing Compiler Version 19.36.32538.0 

include listing.inc

INCLUDELIB OLDNAMES

PUBLIC	??_C@_1BK@LCODAJLO@?$AAo?$AAp?$AAe?$AAn?$AAg?$AAl?$AA3?$AA2?$AA?4?$AAd?$AAl?$AAl@ ; `string'
PUBLIC	??_C@_0BC@FFKMKEGM@wglGetProcAddress@		; `string'
PUBLIC	??_C@_0L@BAPBLHME@glCullFace@			; `string'
PUBLIC	??_C@_0M@ILBMDJDA@glFrontFace@			; `string'
PUBLIC	??_C@_06HEADGMBC@glHint@			; `string'
PUBLIC	??_C@_0M@CFLGNFPG@glLineWidth@			; `string'
PUBLIC	??_C@_0M@EEAPMMNM@glPointSize@			; `string'
PUBLIC	??_C@_0O@DKMNBFMB@glPolygonMode@		; `string'
PUBLIC	??_C@_09ECGPAEPL@glScissor@			; `string'
PUBLIC	??_C@_0BA@INKFIMGP@glTexParameterf@		; `string'
PUBLIC	??_C@_0BB@KEOFAHDF@glTexParameterfv@		; `string'
PUBLIC	??_C@_0BA@KDNJAKA@glTexParameteri@		; `string'
PUBLIC	??_C@_0BB@KPLJEAAI@glTexParameteriv@		; `string'
PUBLIC	??_C@_0N@JDMMMFHL@glTexImage1D@			; `string'
PUBLIC	??_C@_0N@JBIKHLCC@glTexImage2D@			; `string'
PUBLIC	??_C@_0N@EKCLGPL@glDrawBuffer@			; `string'
PUBLIC	??_C@_07IBAPPAHJ@glClear@			; `string'
PUBLIC	??_C@_0N@OGLMDNKC@glClearColor@			; `string'
PUBLIC	??_C@_0P@KBLPBBFP@glClearStencil@		; `string'
PUBLIC	??_C@_0N@LJIELNG@glClearDepth@			; `string'
PUBLIC	??_C@_0O@DJFHPFEP@glStencilMask@		; `string'
PUBLIC	??_C@_0M@DLGOAHPH@glColorMask@			; `string'
PUBLIC	??_C@_0M@KABMFLLN@glDepthMask@			; `string'
PUBLIC	??_C@_09MHGMIMKN@glDisable@			; `string'
PUBLIC	??_C@_08OOEHEKOP@glEnable@			; `string'
PUBLIC	??_C@_08DFCPOKBK@glFinish@			; `string'
PUBLIC	??_C@_07COFELLJA@glFlush@			; `string'
PUBLIC	??_C@_0M@PFBKOKOH@glBlendFunc@			; `string'
PUBLIC	??_C@_09GKGMNAKG@glLogicOp@			; `string'
PUBLIC	??_C@_0O@ENNLLOLN@glStencilFunc@		; `string'
PUBLIC	??_C@_0M@BILBNGF@glStencilOp@			; `string'
PUBLIC	??_C@_0M@NEJABAEP@glDepthFunc@			; `string'
PUBLIC	??_C@_0O@BFLAHHCK@glPixelStoref@		; `string'
PUBLIC	??_C@_0O@JCCIGLOF@glPixelStorei@		; `string'
PUBLIC	??_C@_0N@HFKHBECK@glReadBuffer@			; `string'
PUBLIC	??_C@_0N@CKFNNHOO@glReadPixels@			; `string'
PUBLIC	??_C@_0O@NLMELLCJ@glGetBooleanv@		; `string'
PUBLIC	??_C@_0N@OFBMMCDH@glGetDoublev@			; `string'
PUBLIC	??_C@_0L@FPKAMKHB@glGetError@			; `string'
PUBLIC	??_C@_0M@CKCOBONE@glGetFloatv@			; `string'
PUBLIC	??_C@_0O@DHHDCCLF@glGetIntegerv@		; `string'
PUBLIC	??_C@_0M@OPOBFDCB@glGetString@			; `string'
PUBLIC	??_C@_0O@DOIIJLAD@glGetTexImage@		; `string'
PUBLIC	??_C@_0BE@DNHBPKMC@glGetTexParameterfv@		; `string'
PUBLIC	??_C@_0BE@DGCNLNPP@glGetTexParameteriv@		; `string'
PUBLIC	??_C@_0BJ@GAMLGIFF@glGetTexLevelParameterfv@	; `string'
PUBLIC	??_C@_0BJ@GLJHCPGI@glGetTexLevelParameteriv@	; `string'
PUBLIC	??_C@_0M@INHMIHKC@glIsEnabled@			; `string'
PUBLIC	??_C@_0N@PEBDIKOA@glDepthRange@			; `string'
PUBLIC	??_C@_0L@KBLIPDFH@glViewport@			; `string'
PUBLIC	??_C@_0N@CMNPPOHA@glDrawArrays@			; `string'
PUBLIC	??_C@_0P@MENFIFGE@glDrawElements@		; `string'
PUBLIC	??_C@_0BA@FFBJGNC@glPolygonOffset@		; `string'
PUBLIC	??_C@_0BB@MEEDBHPL@glCopyTexImage1D@		; `string'
PUBLIC	??_C@_0BB@MGAFKJKC@glCopyTexImage2D@		; `string'
PUBLIC	??_C@_0BE@PKNCAIGI@glCopyTexSubImage1D@		; `string'
PUBLIC	??_C@_0BE@PIJELGDB@glCopyTexSubImage2D@		; `string'
PUBLIC	??_C@_0BA@NFOOCKJD@glTexSubImage1D@		; `string'
PUBLIC	??_C@_0BA@NHKIJEMK@glTexSubImage2D@		; `string'
PUBLIC	??_C@_0O@JKKCIBGC@glBindTexture@		; `string'
PUBLIC	??_C@_0BB@KMPLFJIC@glDeleteTextures@		; `string'
PUBLIC	??_C@_0O@LLMANLNK@glGenTextures@		; `string'
PUBLIC	??_C@_0M@NJHAEPDN@glIsTexture@			; `string'
PUBLIC	??_C@_0BE@IHNAGJGJ@glDrawRangeElements@		; `string'
PUBLIC	??_C@_0N@JAEIBBBF@glTexImage3D@			; `string'
PUBLIC	??_C@_0BA@NGGKPOPN@glTexSubImage3D@		; `string'
PUBLIC	??_C@_0BE@PJFGNMAG@glCopyTexSubImage3D@		; `string'
PUBLIC	??_C@_0BA@KOBBIKOF@glActiveTexture@		; `string'
PUBLIC	??_C@_0BB@BJGIPMOA@glSampleCoverage@		; `string'
PUBLIC	??_C@_0BH@GGHNMAGP@glCompressedTexImage3D@	; `string'
PUBLIC	??_C@_0BH@GHLPKKFI@glCompressedTexImage2D@	; `string'
PUBLIC	??_C@_0BH@GFPJBEAB@glCompressedTexImage1D@	; `string'
PUBLIC	??_C@_0BK@EBJMCDPA@glCompressedTexSubImage3D@	; `string'
PUBLIC	??_C@_0BK@EAFOEJMH@glCompressedTexSubImage2D@	; `string'
PUBLIC	??_C@_0BK@ECBIPHJO@glCompressedTexSubImage1D@	; `string'
PUBLIC	??_C@_0BI@MPANLPPL@glGetCompressedTexImage@	; `string'
PUBLIC	??_C@_0BE@LLLCIIOO@glBlendFuncSeparate@		; `string'
PUBLIC	??_C@_0BC@IBABPJFA@glMultiDrawArrays@		; `string'
PUBLIC	??_C@_0BE@MPDFJJLL@glMultiDrawElements@		; `string'
PUBLIC	??_C@_0BC@FGOOEDO@glPointParameterf@		; `string'
PUBLIC	??_C@_0BD@LIABKNDP@glPointParameterfv@		; `string'
PUBLIC	??_C@_0BC@ICPGPIPB@glPointParameteri@		; `string'
PUBLIC	??_C@_0BD@LDFNOKAC@glPointParameteriv@		; `string'
PUBLIC	??_C@_0N@PKBMFJDK@glBlendColor@			; `string'
PUBLIC	??_C@_0BA@PFHILPAN@glBlendEquation@		; `string'
PUBLIC	??_C@_0N@CJIGHHJ@glGenQueries@			; `string'
PUBLIC	??_C@_0BA@IOKEHMOH@glDeleteQueries@		; `string'
PUBLIC	??_C@_09CNNLCEBN@glIsQuery@			; `string'
PUBLIC	??_C@_0N@GIAGIGPA@glBeginQuery@			; `string'
PUBLIC	??_C@_0L@FLEBHIDM@glEndQuery@			; `string'
PUBLIC	??_C@_0N@BPACPFCI@glGetQueryiv@			; `string'
PUBLIC	??_C@_0BD@KMBBCJID@glGetQueryObjectiv@		; `string'
PUBLIC	??_C@_0BE@MNBBKJ@glGetQueryObjectuiv@		; `string'
PUBLIC	??_C@_0N@BONEPPLO@glBindBuffer@			; `string'
PUBLIC	??_C@_0BA@DMNLADIO@glDeleteBuffers@		; `string'
PUBLIC	??_C@_0N@LAOHBIBA@glGenBuffers@			; `string'
PUBLIC	??_C@_0L@KFPDMKNG@glIsBuffer@			; `string'
PUBLIC	??_C@_0N@JHHJMABP@glBufferData@			; `string'
PUBLIC	??_C@_0BA@GAJMDBBN@glBufferSubData@		; `string'
PUBLIC	??_C@_0BD@PNDAHMBO@glGetBufferSubData@		; `string'
PUBLIC	??_C@_0M@NNHDPACA@glMapBuffer@			; `string'
PUBLIC	??_C@_0O@OFGHBLEO@glUnmapBuffer@		; `string'
PUBLIC	??_C@_0BH@BMIEIFJP@glGetBufferParameteriv@	; `string'
PUBLIC	??_C@_0BE@KNJEIFMC@glGetBufferPointerv@		; `string'
PUBLIC	??_C@_0BI@JNHDNJAG@glBlendEquationSeparate@	; `string'
PUBLIC	??_C@_0O@COHJKDBH@glDrawBuffers@		; `string'
PUBLIC	??_C@_0BE@GAPLDNGF@glStencilOpSeparate@		; `string'
PUBLIC	??_C@_0BG@FCMNCEIA@glStencilFuncSeparate@	; `string'
PUBLIC	??_C@_0BG@MMKPIEJI@glStencilMaskSeparate@	; `string'
PUBLIC	??_C@_0P@LDMLEABL@glAttachShader@		; `string'
PUBLIC	??_C@_0BF@MHKEFIHM@glBindAttribLocation@	; `string'
PUBLIC	??_C@_0BA@DGIEGONF@glCompileShader@		; `string'
PUBLIC	??_C@_0BA@FLKLHNKP@glCreateProgram@		; `string'
PUBLIC	??_C@_0P@HGHBNC@glCreateShader@			; `string'
PUBLIC	??_C@_0BA@NKGCDOPO@glDeleteProgram@		; `string'
PUBLIC	??_C@_0P@HHCDONAG@glDeleteShader@		; `string'
PUBLIC	??_C@_0P@DJFJFCJL@glDetachShader@		; `string'
PUBLIC	??_C@_0BL@NKHLOFFF@glDisableVertexAttribArray@	; `string'
PUBLIC	??_C@_0BK@EHBAHNHE@glEnableVertexAttribArray@	; `string'
PUBLIC	??_C@_0BC@MBALAOHF@glGetActiveAttrib@		; `string'
PUBLIC	??_C@_0BD@NIMHLLKN@glGetActiveUniform@		; `string'
PUBLIC	??_C@_0BF@GHMDGFEM@glGetAttachedShaders@	; `string'
PUBLIC	??_C@_0BE@BEPGJDMM@glGetAttribLocation@		; `string'
PUBLIC	??_C@_0P@FMMDFLCO@glGetProgramiv@		; `string'
PUBLIC	??_C@_0BE@DHGHAJFL@glGetProgramInfoLog@		; `string'
PUBLIC	??_C@_0O@JBDFPDMG@glGetShaderiv@		; `string'
PUBLIC	??_C@_0BD@GIABBCMO@glGetShaderInfoLog@		; `string'
PUBLIC	??_C@_0BC@ELEIFJEL@glGetShaderSource@		; `string'
PUBLIC	??_C@_0BF@KIOPGICP@glGetUniformLocation@	; `string'
PUBLIC	??_C@_0P@DFCJIBG@glGetUniformfv@		; `string'
PUBLIC	??_C@_0P@IAONPCL@glGetUniformiv@		; `string'
PUBLIC	??_C@_0BE@HDPMJMIN@glGetVertexAttribdv@		; `string'
PUBLIC	??_C@_0BE@HAHIEIOD@glGetVertexAttribfv@		; `string'
PUBLIC	??_C@_0BE@HLCEAPNO@glGetVertexAttribiv@		; `string'
PUBLIC	??_C@_0BK@DOJMENLD@glGetVertexAttribPointerv@	; `string'
PUBLIC	??_C@_0M@INLOJDGO@glIsProgram@			; `string'
PUBLIC	??_C@_0L@MDDLFIHC@glIsShader@			; `string'
PUBLIC	??_C@_0O@PIOEEBPO@glLinkProgram@		; `string'
PUBLIC	??_C@_0P@DFHCPFMO@glShaderSource@		; `string'
PUBLIC	??_C@_0N@ICBDHBI@glUseProgram@			; `string'
PUBLIC	??_C@_0M@MLICAPOF@glUniform1f@			; `string'
PUBLIC	??_C@_0M@MJMELBLM@glUniform2f@			; `string'
PUBLIC	??_C@_0M@MIAGNLIL@glUniform3f@			; `string'
PUBLIC	??_C@_0M@MNEJMNAO@glUniform4f@			; `string'
PUBLIC	??_C@_0M@EMBKBDCK@glUniform1i@			; `string'
PUBLIC	??_C@_0M@EOFMKNHD@glUniform2i@			; `string'
PUBLIC	??_C@_0M@EPJOMHEE@glUniform3i@			; `string'
PUBLIC	??_C@_0M@EKNBNBMB@glUniform4i@			; `string'
PUBLIC	??_C@_0N@KJMOEKII@glUniform1fv@			; `string'
PUBLIC	??_C@_0N@LLHLOFGG@glUniform2fv@			; `string'
PUBLIC	??_C@_0N@DMHICAD@glUniform3fv@			; `string'
PUBLIC	??_C@_0N@JOBALKLK@glUniform4fv@			; `string'
PUBLIC	??_C@_0N@KCJCANLF@glUniform1iv@			; `string'
PUBLIC	??_C@_0N@LACHKCFL@glUniform2iv@			; `string'
PUBLIC	??_C@_0N@IJLMFDO@glUniform3iv@			; `string'
PUBLIC	??_C@_0N@JFEMPNIH@glUniform4iv@			; `string'
PUBLIC	??_C@_0BD@JIBJELHD@glUniformMatrix2fv@		; `string'
PUBLIC	??_C@_0BD@CAKFCMBG@glUniformMatrix3fv@		; `string'
PUBLIC	??_C@_0BD@LNHCBEKP@glUniformMatrix4fv@		; `string'
PUBLIC	??_C@_0BC@MAPGDLJK@glValidateProgram@		; `string'
PUBLIC	??_C@_0BB@PIOLPNPC@glVertexAttrib1d@		; `string'
PUBLIC	??_C@_0BC@CKCOKGLN@glVertexAttrib1dv@		; `string'
PUBLIC	??_C@_0BB@MKNNJPHA@glVertexAttrib1f@		; `string'
PUBLIC	??_C@_0BC@CJKKHCND@glVertexAttrib1fv@		; `string'
PUBLIC	??_C@_0BB@PNGIHJGE@glVertexAttrib1s@		; `string'
PUBLIC	??_C@_0BC@DDEHBDEI@glVertexAttrib1sv@		; `string'
PUBLIC	??_C@_0BB@PKKNEDKL@glVertexAttrib2d@		; `string'
PUBLIC	??_C@_0BC@DIJLAJFD@glVertexAttrib2dv@		; `string'
PUBLIC	??_C@_0BB@MIJLCBCJ@glVertexAttrib2f@		; `string'
PUBLIC	??_C@_0BC@DLBPNNDN@glVertexAttrib2fv@		; `string'
PUBLIC	??_C@_0BB@PPCOMHDN@glVertexAttrib2s@		; `string'
PUBLIC	??_C@_0BC@CBPCLMKG@glVertexAttrib2sv@		; `string'
PUBLIC	??_C@_0BB@PLGPCJJM@glVertexAttrib3d@		; `string'
PUBLIC	??_C@_0BC@IACHGODG@glVertexAttrib3dv@		; `string'
PUBLIC	??_C@_0BB@MJFJELBO@glVertexAttrib3f@		; `string'
PUBLIC	??_C@_0BC@IDKDLKFI@glVertexAttrib3fv@		; `string'
PUBLIC	??_C@_0BB@POOMKNAK@glVertexAttrib3s@		; `string'
PUBLIC	??_C@_0BC@JJEONLMD@glVertexAttrib3sv@		; `string'
PUBLIC	??_C@_0BD@NANPPEGB@glVertexAttrib4Nbv@		; `string'
PUBLIC	??_C@_0BD@NMIKBLIA@glVertexAttrib4Niv@		; `string'
PUBLIC	??_C@_0BD@MNDLDNCG@glVertexAttrib4Nsv@		; `string'
PUBLIC	??_C@_0BD@OHBIJGMB@glVertexAttrib4Nub@		; `string'
PUBLIC	??_C@_0BE@JFOBDEMA@glVertexAttrib4Nubv@		; `string'
PUBLIC	??_C@_0BE@JJLENLCB@glVertexAttrib4Nuiv@		; `string'
PUBLIC	??_C@_0BE@IIAFPNIH@glVertexAttrib4Nusv@		; `string'
PUBLIC	??_C@_0BC@BJHNCKDN@glVertexAttrib4bv@		; `string'
PUBLIC	??_C@_0BB@POCADPBJ@glVertexAttrib4d@		; `string'
PUBLIC	??_C@_0BC@BNPAFGIP@glVertexAttrib4dv@		; `string'
PUBLIC	??_C@_0BB@MMBGFNJL@glVertexAttrib4f@		; `string'
PUBLIC	??_C@_0BC@BOHEICOB@glVertexAttrib4fv@		; `string'
PUBLIC	??_C@_0BC@BFCIMFNM@glVertexAttrib4iv@		; `string'
PUBLIC	??_C@_0BB@PLKDLLIP@glVertexAttrib4s@		; `string'
PUBLIC	??_C@_0BC@EJJODHK@glVertexAttrib4sv@		; `string'
PUBLIC	??_C@_0BD@PHPFILMB@glVertexAttrib4ubv@		; `string'
PUBLIC	??_C@_0BD@PLKAGECA@glVertexAttrib4uiv@		; `string'
PUBLIC	??_C@_0BD@OKBBECIG@glVertexAttrib4usv@		; `string'
PUBLIC	??_C@_0BG@JPNNNPKG@glVertexAttribPointer@	; `string'
PUBLIC	??_C@_0BF@KDDJMCDK@glUniformMatrix2x3fv@	; `string'
PUBLIC	??_C@_0BF@NANJHGPK@glUniformMatrix3x2fv@	; `string'
PUBLIC	??_C@_0BF@DOOOPKID@glUniformMatrix2x4fv@	; `string'
PUBLIC	??_C@_0BF@MNNMEGEC@glUniformMatrix4x2fv@	; `string'
PUBLIC	??_C@_0BF@PFLCCJCG@glUniformMatrix3x4fv@	; `string'
PUBLIC	??_C@_0BF@HFGACBCH@glUniformMatrix4x3fv@	; `string'
PUBLIC	??_C@_0N@JHNNNJFG@glColorMaski@			; `string'
PUBLIC	??_C@_0BA@OAKNOBP@glGetBooleani_v@		; `string'
PUBLIC	??_C@_0BA@FKCNNMFO@glGetIntegeri_v@		; `string'
PUBLIC	??_C@_09IEGEGIEN@glEnablei@			; `string'
PUBLIC	??_C@_0L@BMJPGDDH@glDisablei@			; `string'
PUBLIC	??_C@_0N@IMGKGOKN@glIsEnabledi@			; `string'
PUBLIC	??_C@_0BJ@FHJKOECC@glBeginTransformFeedback@	; `string'
PUBLIC	??_C@_0BH@LCFLNNBH@glEndTransformFeedback@	; `string'
PUBLIC	??_C@_0BC@EEMMCHMB@glBindBufferRange@		; `string'
PUBLIC	??_C@_0BB@LDPKOCJI@glBindBufferBase@		; `string'
PUBLIC	??_C@_0BM@IJFAKBEF@glTransformFeedbackVaryings@	; `string'
PUBLIC	??_C@_0BO@ODFLPNG@glGetTransformFeedbackVarying@ ; `string'
PUBLIC	??_C@_0N@HLGAGIMI@glClampColor@			; `string'
PUBLIC	??_C@_0BJ@EHEPIEPF@glBeginConditionalRender@	; `string'
PUBLIC	??_C@_0BH@KCIOLNMA@glEndConditionalRender@	; `string'
PUBLIC	??_C@_0BH@NLOEHKCD@glVertexAttribIPointer@	; `string'
PUBLIC	??_C@_0BF@KPDNEONP@glGetVertexAttribIiv@	; `string'
PUBLIC	??_C@_0BG@GCBDCABB@glGetVertexAttribIuiv@	; `string'
PUBLIC	??_C@_0BC@CDIIMMAL@glVertexAttribI1i@		; `string'
PUBLIC	??_C@_0BC@CBMOHCFC@glVertexAttribI2i@		; `string'
PUBLIC	??_C@_0BC@CAAMBIGF@glVertexAttribI3i@		; `string'
PUBLIC	??_C@_0BC@CFEDAOOA@glVertexAttribI4i@		; `string'
PUBLIC	??_C@_0BD@DGPCNLLO@glVertexAttribI1ui@		; `string'
PUBLIC	??_C@_0BD@CEEHHEFA@glVertexAttribI2ui@		; `string'
PUBLIC	??_C@_0BD@JMPLBDDF@glVertexAttribI3ui@		; `string'
PUBLIC	??_C@_0BD@BCMCLIM@glVertexAttribI4ui@		; `string'
PUBLIC	??_C@_0BD@OOJEIPDE@glVertexAttribI1iv@		; `string'
PUBLIC	??_C@_0BD@PMCBCANK@glVertexAttribI2iv@		; `string'
PUBLIC	??_C@_0BD@EEJNEHLP@glVertexAttribI3iv@		; `string'
PUBLIC	??_C@_0BD@NJEKHPAG@glVertexAttribI4iv@		; `string'
PUBLIC	??_C@_0BE@FFIKLCCA@glVertexAttribI1uiv@		; `string'
PUBLIC	??_C@_0BE@BCCKMIPA@glVertexAttribI2uiv@		; `string'
PUBLIC	??_C@_0BE@CPEKOBEA@glVertexAttribI3uiv@		; `string'
PUBLIC	??_C@_0BE@JNGKDNFA@glVertexAttribI4uiv@		; `string'
PUBLIC	??_C@_0BD@NFBPJAOH@glVertexAttribI4bv@		; `string'
PUBLIC	??_C@_0BD@MIPLFJKA@glVertexAttribI4sv@		; `string'
PUBLIC	??_C@_0BE@JBDPNCLB@glVertexAttribI4ubv@		; `string'
PUBLIC	??_C@_0BE@IMNLBLPG@glVertexAttribI4usv@		; `string'
PUBLIC	??_C@_0BA@NIGECFIF@glGetUniformuiv@		; `string'
PUBLIC	??_C@_0BH@DLJLAGBA@glBindFragDataLocation@	; `string'
PUBLIC	??_C@_0BG@NDOIGAMC@glGetFragDataLocation@	; `string'
PUBLIC	??_C@_0N@HKPEFJDP@glUniform1ui@			; `string'
PUBLIC	??_C@_0N@GIEBPGNB@glUniform2ui@			; `string'
PUBLIC	??_C@_0N@NAPNJBLE@glUniform3ui@			; `string'
PUBLIC	??_C@_0N@ENCKKJAN@glUniform4ui@			; `string'
PUBLIC	??_C@_0O@MPHJAHBE@glUniform1uiv@		; `string'
PUBLIC	??_C@_0O@IINJHNME@glUniform2uiv@		; `string'
PUBLIC	??_C@_0O@LFLJFEHE@glUniform3uiv@		; `string'
PUBLIC	??_C@_0O@HJJIIGE@glUniform4uiv@			; `string'
PUBLIC	??_C@_0BC@MAFJKEHB@glTexParameterIiv@		; `string'
PUBLIC	??_C@_0BD@FDBCMKBE@glTexParameterIuiv@		; `string'
PUBLIC	??_C@_0BF@ODBJFHDD@glGetTexParameterIiv@	; `string'
PUBLIC	??_C@_0BG@MLODKKFL@glGetTexParameterIuiv@	; `string'
PUBLIC	??_C@_0BA@CGCJAEIN@glClearBufferiv@		; `string'
PUBLIC	??_C@_0BB@OHPPAEID@glClearBufferuiv@		; `string'
PUBLIC	??_C@_0BA@CNHFEDLA@glClearBufferfv@		; `string'
PUBLIC	??_C@_0BA@OACPENCO@glClearBufferfi@		; `string'
PUBLIC	??_C@_0N@PILJCBOD@glGetStringi@			; `string'
PUBLIC	??_C@_0BB@DGGHKKOH@glIsRenderbuffer@		; `string'
PUBLIC	??_C@_0BD@EPOPJGFA@glBindRenderbuffer@		; `string'
PUBLIC	??_C@_0BG@KKOKEJDE@glDeleteRenderbuffers@	; `string'
PUBLIC	??_C@_0BD@MIGEDNGJ@glGenRenderbuffers@		; `string'
PUBLIC	??_C@_0BG@EOIILGMJ@glRenderbufferStorage@	; `string'
PUBLIC	??_C@_0BN@FGKAECKO@glGetRenderbufferParameteriv@ ; `string'
PUBLIC	??_C@_0BA@FGBIJCNH@glIsFramebuffer@		; `string'
PUBLIC	??_C@_0BC@CJMIBNO@glBindFramebuffer@		; `string'
PUBLIC	??_C@_0BF@DJNJENP@glDeleteFramebuffers@		; `string'
PUBLIC	??_C@_0BC@FAPEBGID@glGenFramebuffers@		; `string'
PUBLIC	??_C@_0BJ@GIOLHEAD@glCheckFramebufferStatus@	; `string'
PUBLIC	??_C@_0BH@JAMDNNBM@glFramebufferTexture1D@	; `string'
PUBLIC	??_C@_0BH@JCIFGDEF@glFramebufferTexture2D@	; `string'
PUBLIC	??_C@_0BH@JDEHAJHC@glFramebufferTexture3D@	; `string'
PUBLIC	??_C@_0BK@OJDINAOA@glFramebufferRenderbuffer@	; `string'
PUBLIC	??_C@_0CG@KLDGJEON@glGetFramebufferAttachmentParam@ ; `string'
PUBLIC	??_C@_0BB@BHNIMGDM@glGenerateMipmap@		; `string'
PUBLIC	??_C@_0BC@OANBDDEP@glBlitFramebuffer@		; `string'
PUBLIC	??_C@_0CB@HNONLGJE@glRenderbufferStorageMultisampl@ ; `string'
PUBLIC	??_C@_0BK@NIHIDBBO@glFramebufferTextureLayer@	; `string'
PUBLIC	??_C@_0BB@EOHJGBIO@glMapBufferRange@		; `string'
PUBLIC	??_C@_0BJ@NCDMGHKF@glFlushMappedBufferRange@	; `string'
PUBLIC	??_C@_0BC@LHBAHFAN@glBindVertexArray@		; `string'
PUBLIC	??_C@_0BF@BMPCJLEF@glDeleteVertexArrays@	; `string'
PUBLIC	??_C@_0BC@EPJLBJBJ@glGenVertexArrays@		; `string'
PUBLIC	??_C@_0BA@ODJEGGAE@glIsVertexArray@		; `string'
PUBLIC	??_C@_0BG@HIOFINAN@glDrawArraysInstanced@	; `string'
PUBLIC	??_C@_0BI@CGJENFBH@glDrawElementsInstanced@	; `string'
PUBLIC	??_C@_0M@IIMBBALL@glTexBuffer@			; `string'
PUBLIC	??_C@_0BI@LJDLNGAF@glPrimitiveRestartIndex@	; `string'
PUBLIC	??_C@_0BE@EPKABDOG@glCopyBufferSubData@		; `string'
PUBLIC	??_C@_0BE@MDPMIDEE@glGetUniformIndices@		; `string'
PUBLIC	??_C@_0BG@JEHIMPCG@glGetActiveUniformsiv@	; `string'
PUBLIC	??_C@_0BH@EGGFHKJJ@glGetActiveUniformName@	; `string'
PUBLIC	??_C@_0BH@CBDIMHHE@glGetUniformBlockIndex@	; `string'
PUBLIC	??_C@_0BK@DMHOPJGL@glGetActiveUniformBlockiv@	; `string'
PUBLIC	??_C@_0BM@KEMCJPAJ@glGetActiveUniformBlockName@	; `string'
PUBLIC	??_C@_0BG@BOLEKKCP@glUniformBlockBinding@	; `string'
PUBLIC	??_C@_0BJ@LFMMIAHA@glDrawElementsBaseVertex@	; `string'
PUBLIC	??_C@_0BO@KBDDBILP@glDrawRangeElementsBaseVertex@ ; `string'
PUBLIC	??_C@_0CC@KLOIIKNA@glDrawElementsInstancedBaseVert@ ; `string'
PUBLIC	??_C@_0BO@NAPFJEEK@glMultiDrawElementsBaseVertex@ ; `string'
PUBLIC	??_C@_0BC@ECOAPEBI@glProvokingVertex@		; `string'
PUBLIC	??_C@_0M@EFGFPFLP@glFenceSync@			; `string'
PUBLIC	??_C@_08JPIIHJEO@glIsSync@			; `string'
PUBLIC	??_C@_0N@PIFDNDFG@glDeleteSync@			; `string'
PUBLIC	??_C@_0BB@KDMPGJAC@glClientWaitSync@		; `string'
PUBLIC	??_C@_0L@MHLOGHGO@glWaitSync@			; `string'
PUBLIC	??_C@_0BA@INMBOHGL@glGetInteger64v@		; `string'
PUBLIC	??_C@_0M@MPEEOPIN@glGetSynciv@			; `string'
PUBLIC	??_C@_0BC@KOJILIEC@glGetInteger64i_v@		; `string'
PUBLIC	??_C@_0BJ@KKBIDGPP@glGetBufferParameteri64v@	; `string'
PUBLIC	??_C@_0BF@ENLMLILA@glFramebufferTexture@	; `string'
PUBLIC	??_C@_0BI@FHDFLFA@glTexImage2DMultisample@	; `string'
PUBLIC	??_C@_0BI@JIHMLKCG@glTexImage3DMultisample@	; `string'
PUBLIC	??_C@_0BD@DHLIMGN@glGetMultisamplefv@		; `string'
PUBLIC	??_C@_0O@JNHBCHMB@glSampleMaski@		; `string'
PUBLIC	??_C@_0BO@POJBGCGG@glBindFragDataLocationIndexed@ ; `string'
PUBLIC	??_C@_0BD@COCJFEOH@glGetFragDataIndex@		; `string'
PUBLIC	??_C@_0O@EMMLGGLG@glGenSamplers@		; `string'
PUBLIC	??_C@_0BB@FLPAOEOO@glDeleteSamplers@		; `string'
PUBLIC	??_C@_0M@LAJKHOKJ@glIsSampler@			; `string'
PUBLIC	??_C@_0O@PDEILAPG@glBindSampler@		; `string'
PUBLIC	??_C@_0BE@KBCBMPJO@glSamplerParameteri@		; `string'
PUBLIC	??_C@_0BF@GOHDEBPM@glSamplerParameteriv@	; `string'
PUBLIC	??_C@_0BE@CGLJNDFB@glSamplerParameterf@		; `string'
PUBLIC	??_C@_0BF@GFCPAGMB@glSamplerParameterfv@	; `string'
PUBLIC	??_C@_0BG@HKEIFIHF@glSamplerParameterIiv@	; `string'
PUBLIC	??_C@_0BH@FEMFBPPB@glSamplerParameterIuiv@	; `string'
PUBLIC	??_C@_0BI@FECAOLJP@glGetSamplerParameteriv@	; `string'
PUBLIC	??_C@_0BJ@KOMJDLDN@glGetSamplerParameterIiv@	; `string'
PUBLIC	??_C@_0BI@FPHMKMKC@glGetSamplerParameterfv@	; `string'
PUBLIC	??_C@_0BK@CMBGFHDA@glGetSamplerParameterIuiv@	; `string'
PUBLIC	??_C@_0P@KALICDIM@glQueryCounter@		; `string'
PUBLIC	??_C@_0BF@JDAPDEPE@glGetQueryObjecti64v@	; `string'
PUBLIC	??_C@_0BG@NEGGOMJO@glGetQueryObjectui64v@	; `string'
PUBLIC	??_C@_0BG@NEBMAEHM@glVertexAttribDivisor@	; `string'
PUBLIC	??_C@_0BD@FLACCOEN@glVertexAttribP1ui@		; `string'
PUBLIC	??_C@_0BE@HBFDOBHD@glVertexAttribP1uiv@		; `string'
PUBLIC	??_C@_0BD@EJLHIBKD@glVertexAttribP2ui@		; `string'
PUBLIC	??_C@_0BE@DGPDJLKD@glVertexAttribP2uiv@		; `string'
PUBLIC	??_C@_0BD@PBALOGMG@glVertexAttribP3ui@		; `string'
PUBLIC	??_C@_0BE@LJDLCBD@glVertexAttribP3uiv@		; `string'
PUBLIC	??_C@_0BD@GMNMNOHP@glVertexAttribP4ui@		; `string'
PUBLIC	??_C@_0BE@LJLDGOAD@glVertexAttribP4uiv@		; `string'
PUBLIC	??_C@_0N@EFBCIBMC@glVertexP2ui@			; `string'
PUBLIC	??_C@_0O@MEKGPGN@glVertexP2uiv@			; `string'
PUBLIC	??_C@_0N@PNKOOGKH@glVertexP3ui@			; `string'
PUBLIC	??_C@_0O@DBCKEGNN@glVertexP3uiv@		; `string'
PUBLIC	??_C@_0N@GAHJNOBO@glVertexP4ui@			; `string'
PUBLIC	??_C@_0O@IDAKJKMN@glVertexP4uiv@		; `string'
PUBLIC	??_C@_0P@OLJHLLHJ@glTexCoordP1ui@		; `string'
PUBLIC	??_C@_0BA@FAFHIAFD@glTexCoordP1uiv@		; `string'
PUBLIC	??_C@_0P@PJCCBEJH@glTexCoordP2ui@		; `string'
PUBLIC	??_C@_0BA@BHPHPKID@glTexCoordP2uiv@		; `string'
PUBLIC	??_C@_0P@EBJOHDPC@glTexCoordP3ui@		; `string'
PUBLIC	??_C@_0BA@CKJHNDDD@glTexCoordP3uiv@		; `string'
PUBLIC	??_C@_0P@NMEJELEL@glTexCoordP4ui@		; `string'
PUBLIC	??_C@_0BA@JILHAPCD@glTexCoordP4uiv@		; `string'
PUBLIC	??_C@_0BE@OAHHKHKG@glMultiTexCoordP1ui@		; `string'
PUBLIC	??_C@_0BF@EGDAKPAK@glMultiTexCoordP1uiv@	; `string'
PUBLIC	??_C@_0BE@PCMCAIEI@glMultiTexCoordP2ui@		; `string'
PUBLIC	??_C@_0BF@BJANFNK@glMultiTexCoordP2uiv@		; `string'
PUBLIC	??_C@_0BE@EKHOGPCN@glMultiTexCoordP3ui@		; `string'
PUBLIC	??_C@_0BF@DMPAPMGK@glMultiTexCoordP3uiv@	; `string'
PUBLIC	??_C@_0BE@NHKJFHJE@glMultiTexCoordP4ui@		; `string'
PUBLIC	??_C@_0BF@IONACAHK@glMultiTexCoordP4uiv@	; `string'
PUBLIC	??_C@_0N@PBEFBNHO@glNormalP3ui@			; `string'
PUBLIC	??_C@_0O@MOCJMHFG@glNormalP3uiv@		; `string'
PUBLIC	??_C@_0M@PEKBINNN@glColorP3ui@			; `string'
PUBLIC	??_C@_0N@IBPDNBJE@glColorP3uiv@			; `string'
PUBLIC	??_C@_0M@GJHGLFGE@glColorP4ui@			; `string'
PUBLIC	??_C@_0N@DDNDANIE@glColorP4uiv@			; `string'
PUBLIC	??_C@_0BF@PDDGBPKP@glSecondaryColorP3ui@	; `string'
PUBLIC	??_C@_0BG@DPPPFGBG@glSecondaryColorP3uiv@	; `string'
PUBLIC	??_C@_0BD@EDGCEBP@glMinSampleShading@		; `string'
PUBLIC	??_C@_0BB@MKHLNEOM@glBlendEquationi@		; `string'
PUBLIC	??_C@_0BJ@FNMBAGAC@glBlendEquationSeparatei@	; `string'
PUBLIC	??_C@_0N@IKKELNNP@glBlendFunci@			; `string'
PUBLIC	??_C@_0BF@PDDGKNBJ@glBlendFuncSeparatei@	; `string'
PUBLIC	??_C@_0BF@BGDCPAEP@glDrawArraysIndirect@	; `string'
PUBLIC	??_C@_0BH@LJJDOEDH@glDrawElementsIndirect@	; `string'
PUBLIC	??_C@_0M@PJLEGNGH@glUniform1d@			; `string'
PUBLIC	??_C@_0M@PLPCNDDO@glUniform2d@			; `string'
PUBLIC	??_C@_0M@PKDALJAJ@glUniform3d@			; `string'
PUBLIC	??_C@_0M@PPHPKPIM@glUniform4d@			; `string'
PUBLIC	??_C@_0N@KKEKJOOG@glUniform1dv@			; `string'
PUBLIC	??_C@_0N@LIPPDBAI@glUniform2dv@			; `string'
PUBLIC	??_C@_0N@EDFGGN@glUniform3dv@			; `string'
PUBLIC	??_C@_0N@JNJEGONE@glUniform4dv@			; `string'
PUBLIC	??_C@_0BD@JLJNJPBN@glUniformMatrix2dv@		; `string'
PUBLIC	??_C@_0BD@CDCBPIHI@glUniformMatrix3dv@		; `string'
PUBLIC	??_C@_0BD@LOPGMAMB@glUniformMatrix4dv@		; `string'
PUBLIC	??_C@_0BF@KALNBGFE@glUniformMatrix2x3dv@	; `string'
PUBLIC	??_C@_0BF@DNGKCOON@glUniformMatrix2x4dv@	; `string'
PUBLIC	??_C@_0BF@NDFNKCJE@glUniformMatrix3x2dv@	; `string'
PUBLIC	??_C@_0BF@PGDGPNEI@glUniformMatrix3x4dv@	; `string'
PUBLIC	??_C@_0BF@MOFIJCCM@glUniformMatrix4x2dv@	; `string'
PUBLIC	??_C@_0BF@HGOEPFEJ@glUniformMatrix4x3dv@	; `string'
PUBLIC	??_C@_0P@NGEMHI@glGetUniformdv@			; `string'
PUBLIC	??_C@_0BP@IBIPLDOA@glGetSubroutineUniformLocation@ ; `string'
PUBLIC	??_C@_0BF@ONDIGCJG@glGetSubroutineIndex@	; `string'
PUBLIC	??_C@_0BP@FAPFAJFP@glGetActiveSubroutineUniformiv@ ; `string'
PUBLIC	??_C@_0CB@KCFFPCGJ@glGetActiveSubroutineUniformNam@ ; `string'
PUBLIC	??_C@_0BK@JPHEACLL@glGetActiveSubroutineName@	; `string'
PUBLIC	??_C@_0BI@CDPOBBHI@glUniformSubroutinesuiv@	; `string'
PUBLIC	??_C@_0BK@BLMOFAGJ@glGetUniformSubroutineuiv@	; `string'
PUBLIC	??_C@_0BE@LOKJCDFH@glGetProgramStageiv@		; `string'
PUBLIC	??_C@_0BC@PAPDGMLA@glPatchParameteri@		; `string'
PUBLIC	??_C@_0BD@LJKINJKN@glPatchParameterfv@		; `string'
PUBLIC	??_C@_0BI@BPJKLMIG@glBindTransformFeedback@	; `string'
PUBLIC	??_C@_0BL@DIGEBFBK@glDeleteTransformFeedbacks@	; `string'
PUBLIC	??_C@_0BI@KANKBGAE@glGenTransformFeedbacks@	; `string'
PUBLIC	??_C@_0BG@BGFLKHBM@glIsTransformFeedback@	; `string'
PUBLIC	??_C@_0BJ@FFNLKBCB@glPauseTransformFeedback@	; `string'
PUBLIC	??_C@_0BK@JMHONFHF@glResumeTransformFeedback@	; `string'
PUBLIC	??_C@_0BI@LEOILCPN@glDrawTransformFeedback@	; `string'
PUBLIC	??_C@_0BO@IGLFNCDG@glDrawTransformFeedbackStream@ ; `string'
PUBLIC	??_C@_0BE@BDKPJDEE@glBeginQueryIndexed@		; `string'
PUBLIC	??_C@_0BC@DPMHMNME@glEndQueryIndexed@		; `string'
PUBLIC	??_C@_0BE@CCFJPMFI@glGetQueryIndexediv@		; `string'
PUBLIC	??_C@_0BI@HGKABJPJ@glReleaseShaderCompiler@	; `string'
PUBLIC	??_C@_0P@IMINELFB@glShaderBinary@		; `string'
PUBLIC	??_C@_0BL@MLAOOHPD@glGetShaderPrecisionFormat@	; `string'
PUBLIC	??_C@_0O@JDFJDNND@glDepthRangef@		; `string'
PUBLIC	??_C@_0O@FMBMCDIL@glClearDepthf@		; `string'
PUBLIC	??_C@_0BD@JBCEHKON@glGetProgramBinary@		; `string'
PUBLIC	??_C@_0BA@MIIDHOO@glProgramBinary@		; `string'
PUBLIC	??_C@_0BE@EELDBEME@glProgramParameteri@		; `string'
PUBLIC	??_C@_0BD@CADKHDMH@glUseProgramStages@		; `string'
PUBLIC	??_C@_0BG@IAIOGMEB@glActiveShaderProgram@	; `string'
PUBLIC	??_C@_0BH@BOJGDFJN@glCreateShaderProgramv@	; `string'
PUBLIC	??_C@_0BG@GLPOKNCG@glBindProgramPipeline@	; `string'
PUBLIC	??_C@_0BJ@CHBGABHE@glDeleteProgramPipelines@	; `string'
PUBLIC	??_C@_0BG@CCBKOCA@glGenProgramPipelines@	; `string'
PUBLIC	??_C@_0BE@DLHPDHCH@glIsProgramPipeline@		; `string'
PUBLIC	??_C@_0BH@DNOPNJMO@glGetProgramPipelineiv@	; `string'
PUBLIC	??_C@_0BD@COCLMGIM@glProgramUniform1i@		; `string'
PUBLIC	??_C@_0BE@JNEFDKLN@glProgramUniform1iv@		; `string'
PUBLIC	??_C@_0BD@KJLDNKED@glProgramUniform1f@		; `string'
PUBLIC	??_C@_0BE@JGBJHNIA@glProgramUniform1fv@		; `string'
PUBLIC	??_C@_0BD@JLIFLIMB@glProgramUniform1d@		; `string'
PUBLIC	??_C@_0BE@JFJNKJOO@glProgramUniform1dv@		; `string'
PUBLIC	??_C@_0BE@EFCDGODH@glProgramUniform1ui@		; `string'
PUBLIC	??_C@_0BF@MBJNFIBB@glProgramUniform1uiv@	; `string'
PUBLIC	??_C@_0BD@CMGNHINF@glProgramUniform2i@		; `string'
PUBLIC	??_C@_0BE@IPPAJFFD@glProgramUniform2iv@		; `string'
PUBLIC	??_C@_0BD@KLPFGEBK@glProgramUniform2f@		; `string'
PUBLIC	??_C@_0BE@IEKMNCGO@glProgramUniform2fv@		; `string'
PUBLIC	??_C@_0BD@JJMDAGJI@glProgramUniform2d@		; `string'
PUBLIC	??_C@_0BE@IHCIAGAA@glProgramUniform2dv@		; `string'
PUBLIC	??_C@_0BE@FHJGMBNJ@glProgramUniform2ui@		; `string'
PUBLIC	??_C@_0BF@IGDNCCMB@glProgramUniform2uiv@	; `string'
PUBLIC	??_C@_0BD@CNKPBCOC@glProgramUniform3i@		; `string'
PUBLIC	??_C@_0BE@DHEMPCDG@glProgramUniform3iv@		; `string'
PUBLIC	??_C@_0BD@KKDHAOCN@glProgramUniform3f@		; `string'
PUBLIC	??_C@_0BE@DMBALFAL@glProgramUniform3fv@		; `string'
PUBLIC	??_C@_0BD@JIABGMKP@glProgramUniform3d@		; `string'
PUBLIC	??_C@_0BE@DPJEGBGF@glProgramUniform3dv@		; `string'
PUBLIC	??_C@_0BE@OPCKKGLM@glProgramUniform3ui@		; `string'
PUBLIC	??_C@_0BF@LLFNALHB@glProgramUniform3uiv@	; `string'
PUBLIC	??_C@_0BD@CIOAAEGH@glProgramUniform4i@		; `string'
PUBLIC	??_C@_0BE@KKJLMKIP@glProgramUniform4iv@		; `string'
PUBLIC	??_C@_0BD@KPHIBIKI@glProgramUniform4f@		; `string'
PUBLIC	??_C@_0BE@KBMHINLC@glProgramUniform4fv@		; `string'
PUBLIC	??_C@_0BD@JNEOHKCK@glProgramUniform4d@		; `string'
PUBLIC	??_C@_0BE@KCEDFJNM@glProgramUniform4dv@		; `string'
PUBLIC	??_C@_0BE@HCPNJOAF@glProgramUniform4ui@		; `string'
PUBLIC	??_C@_0BF@JHNNHGB@glProgramUniform4uiv@		; `string'
PUBLIC	??_C@_0BK@PDPPIOAF@glProgramUniformMatrix2fv@	; `string'
PUBLIC	??_C@_0BK@ELEDOJGA@glProgramUniformMatrix3fv@	; `string'
PUBLIC	??_C@_0BK@NGJENBNJ@glProgramUniformMatrix4fv@	; `string'
PUBLIC	??_C@_0BK@PAHLFKGL@glProgramUniformMatrix2dv@	; `string'
PUBLIC	??_C@_0BK@EIMHDNAO@glProgramUniformMatrix3dv@	; `string'
PUBLIC	??_C@_0BK@NFBAAFLH@glProgramUniformMatrix4dv@	; `string'
PUBLIC	??_C@_0BM@DBFCEBJD@glProgramUniformMatrix2x3fv@	; `string'
PUBLIC	??_C@_0BM@ECLCPFFD@glProgramUniformMatrix3x2fv@	; `string'
PUBLIC	??_C@_0BM@KMIFHJCK@glProgramUniformMatrix2x4fv@	; `string'
PUBLIC	??_C@_0BM@FPLHMFOL@glProgramUniformMatrix4x2fv@	; `string'
PUBLIC	??_C@_0BM@GHNJKKIP@glProgramUniformMatrix3x4fv@	; `string'
PUBLIC	??_C@_0BM@OHALKCIO@glProgramUniformMatrix4x3fv@	; `string'
PUBLIC	??_C@_0BM@DCNGJFPN@glProgramUniformMatrix2x3dv@	; `string'
PUBLIC	??_C@_0BM@EBDGCBDN@glProgramUniformMatrix3x2dv@	; `string'
PUBLIC	??_C@_0BM@KPABKNEE@glProgramUniformMatrix2x4dv@	; `string'
PUBLIC	??_C@_0BM@FMDDBBIF@glProgramUniformMatrix4x2dv@	; `string'
PUBLIC	??_C@_0BM@GEFNHOOB@glProgramUniformMatrix3x4dv@	; `string'
PUBLIC	??_C@_0BM@OEIPHGOA@glProgramUniformMatrix4x3dv@	; `string'
PUBLIC	??_C@_0BK@HHHCKEGH@glValidateProgramPipeline@	; `string'
PUBLIC	??_C@_0BM@BFFCFFFG@glGetProgramPipelineInfoLog@	; `string'
PUBLIC	??_C@_0BC@KBPIECHE@glVertexAttribL1d@		; `string'
PUBLIC	??_C@_0BC@KDLOPMCN@glVertexAttribL2d@		; `string'
PUBLIC	??_C@_0BC@KCHMJGBK@glVertexAttribL3d@		; `string'
PUBLIC	??_C@_0BC@KHDDIAJP@glVertexAttribL4d@		; `string'
PUBLIC	??_C@_0BD@COKMJDBH@glVertexAttribL1dv@		; `string'
PUBLIC	??_C@_0BD@DMBJDMPJ@glVertexAttribL2dv@		; `string'
PUBLIC	??_C@_0BD@IEKFFLJM@glVertexAttribL3dv@		; `string'
PUBLIC	??_C@_0BD@BJHCGDCF@glVertexAttribL4dv@		; `string'
PUBLIC	??_C@_0BH@JBHDDPGM@glVertexAttribLPointer@	; `string'
PUBLIC	??_C@_0BF@JADLCNLO@glGetVertexAttribLdv@	; `string'
PUBLIC	??_C@_0BB@JIDIDPIB@glViewportArrayv@		; `string'
PUBLIC	??_C@_0BD@JIBIAPIN@glViewportIndexedf@		; `string'
PUBLIC	??_C@_0BE@OKPEDJOC@glViewportIndexedfv@		; `string'
PUBLIC	??_C@_0BA@BMNFINIA@glScissorArrayv@		; `string'
PUBLIC	??_C@_0BB@BJHNCIAL@glScissorIndexed@		; `string'
PUBLIC	??_C@_0BC@OOKOHKNA@glScissorIndexedv@		; `string'
PUBLIC	??_C@_0BD@JLCIOMKN@glDepthRangeArrayv@		; `string'
PUBLIC	??_C@_0BE@FMCFIJBP@glDepthRangeIndexed@		; `string'
PUBLIC	??_C@_0O@JKEOHGC@glGetFloati_v@			; `string'
PUBLIC	??_C@_0P@PDJCBGIA@glGetDoublei_v@		; `string'
PUBLIC	??_C@_0CC@FBJBJHCN@glDrawArraysInstancedBaseInstan@ ; `string'
PUBLIC	??_C@_0CE@NGNINKJD@glDrawElementsInstancedBaseInst@ ; `string'
PUBLIC	??_C@_0CO@GCMNEAOA@glDrawElementsInstancedBaseVert@ ; `string'
PUBLIC	??_C@_0BG@BAOCDJPF@glGetInternalformativ@	; `string'
PUBLIC	??_C@_0CB@CEHFMJFN@glGetActiveAtomicCounterBufferi@ ; `string'
PUBLIC	??_C@_0BD@GAKEPNGD@glBindImageTexture@		; `string'
PUBLIC	??_C@_0BA@HIHPNLBJ@glMemoryBarrier@		; `string'
PUBLIC	??_C@_0P@LCLGPEBO@glTexStorage1D@		; `string'
PUBLIC	??_C@_0P@LAPAEKEH@glTexStorage2D@		; `string'
PUBLIC	??_C@_0P@LBDCCAHA@glTexStorage3D@		; `string'
PUBLIC	??_C@_0CB@NDMLCEF@glDrawTransformFeedbackInstance@ ; `string'
PUBLIC	??_C@_0CH@OMPFKBLK@glDrawTransformFeedbackStreamIn@ ; `string'
PUBLIC	??_C@_0BC@FCMBBKMP@glClearBufferData@		; `string'
PUBLIC	??_C@_0BF@FDHIBCMD@glClearBufferSubData@	; `string'
PUBLIC	??_C@_0BC@DKKFFIGC@glDispatchCompute@		; `string'
PUBLIC	??_C@_0BK@EJMOGMMI@glDispatchComputeIndirect@	; `string'
PUBLIC	??_C@_0BD@BNCHOBBL@glCopyImageSubData@		; `string'
PUBLIC	??_C@_0BI@MLACHGDK@glFramebufferParameteri@	; `string'
PUBLIC	??_C@_0BM@BFEEFCMK@glGetFramebufferParameteriv@	; `string'
PUBLIC	??_C@_0BI@PHNNEGBD@glGetInternalformati64v@	; `string'
PUBLIC	??_C@_0BI@FJDKFLGL@glInvalidateTexSubImage@	; `string'
PUBLIC	??_C@_0BF@KHIECPKG@glInvalidateTexImage@	; `string'
PUBLIC	??_C@_0BK@HOHOHNAC@glInvalidateBufferSubData@	; `string'
PUBLIC	??_C@_0BH@OGIFIBHA@glInvalidateBufferData@	; `string'
PUBLIC	??_C@_0BI@OAJPOHIP@glInvalidateFramebuffer@	; `string'
PUBLIC	??_C@_0BL@IHGLAPPE@glInvalidateSubFramebuffer@	; `string'
PUBLIC	??_C@_0BK@IKGAIKOP@glMultiDrawArraysIndirect@	; `string'
PUBLIC	??_C@_0BM@KHEEFMKO@glMultiDrawElementsIndirect@	; `string'
PUBLIC	??_C@_0BI@ICGPDPK@glGetProgramInterfaceiv@	; `string'
PUBLIC	??_C@_0BK@DBDCONKB@glGetProgramResourceIndex@	; `string'
PUBLIC	??_C@_0BJ@OHCPEAGJ@glGetProgramResourceName@	; `string'
PUBLIC	??_C@_0BH@LEDFEPHI@glGetProgramResourceiv@	; `string'
PUBLIC	??_C@_0BN@BIJNENLC@glGetProgramResourceLocation@ ; `string'
PUBLIC	??_C@_0CC@GHECGAIH@glGetProgramResourceLocationInd@ ; `string'
PUBLIC	??_C@_0BM@GDDCNIBO@glShaderStorageBlockBinding@	; `string'
PUBLIC	??_C@_0BB@DPMGLFNI@glTexBufferRange@		; `string'
PUBLIC	??_C@_0BK@PDJAKDKP@glTexStorage2DMultisample@	; `string'
PUBLIC	??_C@_0BK@GOJPECNJ@glTexStorage3DMultisample@	; `string'
PUBLIC	??_C@_0O@BNFDGIMP@glTextureView@		; `string'
PUBLIC	??_C@_0BD@FCGJAOHG@glBindVertexBuffer@		; `string'
PUBLIC	??_C@_0BF@JEIPPBFE@glVertexAttribFormat@	; `string'
PUBLIC	??_C@_0BG@KJAHAHDI@glVertexAttribIFormat@	; `string'
PUBLIC	??_C@_0BG@OBOHAJFM@glVertexAttribLFormat@	; `string'
PUBLIC	??_C@_0BG@MLFHCGE@glVertexAttribBinding@	; `string'
PUBLIC	??_C@_0BH@GNGCLGOI@glVertexBindingDivisor@	; `string'
PUBLIC	??_C@_0BG@MNBDCEEP@glDebugMessageControl@	; `string'
PUBLIC	??_C@_0BF@DGOJNFDO@glDebugMessageInsert@	; `string'
PUBLIC	??_C@_0BH@IGFENJCI@glDebugMessageCallback@	; `string'
PUBLIC	??_C@_0BF@FGBMJKND@glGetDebugMessageLog@	; `string'
PUBLIC	??_C@_0BB@DEFFBEGJ@glPushDebugGroup@		; `string'
PUBLIC	??_C@_0BA@PMJBDENK@glPopDebugGroup@		; `string'
PUBLIC	??_C@_0O@EFJDECDM@glObjectLabel@		; `string'
PUBLIC	??_C@_0BB@MOEDHKDB@glGetObjectLabel@		; `string'
PUBLIC	??_C@_0BB@FBABGDIL@glObjectPtrLabel@		; `string'
PUBLIC	??_C@_0BE@MIJFJOHM@glGetObjectPtrLabel@		; `string'
PUBLIC	??_C@_0O@LADEDGJO@glGetPointerv@		; `string'
PUBLIC	??_C@_0BA@COBILMHM@glBufferStorage@		; `string'
PUBLIC	??_C@_0BA@FNPOIBAF@glClearTexImage@		; `string'
PUBLIC	??_C@_0BD@CFALBON@glClearTexSubImage@		; `string'
PUBLIC	??_C@_0BC@ENBBLPHM@glBindBuffersBase@		; `string'
PUBLIC	??_C@_0BD@ODFFOKPN@glBindBuffersRange@		; `string'
PUBLIC	??_C@_0P@KHDEIIMA@glBindTextures@		; `string'
PUBLIC	??_C@_0P@FADPDFKM@glBindSamplers@		; `string'
PUBLIC	??_C@_0BE@NAMJLOCK@glBindImageTextures@		; `string'
PUBLIC	??_C@_0BE@LNCGJHDC@glBindVertexBuffers@		; `string'
PUBLIC	??_C@_0O@DMMKFMGC@glClipControl@		; `string'
PUBLIC	??_C@_0BL@HPCMJLAK@glCreateTransformFeedbacks@	; `string'
PUBLIC	??_C@_0BO@EGLKNJFA@glTransformFeedbackBufferBase@ ; `string'
PUBLIC	??_C@_0BP@NBIGCNHI@glTransformFeedbackBufferRange@ ; `string'
PUBLIC	??_C@_0BJ@OFMLPMDO@glGetTransformFeedbackiv@	; `string'
PUBLIC	??_C@_0BK@IPHNHFEI@glGetTransformFeedbacki_v@	; `string'
PUBLIC	??_C@_0BM@KDHFPNLE@glGetTransformFeedbacki64_v@	; `string'
PUBLIC	??_C@_0BA@LNBCEANP@glCreateBuffers@		; `string'
PUBLIC	??_C@_0BF@INMFIINC@glNamedBufferStorage@	; `string'
PUBLIC	??_C@_0BC@LHEABGCG@glNamedBufferData@		; `string'
PUBLIC	??_C@_0BF@MDEBAFLD@glNamedBufferSubData@	; `string'
PUBLIC	??_C@_0BJ@MJPDCHND@glCopyNamedBufferSubData@	; `string'
PUBLIC	??_C@_0BH@KJMLMCB@glClearNamedBufferData@	; `string'
PUBLIC	??_C@_0BK@BNIDNJBH@glClearNamedBufferSubData@	; `string'
PUBLIC	??_C@_0BB@JLMCGIDB@glMapNamedBuffer@		; `string'
PUBLIC	??_C@_0BG@JLCGKFD@glMapNamedBufferRange@	; `string'
PUBLIC	??_C@_0BD@LAAONAHD@glUnmapNamedBuffer@		; `string'
PUBLIC	??_C@_0BO@DBGNKBKH@glFlushMappedNamedBufferRange@ ; `string'
PUBLIC	??_C@_0BM@KFAGBFPK@glGetNamedBufferParameteriv@	; `string'
PUBLIC	??_C@_0BO@ECJNIDNL@glGetNamedBufferParameteri64v@ ; `string'
PUBLIC	??_C@_0BJ@NBEMEIKG@glGetNamedBufferPointerv@	; `string'
PUBLIC	??_C@_0BI@PJBCKPNA@glGetNamedBufferSubData@	; `string'
PUBLIC	??_C@_0BF@DDKJIBLC@glCreateFramebuffers@	; `string'
PUBLIC	??_C@_0BP@MGCPNBGC@glNamedFramebufferRenderbuffer@ ; `string'
PUBLIC	??_C@_0BN@LBMOOIHC@glNamedFramebufferParameteri@ ; `string'
PUBLIC	??_C@_0BK@PNJJLPPI@glNamedFramebufferTexture@	; `string'
PUBLIC	??_C@_0BP@PHGPDAJM@glNamedFramebufferTextureLayer@ ; `string'
PUBLIC	??_C@_0BN@MOAIHNEF@glNamedFramebufferDrawBuffer@ ; `string'
PUBLIC	??_C@_0BO@CGKJHFH@glNamedFramebufferDrawBuffers@ ; `string'
PUBLIC	??_C@_0BN@LPANNPJE@glNamedFramebufferReadBuffer@ ; `string'
PUBLIC	??_C@_0CB@OGGNKJIL@glInvalidateNamedFramebufferDat@ ; `string'
PUBLIC	??_C@_0CE@DEGDCFND@glInvalidateNamedFramebufferSub@ ; `string'
PUBLIC	??_C@_0BK@NPOLJJAK@glClearNamedFramebufferiv@	; `string'
PUBLIC	??_C@_0BL@JENKNAJN@glClearNamedFramebufferuiv@	; `string'
PUBLIC	??_C@_0BK@NELHNODH@glClearNamedFramebufferfv@	; `string'
PUBLIC	??_C@_0BK@BJONNAKJ@glClearNamedFramebufferfi@	; `string'
PUBLIC	??_C@_0BH@FNFDNHAI@glBlitNamedFramebuffer@	; `string'
PUBLIC	??_C@_0BO@LMABFPGK@glCheckNamedFramebufferStatus@ ; `string'
PUBLIC	??_C@_0CB@COGAJBEM@glGetNamedFramebufferParameteri@ ; `string'
PUBLIC	??_C@_0CL@BGDPEPCC@glGetNamedFramebufferAttachment@ ; `string'
PUBLIC	??_C@_0BG@JJNJGAME@glCreateRenderbuffers@	; `string'
PUBLIC	??_C@_0BL@DGDPFKGM@glNamedRenderbufferStorage@	; `string'
PUBLIC	??_C@_0CG@IDKJGKBA@glNamedRenderbufferStorageMulti@ ; `string'
PUBLIC	??_C@_0CC@FCEAEAHI@glGetNamedRenderbufferParameter@ ; `string'
PUBLIC	??_C@_0BB@LABGPBKD@glCreateTextures@		; `string'
PUBLIC	??_C@_0BA@BEJOBNBA@glTextureBuffer@		; `string'
PUBLIC	??_C@_0BF@HAEPGPBJ@glTextureBufferRange@	; `string'
PUBLIC	??_C@_0BD@CJOBHECL@glTextureStorage1D@		; `string'
PUBLIC	??_C@_0BD@CLKHMKHC@glTextureStorage2D@		; `string'
PUBLIC	??_C@_0BD@CKGFKAEF@glTextureStorage3D@		; `string'
PUBLIC	??_C@_0BO@CIHBMJOI@glTextureStorage2DMultisample@ ; `string'
PUBLIC	??_C@_0BO@LFHOCIJO@glTextureStorage3DMultisample@ ; `string'
PUBLIC	??_C@_0BE@IDMGLJDA@glTextureSubImage1D@		; `string'
PUBLIC	??_C@_0BE@IBIAAHGJ@glTextureSubImage2D@		; `string'
PUBLIC	??_C@_0BE@IAECGNFO@glTextureSubImage3D@		; `string'
PUBLIC	??_C@_0BO@NIHAIHFC@glCompressedTextureSubImage1D@ ; `string'
PUBLIC	??_C@_0BO@NKDGDJAL@glCompressedTextureSubImage2D@ ; `string'
PUBLIC	??_C@_0BO@NLPEFDDM@glCompressedTextureSubImage3D@ ; `string'
PUBLIC	??_C@_0BI@DBEKPOLO@glCopyTextureSubImage1D@	; `string'
PUBLIC	??_C@_0BI@DDAMEAOH@glCopyTextureSubImage2D@	; `string'
PUBLIC	??_C@_0BI@DCMOCKNA@glCopyTextureSubImage3D@	; `string'
PUBLIC	??_C@_0BE@NLINBPMM@glTextureParameterf@		; `string'
PUBLIC	??_C@_0BF@OLGMNNPE@glTextureParameterfv@	; `string'
PUBLIC	??_C@_0BE@FMBFADAD@glTextureParameteri@		; `string'
PUBLIC	??_C@_0BG@CMHFNPIN@glTextureParameterIiv@	; `string'
PUBLIC	??_C@_0BH@OHPFFIFI@glTextureParameterIuiv@	; `string'
PUBLIC	??_C@_0BF@OADAJKMJ@glTextureParameteriv@	; `string'
PUBLIC	??_C@_0BI@JJPLGFEG@glGenerateTextureMipmap@	; `string'
PUBLIC	??_C@_0BC@NKGMGGNI@glBindTextureUnit@		; `string'
PUBLIC	??_C@_0BC@PJDCJNIH@glGetTextureImage@		; `string'
PUBLIC	??_C@_0BM@JOKODHH@glGetCompressedTextureImage@	; `string'
PUBLIC	??_C@_0BN@HMEFKCC@glGetTextureLevelParameterfv@	; `string'
PUBLIC	??_C@_0BN@MJIBNBP@glGetTextureLevelParameteriv@	; `string'
PUBLIC	??_C@_0BI@NBDPHHJH@glGetTextureParameterfv@	; `string'
PUBLIC	??_C@_0BJ@PIPELMMF@glGetTextureParameterIiv@	; `string'
PUBLIC	??_C@_0BK@JPCGBAJJ@glGetTextureParameterIuiv@	; `string'
PUBLIC	??_C@_0BI@NKGDDAKK@glGetTextureParameteriv@	; `string'
PUBLIC	??_C@_0BF@CMMGIOCI@glCreateVertexArrays@	; `string'
PUBLIC	??_C@_0BL@FEKBMKFD@glDisableVertexArrayAttrib@	; `string'
PUBLIC	??_C@_0BK@MJMKFCHC@glEnableVertexArrayAttrib@	; `string'
PUBLIC	??_C@_0BL@GGCAPDMO@glVertexArrayElementBuffer@	; `string'
PUBLIC	??_C@_0BK@BIEMNHGJ@glVertexArrayVertexBuffer@	; `string'
PUBLIC	??_C@_0BL@DAGELPBO@glVertexArrayVertexBuffers@	; `string'
PUBLIC	??_C@_0BL@DJHJAEGB@glVertexArrayAttribBinding@	; `string'
PUBLIC	??_C@_0BK@ONFBAOHM@glVertexArrayAttribFormat@	; `string'
PUBLIC	??_C@_0BL@JMMLHBDN@glVertexArrayAttribIFormat@	; `string'
PUBLIC	??_C@_0BL@NECLHPFJ@glVertexArrayAttribLFormat@	; `string'
PUBLIC	??_C@_0BM@BNDNIOBB@glVertexArrayBindingDivisor@	; `string'
PUBLIC	??_C@_0BD@CPJNCJFG@glGetVertexArrayiv@		; `string'
PUBLIC	??_C@_0BK@FIIPMDBK@glGetVertexArrayIndexediv@	; `string'
PUBLIC	??_C@_0BM@HHNNHCN@glGetVertexArrayIndexed64iv@	; `string'
PUBLIC	??_C@_0BB@EHBNEMMP@glCreateSamplers@		; `string'
PUBLIC	??_C@_0BJ@GJEEIMGK@glCreateProgramPipelines@	; `string'
PUBLIC	??_C@_0BA@PGNDPLG@glCreateQueries@		; `string'
PUBLIC	??_C@_0BL@KFECDHBF@glGetQueryBufferObjecti64v@	; `string'
PUBLIC	??_C@_0BJ@OBIFNHGB@glGetQueryBufferObjectiv@	; `string'
PUBLIC	??_C@_0BM@DFNHDHD@glGetQueryBufferObjectui64v@	; `string'
PUBLIC	??_C@_0BK@EOIEAGAD@glGetQueryBufferObjectuiv@	; `string'
PUBLIC	??_C@_0BI@IDCHHHAI@glMemoryBarrierByRegion@	; `string'
PUBLIC	??_C@_0BF@JEEEKNGB@glGetTextureSubImage@	; `string'
PUBLIC	??_C@_0BP@BIDENANP@glGetCompressedTextureSubImage@ ; `string'
PUBLIC	??_C@_0BJ@ILPAOCDN@glGetGraphicsResetStatus@	; `string'
PUBLIC	??_C@_0BJ@HLNIHAOG@glGetnCompressedTexImage@	; `string'
PUBLIC	??_C@_0P@FBKOCLCM@glGetnTexImage@		; `string'
PUBLIC	??_C@_0BA@KLGIFHJB@glGetnUniformdv@		; `string'
PUBLIC	??_C@_0BA@KIOMIDPP@glGetnUniformfv@		; `string'
PUBLIC	??_C@_0BA@KDLAMEMC@glGetnUniformiv@		; `string'
PUBLIC	??_C@_0BB@BBJMBEC@glGetnUniformuiv@		; `string'
PUBLIC	??_C@_0O@NELODAJJ@glReadnPixels@		; `string'
PUBLIC	??_C@_0M@FBDPJCFH@glGetnMapdv@			; `string'
PUBLIC	??_C@_0M@FCLLEGDJ@glGetnMapfv@			; `string'
PUBLIC	??_C@_0M@FJOHABAE@glGetnMapiv@			; `string'
PUBLIC	??_C@_0BB@JKBANCED@glGetnPixelMapfv@		; `string'
PUBLIC	??_C@_0BC@MDPMMCLE@glGetnPixelMapuiv@		; `string'
PUBLIC	??_C@_0BC@NCENOEBC@glGetnPixelMapusv@		; `string'
PUBLIC	??_C@_0BF@NBHIHHJA@glGetnPolygonStipple@	; `string'
PUBLIC	??_C@_0BB@EFKGOAOL@glGetnColorTable@		; `string'
PUBLIC	??_C@_0BI@GBFNHONB@glGetnConvolutionFilter@	; `string'
PUBLIC	??_C@_0BG@LBKKJBFC@glGetnSeparableFilter@	; `string'
PUBLIC	??_C@_0BA@POEMGEO@glGetnHistogram@		; `string'
PUBLIC	??_C@_0N@EFFKFJMK@glGetnMinmax@			; `string'
PUBLIC	??_C@_0BB@MNKDFGFC@glTextureBarrier@		; `string'
PUBLIC	??_C@_0BD@LNCLLNDI@glSpecializeShader@		; `string'
PUBLIC	??_C@_0BP@GGIOCPJI@glMultiDrawArraysIndirectCount@ ; `string'
PUBLIC	??_C@_0CB@BPEMAMPH@glMultiDrawElementsIndirectCoun@ ; `string'
PUBLIC	??_C@_0BF@ECLDHBOO@glPolygonOffsetClamp@	; `string'
PUBLIC	??_C@_0BC@CCALJJJM@glTbufferMask3DFX@		; `string'
PUBLIC	??_C@_0BI@EBMKDNGP@glDebugMessageEnableAMD@	; `string'
PUBLIC	??_C@_0BI@MEJDAIOA@glDebugMessageInsertAMD@	; `string'
PUBLIC	??_C@_0BK@MFFNFHKP@glDebugMessageCallbackAMD@	; `string'
PUBLIC	??_C@_0BI@NPJPBOCK@glGetDebugMessageLogAMD@	; `string'
PUBLIC	??_C@_0BG@HOEHDCNM@glBlendFuncIndexedAMD@	; `string'
PUBLIC	??_C@_0BO@JNFLECCJ@glBlendFuncSeparateIndexedAMD@ ; `string'
PUBLIC	??_C@_0BK@PEIMAMJL@glBlendEquationIndexedAMD@	; `string'
PUBLIC	??_C@_0CC@MGCGBBJG@glBlendEquationSeparateIndexedA@ ; `string'
PUBLIC	??_C@_0CM@GJMFOFBH@glRenderbufferStorageMultisampl@ ; `string'
PUBLIC	??_C@_0DB@ICEPJILO@glNamedRenderbufferStorageMulti@ ; `string'
PUBLIC	??_C@_0CC@IPCJFILP@glFramebufferSamplePositionsfvA@ ; `string'
PUBLIC	??_C@_0CH@GFACFLFK@glNamedFramebufferSamplePositio@ ; `string'
PUBLIC	??_C@_0BP@FLKNLAMD@glGetFramebufferParameterfvAMD@ ; `string'
PUBLIC	??_C@_0CE@GCMBLHJG@glGetNamedFramebufferParameterf@ ; `string'
PUBLIC	??_C@_0BA@NJGFNNNL@glUniform1i64NV@		; `string'
PUBLIC	??_C@_0BA@OIINMHEG@glUniform2i64NV@		; `string'
PUBLIC	??_C@_0BA@EOPKMMPC@glUniform3i64NV@		; `string'
PUBLIC	??_C@_0BA@ILFNPCHM@glUniform4i64NV@		; `string'
PUBLIC	??_C@_0BB@NKJDLGNF@glUniform1i64vNV@		; `string'
PUBLIC	??_C@_0BB@FEBMLBDG@glUniform2i64vNV@		; `string'
PUBLIC	??_C@_0BB@JILGLBKI@glUniform3i64vNV@		; `string'
PUBLIC	??_C@_0BB@JCHDLILB@glUniform4i64vNV@		; `string'
PUBLIC	??_C@_0BB@MMOIDJJL@glUniform1ui64NV@		; `string'
PUBLIC	??_C@_0BB@ECGHDOHI@glUniform2ui64NV@		; `string'
PUBLIC	??_C@_0BB@IOMNDOOG@glUniform3ui64NV@		; `string'
PUBLIC	??_C@_0BB@IEAIDHPP@glUniform4ui64NV@		; `string'
PUBLIC	??_C@_0BC@KMFKHKKB@glUniform1ui64vNV@		; `string'
PUBLIC	??_C@_0BC@JFNHEGGE@glUniform2ui64vNV@		; `string'
PUBLIC	??_C@_0BC@ICKMFCCH@glUniform3ui64vNV@		; `string'
PUBLIC	??_C@_0BC@OGMNDPOO@glUniform4ui64vNV@		; `string'
PUBLIC	??_C@_0BD@OCPGEOPM@glGetUniformi64vNV@		; `string'
PUBLIC	??_C@_0BE@OONAIHDF@glGetUniformui64vNV@		; `string'
PUBLIC	??_C@_0BH@FPMGGLBP@glProgramUniform1i64NV@	; `string'
PUBLIC	??_C@_0BH@GOCOHBIC@glProgramUniform2i64NV@	; `string'
PUBLIC	??_C@_0BH@MIFJHKDG@glProgramUniform3i64NV@	; `string'
PUBLIC	??_C@_0BH@NPOEELI@glProgramUniform4i64NV@	; `string'
PUBLIC	??_C@_0BI@EGBMBDMK@glProgramUniform1i64vNV@	; `string'
PUBLIC	??_C@_0BI@MIJDBECJ@glProgramUniform2i64vNV@	; `string'
PUBLIC	??_C@_0BI@EDJBELH@glProgramUniform3i64vNV@	; `string'
PUBLIC	??_C@_0BI@OPMBNKO@glProgramUniform4i64vNV@	; `string'
PUBLIC	??_C@_0BI@FAGHJMIE@glProgramUniform1ui64NV@	; `string'
PUBLIC	??_C@_0BI@NOOIJLGH@glProgramUniform2ui64NV@	; `string'
PUBLIC	??_C@_0BI@BCECJLPJ@glProgramUniform3ui64NV@	; `string'
PUBLIC	??_C@_0BI@BIIHJCOA@glProgramUniform4ui64NV@	; `string'
PUBLIC	??_C@_0BJ@CBMOPIPB@glProgramUniform1ui64vNV@	; `string'
PUBLIC	??_C@_0BJ@BIEDMEDE@glProgramUniform2ui64vNV@	; `string'
PUBLIC	??_C@_0BJ@PDINAHH@glProgramUniform3ui64vNV@	; `string'
PUBLIC	??_C@_0BJ@GLFJLNLO@glProgramUniform4ui64vNV@	; `string'
PUBLIC	??_C@_0BM@CLGIOHKN@glVertexAttribParameteriAMD@	; `string'
PUBLIC	??_C@_0BN@OBJPCNEE@glMultiDrawArraysIndirectAMD@ ; `string'
PUBLIC	??_C@_0BP@HLKGEMNG@glMultiDrawElementsIndirectAMD@ ; `string'
PUBLIC	??_C@_0O@DAIPGKBL@glGenNamesAMD@		; `string'
PUBLIC	??_C@_0BB@CHLEOIED@glDeleteNamesAMD@		; `string'
PUBLIC	??_C@_0M@BCDOLDGP@glIsNameAMD@			; `string'
PUBLIC	??_C@_0BM@PAHCFMHD@glQueryObjectParameteruiAMD@	; `string'
PUBLIC	??_C@_0BK@OBDIDPIN@glGetPerfMonitorGroupsAMD@	; `string'
PUBLIC	??_C@_0BM@IHAEOFHH@glGetPerfMonitorCountersAMD@	; `string'
PUBLIC	??_C@_0BP@IDEMBLCM@glGetPerfMonitorGroupStringAMD@ ; `string'
PUBLIC	??_C@_0CB@NGPHNKPI@glGetPerfMonitorCounterStringAM@ ; `string'
PUBLIC	??_C@_0BP@EMKHPLAI@glGetPerfMonitorCounterInfoAMD@ ; `string'
PUBLIC	??_C@_0BF@FCLLNAHN@glGenPerfMonitorsAMD@	; `string'
PUBLIC	??_C@_0BI@KMGCEMP@glDeletePerfMonitorsAMD@	; `string'
PUBLIC	??_C@_0BP@NJOMCJCK@glSelectPerfMonitorCountersAMD@ ; `string'
PUBLIC	??_C@_0BG@NDMELBFI@glBeginPerfMonitorAMD@	; `string'
PUBLIC	??_C@_0BE@GEJEHJII@glEndPerfMonitorAMD@		; `string'
PUBLIC	??_C@_0BP@NAMEIDMB@glGetPerfMonitorCounterDataAMD@ ; `string'
PUBLIC	??_C@_0BG@HBDKMMDF@glSetMultisamplefvAMD@	; `string'
PUBLIC	??_C@_0BG@EDPMMPBF@glTexStorageSparseAMD@	; `string'
PUBLIC	??_C@_0BK@EHGFCEEG@glTextureStorageSparseAMD@	; `string'
PUBLIC	??_C@_0BE@EDMIOPLH@glStencilOpValueAMD@		; `string'
PUBLIC	??_C@_0BI@FBBMDFBE@glTessellationFactorAMD@	; `string'
PUBLIC	??_C@_0BG@LFMBMMLB@glTessellationModeAMD@	; `string'
PUBLIC	??_C@_0BG@PGOLEBCJ@glElementPointerAPPLE@	; `string'
PUBLIC	??_C@_0BI@JDBMIEOE@glDrawElementArrayAPPLE@	; `string'
PUBLIC	??_C@_0BN@GNNIAEPI@glDrawRangeElementArrayAPPLE@ ; `string'
PUBLIC	??_C@_0BN@BKNBHILM@glMultiDrawElementArrayAPPLE@ ; `string'
PUBLIC	??_C@_0CC@NKDNAPPM@glMultiDrawRangeElementArrayAPP@ ; `string'
PUBLIC	??_C@_0BB@IEJHCLGA@glGenFencesAPPLE@		; `string'
PUBLIC	??_C@_0BE@FOIGEHJC@glDeleteFencesAPPLE@		; `string'
PUBLIC	??_C@_0BA@GGCBEECP@glSetFenceAPPLE@		; `string'
PUBLIC	??_C@_0P@OHBLDEFC@glIsFenceAPPLE@		; `string'
PUBLIC	??_C@_0BB@OABOFGM@glTestFenceAPPLE@		; `string'
PUBLIC	??_C@_0BD@JMHFLEKL@glFinishFenceAPPLE@		; `string'
PUBLIC	??_C@_0BC@OGMHOANA@glTestObjectAPPLE@		; `string'
PUBLIC	??_C@_0BE@ODFFMDJC@glFinishObjectAPPLE@		; `string'
PUBLIC	??_C@_0BI@LLMHDAGP@glBufferParameteriAPPLE@	; `string'
PUBLIC	??_C@_0BO@EDNNLCHB@glFlushMappedBufferRangeAPPLE@ ; `string'
PUBLIC	??_C@_0BH@KOBOEEKK@glObjectPurgeableAPPLE@	; `string'
PUBLIC	??_C@_0BJ@LKEHAHBF@glObjectUnpurgeableAPPLE@	; `string'
PUBLIC	??_C@_0BM@BGLEEFHM@glGetObjectParameterivAPPLE@	; `string'
PUBLIC	??_C@_0BE@MDEACJAE@glTextureRangeAPPLE@		; `string'
PUBLIC	??_C@_0BP@JLGLBEPN@glGetTexParameterPointervAPPLE@ ; `string'
PUBLIC	??_C@_0BH@NAEHNJFE@glBindVertexArrayAPPLE@	; `string'
PUBLIC	??_C@_0BK@GJPBJNDL@glDeleteVertexArraysAPPLE@	; `string'
PUBLIC	??_C@_0BH@FNCDPHJ@glGenVertexArraysAPPLE@	; `string'
PUBLIC	??_C@_0BF@KHBAGIFI@glIsVertexArrayAPPLE@	; `string'
PUBLIC	??_C@_0BI@FNLCAKHD@glVertexArrayRangeAPPLE@	; `string'
PUBLIC	??_C@_0BN@MGPDCEEF@glFlushVertexArrayRangeAPPLE@ ; `string'
PUBLIC	??_C@_0BN@DKJFEMJM@glVertexArrayParameteriAPPLE@ ; `string'
PUBLIC	??_C@_0BK@LFEMMKOJ@glEnableVertexAttribAPPLE@	; `string'
PUBLIC	??_C@_0BL@CICHFCMI@glDisableVertexAttribAPPLE@	; `string'
PUBLIC	??_C@_0BN@EGADKADG@glIsVertexAttribEnabledAPPLE@ ; `string'
PUBLIC	??_C@_0BJ@ILEICLML@glMapVertexAttrib1dAPPLE@	; `string'
PUBLIC	??_C@_0BJ@BMNHDKOC@glMapVertexAttrib1fAPPLE@	; `string'
PUBLIC	??_C@_0BJ@FMHCMCI@glMapVertexAttrib2dAPPLE@	; `string'
PUBLIC	??_C@_0BJ@JCFIDNAB@glMapVertexAttrib2fAPPLE@	; `string'
PUBLIC	??_C@_0BK@GDKNFLLH@glPrimitiveBoundingBoxARB@	; `string'
PUBLIC	??_C@_0BG@LFGIGKAH@glGetTextureHandleARB@	; `string'
PUBLIC	??_C@_0BN@DEFEDMH@glGetTextureSamplerHandleARB@	; `string'
PUBLIC	??_C@_0BP@KJHAKLAH@glMakeTextureHandleResidentARB@ ; `string'
PUBLIC	??_C@_0CC@EGJJLHFP@glMakeTextureHandleNonResidentA@ ; `string'
PUBLIC	??_C@_0BE@JHMEHOCI@glGetImageHandleARB@		; `string'
PUBLIC	??_C@_0BN@ECHDHELL@glMakeImageHandleResidentARB@ ; `string'
PUBLIC	??_C@_0CA@BFHEDIKK@glMakeImageHandleNonResidentARB@ ; `string'
PUBLIC	??_C@_0BH@PPMOJDBB@glUniformHandleui64ARB@	; `string'
PUBLIC	??_C@_0BI@OFILPMHB@glUniformHandleui64vARB@	; `string'
PUBLIC	??_C@_0BO@PELKNEEA@glProgramUniformHandleui64ARB@ ; `string'
PUBLIC	??_C@_0BP@PJOMOJFE@glProgramUniformHandleui64vARB@ ; `string'
PUBLIC	??_C@_0BN@JLGBAMKI@glIsTextureHandleResidentARB@ ; `string'
PUBLIC	??_C@_0BL@IFBPNOMI@glIsImageHandleResidentARB@	; `string'
PUBLIC	??_C@_0BI@IPIKGHJF@glVertexAttribL1ui64ARB@	; `string'
PUBLIC	??_C@_0BJ@PCOPPLM@glVertexAttribL1ui64vARB@	; `string'
PUBLIC	??_C@_0BL@HBJNADOI@glGetVertexAttribLui64vARB@	; `string'
PUBLIC	??_C@_0BL@FGCKKDPG@glCreateSyncFromCLeventARB@	; `string'
PUBLIC	??_C@_0BA@PBPFKPHF@glClampColorARB@		; `string'
PUBLIC	??_C@_0BO@GJCJOBMI@glDispatchComputeGroupSizeARB@ ; `string'
PUBLIC	??_C@_0BJ@IAEPICEJ@glDebugMessageControlARB@	; `string'
PUBLIC	??_C@_0BI@IFLDELCL@glDebugMessageInsertARB@	; `string'
PUBLIC	??_C@_0BK@IEHNBEGE@glDebugMessageCallbackARB@	; `string'
PUBLIC	??_C@_0BI@JOLPFNOB@glGetDebugMessageLogARB@	; `string'
PUBLIC	??_C@_0BB@DLEFHLGI@glDrawBuffersARB@		; `string'
PUBLIC	??_C@_0BE@MKEGJKA@glBlendEquationiARB@		; `string'
PUBLIC	??_C@_0BM@DHGCGJJC@glBlendEquationSeparateiARB@	; `string'
PUBLIC	??_C@_0BA@IINKCNIC@glBlendFunciARB@		; `string'
PUBLIC	??_C@_0BI@EJDLCHDA@glBlendFuncSeparateiARB@	; `string'
PUBLIC	??_C@_0BJ@NIEKILNL@glDrawArraysInstancedARB@	; `string'
PUBLIC	??_C@_0BL@JMJLDLNF@glDrawElementsInstancedARB@	; `string'
PUBLIC	??_C@_0BD@HIBLHAHB@glProgramStringARB@		; `string'
PUBLIC	??_C@_0BB@OAGHGJAC@glBindProgramARB@		; `string'
PUBLIC	??_C@_0BE@EJCMOJPP@glDeleteProgramsARB@		; `string'
PUBLIC	??_C@_0BB@JDDNIFAN@glGenProgramsARB@		; `string'
PUBLIC	??_C@_0BL@IFMMBIHE@glProgramEnvParameter4dARB@	; `string'
PUBLIC	??_C@_0BM@NICJGLCN@glProgramEnvParameter4dvARB@	; `string'
PUBLIC	??_C@_0BL@PPAMELBE@glProgramEnvParameter4fARB@	; `string'
PUBLIC	??_C@_0BM@JFOBMKCG@glProgramEnvParameter4fvARB@	; `string'
PUBLIC	??_C@_0BN@ELHLGELC@glProgramLocalParameter4dARB@ ; `string'
PUBLIC	??_C@_0BO@KKOALLNE@glProgramLocalParameter4dvARB@ ; `string'
PUBLIC	??_C@_0BN@DBLLDHNC@glProgramLocalParameter4fARB@ ; `string'
PUBLIC	??_C@_0BO@OHCIBKNP@glProgramLocalParameter4fvARB@ ; `string'
PUBLIC	??_C@_0BO@NHNBOOKI@glGetProgramEnvParameterdvARB@ ; `string'
PUBLIC	??_C@_0BO@JKBJEPKD@glGetProgramEnvParameterfvARB@ ; `string'
PUBLIC	??_C@_0CA@IBOBFJKB@glGetProgramLocalParameterdvARB@ ; `string'
PUBLIC	??_C@_0CA@MMCJPIKK@glGetProgramLocalParameterfvARB@ ; `string'
PUBLIC	??_C@_0BC@OHCOJECC@glGetProgramivARB@		; `string'
PUBLIC	??_C@_0BG@OAOKBADO@glGetProgramStringARB@	; `string'
PUBLIC	??_C@_0P@LKCDEJPE@glIsProgramARB@		; `string'
PUBLIC	??_C@_0BH@GELPODLK@glProgramParameteriARB@	; `string'
PUBLIC	??_C@_0BI@KFEKMNEL@glFramebufferTextureARB@	; `string'
PUBLIC	??_C@_0BN@OEJIBP@glFramebufferTextureLayerARB@	; `string'
PUBLIC	??_C@_0BM@PJPLFKLO@glFramebufferTextureFaceARB@	; `string'
PUBLIC	??_C@_0BG@FJHAHFCB@glSpecializeShaderARB@	; `string'
PUBLIC	??_C@_0BB@IMPNPLIM@glUniform1i64ARB@		; `string'
PUBLIC	??_C@_0BB@CHCPMGP@glUniform2i64ARB@		; `string'
PUBLIC	??_C@_0BB@MONIPMPB@glUniform3i64ARB@		; `string'
PUBLIC	??_C@_0BB@MEBNPFOI@glUniform4i64ARB@		; `string'
PUBLIC	??_C@_0BC@GLEGCAOA@glUniform1i64vARB@		; `string'
PUBLIC	??_C@_0BC@FCMLBMCF@glUniform2i64vARB@		; `string'
PUBLIC	??_C@_0BC@EFLAAIGG@glUniform3i64vARB@		; `string'
PUBLIC	??_C@_0BC@CBNBGFKP@glUniform4i64vARB@		; `string'
PUBLIC	??_C@_0BC@PKDEDHPI@glUniform1ui64ARB@		; `string'
PUBLIC	??_C@_0BC@MDLJALDN@glUniform2ui64ARB@		; `string'
PUBLIC	??_C@_0BC@NEMCBPHO@glUniform3ui64ARB@		; `string'
PUBLIC	??_C@_0BC@LAKDHCLH@glUniform4ui64ARB@		; `string'
PUBLIC	??_C@_0BD@DMFIFMAJ@glUniform1ui64vARB@		; `string'
PUBLIC	??_C@_0BD@NHGPOHAK@glUniform2ui64vARB@		; `string'
PUBLIC	??_C@_0BD@DIKNIMDE@glUniform3ui64vARB@		; `string'
PUBLIC	??_C@_0BD@NKHBJHEN@glUniform4ui64vARB@		; `string'
PUBLIC	??_C@_0BE@CJMMNNHE@glGetUniformi64vARB@		; `string'
PUBLIC	??_C@_0BF@MLHIIBKJ@glGetUniformui64vARB@	; `string'
PUBLIC	??_C@_0BF@JCDBOHM@glGetnUniformi64vARB@		; `string'
PUBLIC	??_C@_0BG@MFIDOGFI@glGetnUniformui64vARB@	; `string'
PUBLIC	??_C@_0BI@BAHCFOJD@glProgramUniform1i64ARB@	; `string'
PUBLIC	??_C@_0BI@JOPNFJHA@glProgramUniform2i64ARB@	; `string'
PUBLIC	??_C@_0BI@FCFHFJOO@glProgramUniform3i64ARB@	; `string'
PUBLIC	??_C@_0BI@FIJCFAPH@glProgramUniform4i64ARB@	; `string'
PUBLIC	??_C@_0BJ@OGNCKCLA@glProgramUniform1i64vARB@	; `string'
PUBLIC	??_C@_0BJ@NPFPJOHF@glProgramUniform2i64vARB@	; `string'
PUBLIC	??_C@_0BJ@MICEIKDG@glProgramUniform3i64vARB@	; `string'
PUBLIC	??_C@_0BJ@KMEFOHPP@glProgramUniform4i64vARB@	; `string'
PUBLIC	??_C@_0BJ@HHKALFKI@glProgramUniform1ui64ARB@	; `string'
PUBLIC	??_C@_0BJ@EOCNIJGN@glProgramUniform2ui64ARB@	; `string'
PUBLIC	??_C@_0BJ@FJFGJNCO@glProgramUniform3ui64ARB@	; `string'
PUBLIC	??_C@_0BJ@DNDHPAOH@glProgramUniform4ui64ARB@	; `string'
PUBLIC	??_C@_0BK@FHLOJJHP@glProgramUniform1ui64vARB@	; `string'
PUBLIC	??_C@_0BK@LMIJCCHM@glProgramUniform2ui64vARB@	; `string'
PUBLIC	??_C@_0BK@FDELEJEC@glProgramUniform3ui64vARB@	; `string'
PUBLIC	??_C@_0BK@LBJHFCDL@glProgramUniform4ui64vARB@	; `string'
PUBLIC	??_C@_0N@PCFLODHG@glColorTable@			; `string'
PUBLIC	??_C@_0BI@DEIGFBNP@glColorTableParameterfv@	; `string'
PUBLIC	??_C@_0BI@DPNKBGOC@glColorTableParameteriv@	; `string'
PUBLIC	??_C@_0BB@KFNEDBPG@glCopyColorTable@		; `string'
PUBLIC	??_C@_0BA@JMNLAECM@glGetColorTable@		; `string'
PUBLIC	??_C@_0BL@NIJNHALB@glGetColorTableParameterfv@	; `string'
PUBLIC	??_C@_0BL@NDMBDHIM@glGetColorTableParameteriv@	; `string'
PUBLIC	??_C@_0BA@JAMHNPHF@glColorSubTable@		; `string'
PUBLIC	??_C@_0BE@LPPLPNIO@glCopyColorSubTable@		; `string'
PUBLIC	??_C@_0BG@CJBBBGMA@glConvolutionFilter1D@	; `string'
PUBLIC	??_C@_0BG@CLFHKIJJ@glConvolutionFilter2D@	; `string'
PUBLIC	??_C@_0BI@PLJALAOH@glConvolutionParameterf@	; `string'
PUBLIC	??_C@_0BJ@EHPADJBL@glConvolutionParameterfv@	; `string'
PUBLIC	??_C@_0BI@HMAIKMCI@glConvolutionParameteri@	; `string'
PUBLIC	??_C@_0BJ@EMKMHOCG@glConvolutionParameteriv@	; `string'
PUBLIC	??_C@_0BK@GEKJMFLK@glCopyConvolutionFilter1D@	; `string'
PUBLIC	??_C@_0BK@GGOPHLOD@glCopyConvolutionFilter2D@	; `string'
PUBLIC	??_C@_0BH@LPCMFECN@glGetConvolutionFilter@	; `string'
PUBLIC	??_C@_0BM@ONBGGOGF@glGetConvolutionParameterfv@	; `string'
PUBLIC	??_C@_0BM@OGEKCJFI@glGetConvolutionParameteriv@	; `string'
PUBLIC	??_C@_0BF@LPFBPGKD@glGetSeparableFilter@	; `string'
PUBLIC	??_C@_0BE@IEPFBBMM@glSeparableFilter2D@		; `string'
PUBLIC	??_C@_0P@KEFKNNKH@glGetHistogram@		; `string'
PUBLIC	??_C@_0BK@IFPDKCN@glGetHistogramParameterfv@	; `string'
PUBLIC	??_C@_0BK@DADHNBA@glGetHistogramParameteriv@	; `string'
PUBLIC	??_C@_0M@ILDMABIA@glGetMinmax@			; `string'
PUBLIC	??_C@_0BH@ONPKEHGK@glGetMinmaxParameterfv@	; `string'
PUBLIC	??_C@_0BH@OGKGAAFH@glGetMinmaxParameteriv@	; `string'
PUBLIC	??_C@_0M@EPLLGADA@glHistogram@			; `string'
PUBLIC	??_C@_08ONCKEMPI@glMinmax@			; `string'
PUBLIC	??_C@_0BB@OBMEDNFE@glResetHistogram@		; `string'
PUBLIC	??_C@_0O@MKNEKFLH@glResetMinmax@		; `string'
PUBLIC	??_C@_0CC@GFMDJHGF@glMultiDrawArraysIndirectCountA@ ; `string'
PUBLIC	??_C@_0CE@ONILMPPM@glMultiDrawElementsIndirectCoun@ ; `string'
PUBLIC	??_C@_0BJ@KDFJOAKK@glVertexAttribDivisorARB@	; `string'
PUBLIC	??_C@_0BK@HJCEONII@glCurrentPaletteMatrixARB@	; `string'
PUBLIC	??_C@_0BE@HCLPKGGK@glMatrixIndexubvARB@		; `string'
PUBLIC	??_C@_0BE@LKDFHHFE@glMatrixIndexusvARB@		; `string'
PUBLIC	??_C@_0BE@BIHIFGKJ@glMatrixIndexuivARB@		; `string'
PUBLIC	??_C@_0BI@LOCLKDCL@glMatrixIndexPointerARB@	; `string'
PUBLIC	??_C@_0BE@NMFNHPGD@glSampleCoverageARB@		; `string'
PUBLIC	??_C@_0BD@IKCKKKNH@glActiveTextureARB@		; `string'
PUBLIC	??_C@_0BJ@PBJNGLJH@glClientActiveTextureARB@	; `string'
PUBLIC	??_C@_0BF@JJDGKFDO@glMultiTexCoord1dARB@	; `string'
PUBLIC	??_C@_0BG@EODMDJBO@glMultiTexCoord1dvARB@	; `string'
PUBLIC	??_C@_0BF@ODPGPGFO@glMultiTexCoord1fARB@	; `string'
PUBLIC	??_C@_0BG@DPEJIBF@glMultiTexCoord1fvARB@	; `string'
PUBLIC	??_C@_0BF@GBKGGBIP@glMultiTexCoord1iARB@	; `string'
PUBLIC	??_C@_0BG@PCKCCKMA@glMultiTexCoord1ivARB@	; `string'
PUBLIC	??_C@_0BF@ELPGOOKM@glMultiTexCoord1sARB@	; `string'
PUBLIC	??_C@_0BG@FAOPALDN@glMultiTexCoord1svARB@	; `string'
PUBLIC	??_C@_0BF@BPKCNHJA@glMultiTexCoord2dARB@	; `string'
PUBLIC	??_C@_0BG@HPNECDID@glMultiTexCoord2dvARB@	; `string'
PUBLIC	??_C@_0BF@GFGCIEPA@glMultiTexCoord2fARB@	; `string'
PUBLIC	??_C@_0BG@DCBMICII@glMultiTexCoord2fvARB@	; `string'
PUBLIC	??_C@_0BF@OHDCBDCB@glMultiTexCoord2iARB@	; `string'
PUBLIC	??_C@_0BG@MDEKDAFN@glMultiTexCoord2ivARB@	; `string'
PUBLIC	??_C@_0BF@MNGCJMAC@glMultiTexCoord2sARB@	; `string'
PUBLIC	??_C@_0BG@GBAHBBKA@glMultiTexCoord2svARB@	; `string'
PUBLIC	??_C@_0BF@NEPOAEDF@glMultiTexCoord3dARB@	; `string'
PUBLIC	??_C@_0BG@NJKDCIDH@glMultiTexCoord3dvARB@	; `string'
PUBLIC	??_C@_0BF@KODOFHFF@glMultiTexCoord3fARB@	; `string'
PUBLIC	??_C@_0BG@JEGLIJDM@glMultiTexCoord3fvARB@	; `string'
PUBLIC	??_C@_0BF@CMGOMAIE@glMultiTexCoord3iARB@	; `string'
PUBLIC	??_C@_0BG@GFDNDLOJ@glMultiTexCoord3ivARB@	; `string'
PUBLIC	??_C@_0BF@GDOEPKH@glMultiTexCoord3sARB@		; `string'
PUBLIC	??_C@_0BG@MHHABKBE@glMultiTexCoord3svARB@	; `string'
PUBLIC	??_C@_0BF@MJPLDEIN@glMultiTexCoord4dARB@	; `string'
PUBLIC	??_C@_0BG@BMAEBGLJ@glMultiTexCoord4dvARB@	; `string'
PUBLIC	??_C@_0BF@LDDLGHON@glMultiTexCoord4fARB@	; `string'
PUBLIC	??_C@_0BG@FBMMLHLC@glMultiTexCoord4fvARB@	; `string'
PUBLIC	??_C@_0BF@DBGLPADM@glMultiTexCoord4iARB@	; `string'
PUBLIC	??_C@_0BG@KAJKAFGH@glMultiTexCoord4ivARB@	; `string'
PUBLIC	??_C@_0BF@BLDLHPBP@glMultiTexCoord4sARB@	; `string'
PUBLIC	??_C@_0BG@CNHCEJK@glMultiTexCoord4svARB@	; `string'
PUBLIC	??_C@_0BA@BJHFNMK@glGenQueriesARB@		; `string'
PUBLIC	??_C@_0BD@HAEDHPKB@glDeleteQueriesARB@		; `string'
PUBLIC	??_C@_0N@HKMIDCPF@glIsQueryARB@			; `string'
PUBLIC	??_C@_0BA@LPKBABEB@glBeginQueryARB@		; `string'
PUBLIC	??_C@_0O@EFJDHGFG@glEndQueryARB@		; `string'
PUBLIC	??_C@_0BA@DPEEILJC@glGetQueryivARB@		; `string'
PUBLIC	??_C@_0BG@EDFKPCGN@glGetQueryObjectivARB@	; `string'
PUBLIC	??_C@_0BH@OOHKBDPD@glGetQueryObjectuivARB@	; `string'
PUBLIC	??_C@_0BO@DGMHADHD@glMaxShaderCompilerThreadsARB@ ; `string'
PUBLIC	??_C@_0BF@DADCFKCJ@glPointParameterfARB@	; `string'
PUBLIC	??_C@_0BG@MNEGLICG@glPointParameterfvARB@	; `string'
PUBLIC	??_C@_0BM@HDJJPNDL@glGetGraphicsResetStatusARB@	; `string'
PUBLIC	??_C@_0BC@PIJGCEFC@glGetnTexImageARB@		; `string'
PUBLIC	??_C@_0BB@IPICMDNC@glReadnPixelsARB@		; `string'
PUBLIC	??_C@_0BM@IEIHGHHI@glGetnCompressedTexImageARB@	; `string'
PUBLIC	??_C@_0BD@IJFFLJJP@glGetnUniformfvARB@		; `string'
PUBLIC	??_C@_0BD@HIADALEK@glGetnUniformivARB@		; `string'
PUBLIC	??_C@_0BE@ELELPPGB@glGetnUniformuivARB@		; `string'
PUBLIC	??_C@_0BD@MEJNBIJE@glGetnUniformdvARB@		; `string'
PUBLIC	??_C@_0P@BCDNBFMA@glGetnMapdvARB@		; `string'
PUBLIC	??_C@_0P@FPPFLEML@glGetnMapfvARB@		; `string'
PUBLIC	??_C@_0P@KOKDAGBO@glGetnMapivARB@		; `string'
PUBLIC	??_C@_0BE@FCLKGMPL@glGetnPixelMapfvARB@		; `string'
PUBLIC	??_C@_0BF@BEPLFPF@glGetnPixelMapuivARB@		; `string'
PUBLIC	??_C@_0BF@KDACJEAI@glGetnPixelMapusvARB@	; `string'
PUBLIC	??_C@_0BI@ENGMEGBP@glGetnPolygonStippleARB@	; `string'
PUBLIC	??_C@_0BE@EKKDCCDE@glGetnColorTableARB@		; `string'
PUBLIC	??_C@_0BL@KGPCMOFG@glGetnConvolutionFilterARB@	; `string'
PUBLIC	??_C@_0BJ@LPLOODMD@glGetnSeparableFilterARB@	; `string'
PUBLIC	??_C@_0BD@MOBMBOGN@glGetnHistogramARB@		; `string'
PUBLIC	??_C@_0BA@PCCAKFCF@glGetnMinmaxARB@		; `string'
PUBLIC	??_C@_0CC@HNJFPNPL@glFramebufferSampleLocationsfvA@ ; `string'
PUBLIC	??_C@_0CH@JHLOPOBO@glNamedFramebufferSampleLocatio@ ; `string'
PUBLIC	??_C@_0BJ@DMCMMLHP@glEvaluateDepthValuesARB@	; `string'
PUBLIC	??_C@_0BG@KHPHHIHH@glMinSampleShadingARB@	; `string'
PUBLIC	??_C@_0BC@MJFNICLA@glDeleteObjectARB@		; `string'
PUBLIC	??_C@_0P@LFBJNCKO@glGetHandleARB@		; `string'
PUBLIC	??_C@_0BC@OPBLIDAI@glDetachObjectARB@		; `string'
PUBLIC	??_C@_0BI@FMNPOEGE@glCreateShaderObjectARB@	; `string'
PUBLIC	??_C@_0BC@MCCOFGJG@glShaderSourceARB@		; `string'
PUBLIC	??_C@_0BD@BEDGBOPM@glCompileShaderARB@		; `string'
PUBLIC	??_C@_0BJ@KGMBEPBI@glCreateProgramObjectARB@	; `string'
PUBLIC	??_C@_0BC@GINLBKLJ@glAttachObjectARB@		; `string'
PUBLIC	??_C@_0BB@HPIAOOAG@glLinkProgramARB@		; `string'
PUBLIC	??_C@_0BG@JEOFPDIM@glUseProgramObjectARB@	; `string'
PUBLIC	??_C@_0BF@BGDHGNPG@glValidateProgramARB@	; `string'
PUBLIC	??_C@_0P@KFNIAEEC@glUniform1fARB@		; `string'
PUBLIC	??_C@_0P@CDEMHGOM@glUniform2fARB@		; `string'
PUBLIC	??_C@_0P@OIBAKFEJ@glUniform3fARB@		; `string'
PUBLIC	??_C@_0P@PFBFJFPB@glUniform4fARB@		; `string'
PUBLIC	??_C@_0P@CHIIJDJD@glUniform1iARB@		; `string'
PUBLIC	??_C@_0P@KBBMOBDN@glUniform2iARB@		; `string'
PUBLIC	??_C@_0P@GKEADCJI@glUniform3iARB@		; `string'
PUBLIC	??_C@_0P@HHEFACCA@glUniform4iARB@		; `string'
PUBLIC	??_C@_0BA@BHLDOKKI@glUniform1fvARB@		; `string'
PUBLIC	??_C@_0BA@CGFLPADF@glUniform2fvARB@		; `string'
PUBLIC	??_C@_0BA@IACMPLIB@glUniform3fvARB@		; `string'
PUBLIC	??_C@_0BA@EFILMFAP@glUniform4fvARB@		; `string'
PUBLIC	??_C@_0BA@OGOFFIHN@glUniform1ivARB@		; `string'
PUBLIC	??_C@_0BA@NHANECOA@glUniform2ivARB@		; `string'
PUBLIC	??_C@_0BA@HBHKEJFE@glUniform3ivARB@		; `string'
PUBLIC	??_C@_0BA@LENNHHNK@glUniform4ivARB@		; `string'
PUBLIC	??_C@_0BG@KPIOAAJO@glUniformMatrix2fvARB@	; `string'
PUBLIC	??_C@_0BG@JPJALCK@glUniformMatrix3fvARB@	; `string'
PUBLIC	??_C@_0BG@MMFODFKE@glUniformMatrix4fvARB@	; `string'
PUBLIC	??_C@_0BK@HCFOBODO@glGetObjectParameterfvARB@	; `string'
PUBLIC	??_C@_0BK@IDAIKMOL@glGetObjectParameterivARB@	; `string'
PUBLIC	??_C@_0BA@FLIOBLOG@glGetInfoLogARB@		; `string'
PUBLIC	??_C@_0BI@KFAABOIL@glGetAttachedObjectsARB@	; `string'
PUBLIC	??_C@_0BI@CAFPPHDC@glGetUniformLocationARB@	; `string'
PUBLIC	??_C@_0BG@FNEOAGIK@glGetActiveUniformARB@	; `string'
PUBLIC	??_C@_0BC@KKIJAHAK@glGetUniformfvARB@		; `string'
PUBLIC	??_C@_0BC@FLNPLFNP@glGetUniformivARB@		; `string'
PUBLIC	??_C@_0BF@OBGOKFNE@glGetShaderSourceARB@	; `string'
PUBLIC	??_C@_0BB@EMHJCPKC@glNamedStringARB@		; `string'
PUBLIC	??_C@_0BH@NCMBPFNK@glDeleteNamedStringARB@	; `string'
PUBLIC	??_C@_0BK@EDOCLMLD@glCompileShaderIncludeARB@	; `string'
PUBLIC	??_C@_0BD@ICFECEJF@glIsNamedStringARB@		; `string'
PUBLIC	??_C@_0BE@NFONNCFF@glGetNamedStringARB@		; `string'
PUBLIC	??_C@_0BG@MPGNLJCM@glGetNamedStringivARB@	; `string'
PUBLIC	??_C@_0BK@JOBLPAPP@glBufferPageCommitmentARB@	; `string'
PUBLIC	??_C@_0BP@CPGBFGCL@glNamedBufferPageCommitmentEXT@ ; `string'
PUBLIC	??_C@_0BP@LBAMPBHN@glNamedBufferPageCommitmentARB@ ; `string'
PUBLIC	??_C@_0BH@MNMDGLPG@glTexPageCommitmentARB@	; `string'
PUBLIC	??_C@_0P@OBHFBJAP@glTexBufferARB@		; `string'
PUBLIC	??_C@_0BK@CIBKLOLF@glCompressedTexImage3DARB@	; `string'
PUBLIC	??_C@_0BK@ODEGGNBA@glCompressedTexImage2DARB@	; `string'
PUBLIC	??_C@_0BK@GFNCBPLO@glCompressedTexImage1DARB@	; `string'
PUBLIC	??_C@_0BN@HMALDDJO@glCompressedTexSubImage3DARB@ ; `string'
PUBLIC	??_C@_0BN@LHFHOADL@glCompressedTexSubImage2DARB@ ; `string'
PUBLIC	??_C@_0BN@DBMDJCJF@glCompressedTexSubImage1DARB@ ; `string'
PUBLIC	??_C@_0BL@CKKCLKDF@glGetCompressedTexImageARB@	; `string'
PUBLIC	??_C@_0BK@OGAPGGJI@glLoadTransposeMatrixfARB@	; `string'
PUBLIC	??_C@_0BK@JMMPDFPI@glLoadTransposeMatrixdARB@	; `string'
PUBLIC	??_C@_0BK@DCFJNGBA@glMultTransposeMatrixfARB@	; `string'
PUBLIC	??_C@_0BK@EIJJIFHA@glMultTransposeMatrixdARB@	; `string'
PUBLIC	??_C@_0O@IJNFJGFD@glWeightbvARB@		; `string'
PUBLIC	??_C@_0O@EBFPEHGN@glWeightsvARB@		; `string'
PUBLIC	??_C@_0O@ODBCGGJA@glWeightivARB@		; `string'
PUBLIC	??_C@_0O@BCEENEEF@glWeightfvARB@		; `string'
PUBLIC	??_C@_0O@FPIMHFEO@glWeightdvARB@		; `string'
PUBLIC	??_C@_0P@EHBBCFAF@glWeightubvARB@		; `string'
PUBLIC	??_C@_0P@IPJLPEDL@glWeightusvARB@		; `string'
PUBLIC	??_C@_0P@CNNGNFMG@glWeightuivARB@		; `string'
PUBLIC	??_C@_0BD@FICKLEOD@glWeightPointerARB@		; `string'
PUBLIC	??_C@_0BB@BINNIMAP@glVertexBlendARB@		; `string'
PUBLIC	??_C@_0BA@FDIFNALK@glBindBufferARB@		; `string'
PUBLIC	??_C@_0BD@FPFIIGCI@glDeleteBuffersARB@		; `string'
PUBLIC	??_C@_0BA@COIMKEED@glGenBuffersARB@		; `string'
PUBLIC	??_C@_0O@BCHKDNEE@glIsBufferARB@		; `string'
PUBLIC	??_C@_0BA@HLIGBCAN@glBufferDataARB@		; `string'
PUBLIC	??_C@_0BD@KFMFAAJP@glBufferSubDataARB@		; `string'
PUBLIC	??_C@_0BG@DNDEGANA@glGetBufferSubDataARB@	; `string'
PUBLIC	??_C@_0P@GLCCGPAH@glMapBufferARB@		; `string'
PUBLIC	??_C@_0BB@IODLHHEP@glUnmapBufferARB@		; `string'
PUBLIC	??_C@_0BK@NELBDMOH@glGetBufferParameterivARB@	; `string'
PUBLIC	??_C@_0BH@KNGCJBNB@glGetBufferPointervARB@	; `string'
PUBLIC	??_C@_0BE@KOFFOLEH@glVertexAttrib1dARB@		; `string'
PUBLIC	??_C@_0BF@GHNCJDMI@glVertexAttrib1dvARB@	; `string'
PUBLIC	??_C@_0BE@NEJFLICH@glVertexAttrib1fARB@		; `string'
PUBLIC	??_C@_0BF@CKBKDCMD@glVertexAttrib1fvARB@	; `string'
PUBLIC	??_C@_0BE@HMJFKANF@glVertexAttrib1sARB@		; `string'
PUBLIC	??_C@_0BF@HJABKBOL@glVertexAttrib1svARB@	; `string'
PUBLIC	??_C@_0BE@CIMBJJOJ@glVertexAttrib2dARB@		; `string'
PUBLIC	??_C@_0BF@FGDKIJFF@glVertexAttrib2dvARB@	; `string'
PUBLIC	??_C@_0BE@FCABMKIJ@glVertexAttrib2fARB@		; `string'
PUBLIC	??_C@_0BF@BLPCCIFO@glVertexAttrib2fvARB@	; `string'
PUBLIC	??_C@_0BE@PKABNCHL@glVertexAttrib2sARB@		; `string'
PUBLIC	??_C@_0BF@EIOJLLHG@glVertexAttrib2svARB@	; `string'
PUBLIC	??_C@_0BE@ODJNEKEM@glVertexAttrib3dARB@		; `string'
PUBLIC	??_C@_0BF@PAENICOB@glVertexAttrib3dvARB@	; `string'
PUBLIC	??_C@_0BE@JJFNBJCM@glVertexAttrib3fARB@		; `string'
PUBLIC	??_C@_0BF@LNIFCDOK@glVertexAttrib3fvARB@	; `string'
PUBLIC	??_C@_0BE@DBFNABNO@glVertexAttrib3sARB@		; `string'
PUBLIC	??_C@_0BF@OOJOLAMC@glVertexAttrib3svARB@	; `string'
PUBLIC	??_C@_0BG@KBHGKCDK@glVertexAttrib4NbvARB@	; `string'
PUBLIC	??_C@_0BG@MLLBFCPJ@glVertexAttrib4NivARB@	; `string'
PUBLIC	??_C@_0BG@GJPMHDAE@glVertexAttrib4NsvARB@	; `string'
PUBLIC	??_C@_0BG@CKMFKBFL@glVertexAttrib4NubARB@	; `string'
PUBLIC	??_C@_0BH@HDFHFPMN@glVertexAttrib4NubvARB@	; `string'
PUBLIC	??_C@_0BH@BJJAKPAO@glVertexAttrib4NuivARB@	; `string'
PUBLIC	??_C@_0BH@LLNNIOPD@glVertexAttrib4NusvARB@	; `string'
PUBLIC	??_C@_0BF@ODLDFPHC@glVertexAttrib4bvARB@	; `string'
PUBLIC	??_C@_0BE@POJIHKPE@glVertexAttrib4dARB@		; `string'
PUBLIC	??_C@_0BF@DFOKLMGP@glVertexAttrib4dvARB@	; `string'
PUBLIC	??_C@_0BE@IEFICJJE@glVertexAttrib4fARB@		; `string'
PUBLIC	??_C@_0BF@HICCBNGE@glVertexAttrib4fvARB@	; `string'
PUBLIC	??_C@_0BF@IJHEKPLB@glVertexAttrib4ivARB@	; `string'
PUBLIC	??_C@_0BE@CMFIDBGG@glVertexAttrib4sARB@		; `string'
PUBLIC	??_C@_0BF@CLDJIOEM@glVertexAttrib4svARB@	; `string'
PUBLIC	??_C@_0BG@LBCFDJC@glVertexAttrib4ubvARB@	; `string'
PUBLIC	??_C@_0BG@GBNFKDFB@glVertexAttrib4uivARB@	; `string'
PUBLIC	??_C@_0BG@MDJIICKM@glVertexAttrib4usvARB@	; `string'
PUBLIC	??_C@_0BJ@KNOILOPF@glVertexAttribPointerARB@	; `string'
PUBLIC	??_C@_0BN@FKABDPBF@glEnableVertexAttribArrayARB@ ; `string'
PUBLIC	??_C@_0BO@HGKLJN@glDisableVertexAttribArrayARB@	; `string'
PUBLIC	??_C@_0BH@OMNBLIA@glGetVertexAttribdvARB@	; `string'
PUBLIC	??_C@_0BH@EDAFLKIL@glGetVertexAttribfvARB@	; `string'
PUBLIC	??_C@_0BH@LCFDAIFO@glGetVertexAttribivARB@	; `string'
PUBLIC	??_C@_0BN@PFKJEGFB@glGetVertexAttribPointervARB@ ; `string'
PUBLIC	??_C@_0BI@HAONMJFP@glBindAttribLocationARB@	; `string'
PUBLIC	??_C@_0BF@NFLELGHN@glGetActiveAttribARB@	; `string'
PUBLIC	??_C@_0BH@BINIAJMB@glGetAttribLocationARB@	; `string'
PUBLIC	??_C@_0BG@NEEPLLAI@glDepthRangeArraydvNV@	; `string'
PUBLIC	??_C@_0BH@JEJOCJBI@glDepthRangeIndexeddNV@	; `string'
PUBLIC	??_C@_0BB@MJCJDLHC@glWindowPos2dARB@		; `string'
PUBLIC	??_C@_0BC@DBAGCLDL@glWindowPos2dvARB@		; `string'
PUBLIC	??_C@_0BB@LDOJGIBC@glWindowPos2fARB@		; `string'
PUBLIC	??_C@_0BC@HMMOIKDA@glWindowPos2fvARB@		; `string'
PUBLIC	??_C@_0BB@DBLJPPMD@glWindowPos2iARB@		; `string'
PUBLIC	??_C@_0BC@INJIDIOF@glWindowPos2ivARB@		; `string'
PUBLIC	??_C@_0BB@BLOJHAOA@glWindowPos2sARB@		; `string'
PUBLIC	??_C@_0BC@CPNFBJBI@glWindowPos2svARB@		; `string'
PUBLIC	??_C@_0BB@CHFOINH@glWindowPos3dARB@		; `string'
PUBLIC	??_C@_0BC@JHHBCAIP@glWindowPos3dvARB@		; `string'
PUBLIC	??_C@_0BB@HILFLLLH@glWindowPos3fARB@		; `string'
PUBLIC	??_C@_0BC@NKLJIBIE@glWindowPos3fvARB@		; `string'
PUBLIC	??_C@_0BB@PKOFCMGG@glWindowPos3iARB@		; `string'
PUBLIC	??_C@_0BC@CLOPDDFB@glWindowPos3ivARB@		; `string'
PUBLIC	??_C@_0BB@NALFKDEF@glWindowPos3sARB@		; `string'
PUBLIC	??_C@_0BC@IJKCBCKM@glWindowPos3svARB@		; `string'
PUBLIC	??_C@_0BB@NMDMNOBB@glDrawBuffersATI@		; `string'
PUBLIC	??_C@_0BE@OMPDOPIJ@glElementPointerATI@		; `string'
PUBLIC	??_C@_0BG@ECDHMIGH@glDrawElementArrayATI@	; `string'
PUBLIC	??_C@_0BL@DCHAKPN@glDrawRangeElementArrayATI@	; `string'
PUBLIC	??_C@_0BI@LPBILNEG@glTexBumpParameterivATI@	; `string'
PUBLIC	??_C@_0BI@EOEOAPJD@glTexBumpParameterfvATI@	; `string'
PUBLIC	??_C@_0BL@FDADJMCI@glGetTexBumpParameterivATI@	; `string'
PUBLIC	??_C@_0BL@KCFFCOPN@glGetTexBumpParameterfvATI@	; `string'
PUBLIC	??_C@_0BI@PIGGCPOC@glGenFragmentShadersATI@	; `string'
PUBLIC	??_C@_0BI@LCEAKPKE@glBindFragmentShaderATI@	; `string'
PUBLIC	??_C@_0BK@NIABONAG@glDeleteFragmentShaderATI@	; `string'
PUBLIC	??_C@_0BJ@PKEAPHAA@glBeginFragmentShaderATI@	; `string'
PUBLIC	??_C@_0BH@BPIBMODF@glEndFragmentShaderATI@	; `string'
PUBLIC	??_C@_0BC@PBOEACOB@glPassTexCoordATI@		; `string'
PUBLIC	??_C@_0P@GJNJDEAE@glSampleMapATI@		; `string'
PUBLIC	??_C@_0BG@LADBFNBJ@glColorFragmentOp1ATI@	; `string'
PUBLIC	??_C@_0BG@PHJBCHMJ@glColorFragmentOp2ATI@	; `string'
PUBLIC	??_C@_0BG@MKPBAOHJ@glColorFragmentOp3ATI@	; `string'
PUBLIC	??_C@_0BG@EIOHOAJ@glAlphaFragmentOp1ATI@	; `string'
PUBLIC	??_C@_0BG@EDCOAENJ@glAlphaFragmentOp2ATI@	; `string'
PUBLIC	??_C@_0BG@HOEOCNGJ@glAlphaFragmentOp3ATI@	; `string'
PUBLIC	??_C@_0BP@PBPBGPPP@glSetFragmentShaderConstantATI@ ; `string'
PUBLIC	??_C@_0BF@CEDAPCDI@glMapObjectBufferATI@	; `string'
PUBLIC	??_C@_0BH@BFJDKMCE@glUnmapObjectBufferATI@	; `string'
PUBLIC	??_C@_0BC@IOFHNNKO@glPNTrianglesiATI@		; `string'
PUBLIC	??_C@_0BC@MAHEKHP@glPNTrianglesfATI@		; `string'
PUBLIC	??_C@_0BH@GHDNCHPJ@glStencilOpSeparateATI@	; `string'
PUBLIC	??_C@_0BJ@JMKOAJAB@glStencilFuncSeparateATI@	; `string'
PUBLIC	??_C@_0BF@KMFMNPNM@glNewObjectBufferATI@	; `string'
PUBLIC	??_C@_0BE@LKLGGCMD@glIsObjectBufferATI@		; `string'
PUBLIC	??_C@_0BI@FACOMLAL@glUpdateObjectBufferATI@	; `string'
PUBLIC	??_C@_0BH@MINPGGO@glGetObjectBufferfvATI@	; `string'
PUBLIC	??_C@_0BH@PNNLEELL@glGetObjectBufferivATI@	; `string'
PUBLIC	??_C@_0BG@GHBOALJA@glFreeObjectBufferATI@	; `string'
PUBLIC	??_C@_0BB@BCAHFFG@glArrayObjectATI@		; `string'
PUBLIC	??_C@_0BG@HKGNANCL@glGetArrayObjectfvATI@	; `string'
PUBLIC	??_C@_0BG@ILDLLPPO@glGetArrayObjectivATI@	; `string'
PUBLIC	??_C@_0BI@CELFCDDH@glVariantArrayObjectATI@	; `string'
PUBLIC	??_C@_0BN@KLGFFMLK@glGetVariantArrayObjectfvATI@ ; `string'
PUBLIC	??_C@_0BN@FKDDOOGP@glGetVariantArrayObjectivATI@ ; `string'
PUBLIC	??_C@_0BN@BCMELJPB@glVertexAttribArrayObjectATI@ ; `string'
PUBLIC	??_C@_0CC@NOIGDAN@glGetVertexAttribArrayObjectfvA@ ; `string'
PUBLIC	??_C@_0CC@PMLONBNI@glGetVertexAttribArrayObjectivA@ ; `string'
PUBLIC	??_C@_0BE@JLNNECGM@glVertexStream1sATI@		; `string'
PUBLIC	??_C@_0BF@FBMPHGF@glVertexStream1svATI@		; `string'
PUBLIC	??_C@_0BE@LBINMNEP@glVertexStream1iATI@		; `string'
PUBLIC	??_C@_0BF@KHFBNGJI@glVertexStream1ivATI@	; `string'
PUBLIC	??_C@_0BE@DDNNFKJO@glVertexStream1fATI@		; `string'
PUBLIC	??_C@_0BF@FGAHGEEN@glVertexStream1fvATI@	; `string'
PUBLIC	??_C@_0BE@EJBNAJPO@glVertexStream1dATI@		; `string'
PUBLIC	??_C@_0BF@BLMPMFEG@glVertexStream1dvATI@	; `string'
PUBLIC	??_C@_0BE@BNEJDAMC@glVertexStream2sATI@		; `string'
PUBLIC	??_C@_0BF@DEPEONPI@glVertexStream2svATI@	; `string'
PUBLIC	??_C@_0BE@DHBJLPOB@glVertexStream2iATI@		; `string'
PUBLIC	??_C@_0BF@JGLJMMAF@glVertexStream2ivATI@	; `string'
PUBLIC	??_C@_0BE@LFEJCIDA@glVertexStream2fATI@		; `string'
PUBLIC	??_C@_0BF@GHOPHONA@glVertexStream2fvATI@	; `string'
PUBLIC	??_C@_0BE@MPIJHLFA@glVertexStream2dATI@		; `string'
PUBLIC	??_C@_0BF@CKCHNPNL@glVertexStream2dvATI@	; `string'
PUBLIC	??_C@_0BE@NGBFODGH@glVertexStream3sATI@		; `string'
PUBLIC	??_C@_0BF@JCIDOGEM@glVertexStream3svATI@	; `string'
PUBLIC	??_C@_0BE@PMEFGMEE@glVertexStream3iATI@		; `string'
PUBLIC	??_C@_0BF@DAMOMHLB@glVertexStream3ivATI@	; `string'
PUBLIC	??_C@_0BE@HOBFPLJF@glVertexStream3fATI@		; `string'
PUBLIC	??_C@_0BF@MBJIHFGE@glVertexStream3fvATI@	; `string'
PUBLIC	??_C@_0BE@ENFKIPF@glVertexStream3dATI@		; `string'
PUBLIC	??_C@_0BF@IMFANEGP@glVertexStream3dvATI@	; `string'
PUBLIC	??_C@_0BE@MLBANDNP@glVertexStream4sATI@		; `string'
PUBLIC	??_C@_0BF@FHCENIMC@glVertexStream4svATI@	; `string'
PUBLIC	??_C@_0BE@OBEAFMPM@glVertexStream4iATI@		; `string'
PUBLIC	??_C@_0BF@PFGJPJDP@glVertexStream4ivATI@	; `string'
PUBLIC	??_C@_0BE@GDBAMLCN@glVertexStream4fATI@		; `string'
PUBLIC	??_C@_0BF@EDPELOK@glVertexStream4fvATI@		; `string'
PUBLIC	??_C@_0BE@BJNAJIEN@glVertexStream4dATI@		; `string'
PUBLIC	??_C@_0BF@EJPHOKOB@glVertexStream4dvATI@	; `string'
PUBLIC	??_C@_0BE@NPEJLLGP@glNormalStream3bATI@		; `string'
PUBLIC	??_C@_0BF@JMFBDCCG@glNormalStream3bvATI@	; `string'
PUBLIC	??_C@_0BE@ICMJAFFN@glNormalStream3sATI@		; `string'
PUBLIC	??_C@_0BF@FENLODBI@glNormalStream3svATI@	; `string'
PUBLIC	??_C@_0BE@KIJJIKHO@glNormalStream3iATI@		; `string'
PUBLIC	??_C@_0BF@PGJGMCOF@glNormalStream3ivATI@	; `string'
PUBLIC	??_C@_0BE@CKMJBNKP@glNormalStream3fATI@		; `string'
PUBLIC	??_C@_0BF@HMAHADA@glNormalStream3fvATI@		; `string'
PUBLIC	??_C@_0BE@FAAJEOMP@glNormalStream3dATI@		; `string'
PUBLIC	??_C@_0BF@EKAINBDL@glNormalStream3dvATI@	; `string'
PUBLIC	??_C@_0BO@PFMGAKAA@glClientActiveVertexStreamATI@ ; `string'
PUBLIC	??_C@_0BF@BOFAANJF@glVertexBlendEnviATI@	; `string'
PUBLIC	??_C@_0BF@JMAAJKEE@glVertexBlendEnvfATI@	; `string'
PUBLIC	??_C@_0BO@LMIKEKMP@glEGLImageTargetTexStorageEXT@ ; `string'
PUBLIC	??_C@_0CC@NDEFBCB@glEGLImageTargetTextureStorageE@ ; `string'
PUBLIC	??_C@_0BD@HHOMEDEN@glUniformBufferEXT@		; `string'
PUBLIC	??_C@_0BK@JHNNOGKB@glGetUniformBufferSizeEXT@	; `string'
PUBLIC	??_C@_0BG@DFAIJAMP@glGetUniformOffsetEXT@	; `string'
PUBLIC	??_C@_0BA@EGDGJFLJ@glBlendColorEXT@		; `string'
PUBLIC	??_C@_0BL@INMJGNKI@glBlendEquationSeparateEXT@	; `string'
PUBLIC	??_C@_0BH@GFPLHCKF@glBlendFuncSeparateEXT@	; `string'
PUBLIC	??_C@_0BD@CFOJJHII@glBlendEquationEXT@		; `string'
PUBLIC	??_C@_0BD@EBCIGLLP@glColorSubTableEXT@		; `string'
PUBLIC	??_C@_0BH@HAGEMNAG@glCopyColorSubTableEXT@	; `string'
PUBLIC	??_C@_0BA@FALFDEFM@glLockArraysEXT@		; `string'
PUBLIC	??_C@_0BC@CIFHOEOG@glUnlockArraysEXT@		; `string'
PUBLIC	??_C@_0BJ@PHDFEMBL@glConvolutionFilter1DEXT@	; `string'
PUBLIC	??_C@_0BJ@HBKBDOLF@glConvolutionFilter2DEXT@	; `string'
PUBLIC	??_C@_0BL@KINFLEHF@glConvolutionParameterfEXT@	; `string'
PUBLIC	??_C@_0BM@LDPIHMCH@glConvolutionParameterfvEXT@	; `string'
PUBLIC	??_C@_0BL@CKIFCDKE@glConvolutionParameteriEXT@	; `string'
PUBLIC	??_C@_0BM@ECKOMOPC@glConvolutionParameterivEXT@	; `string'
PUBLIC	??_C@_0BN@MBPMAMLC@glCopyConvolutionFilter1DEXT@ ; `string'
PUBLIC	??_C@_0BN@EHGIHOBM@glCopyConvolutionFilter2DEXT@ ; `string'
PUBLIC	??_C@_0BK@MMCIGOOI@glGetConvolutionFilterEXT@	; `string'
PUBLIC	??_C@_0BP@FBAELFAJ@glGetConvolutionParameterfvEXT@ ; `string'
PUBLIC	??_C@_0BP@KAFCAHNM@glGetConvolutionParameterivEXT@ ; `string'
PUBLIC	??_C@_0BI@JFAGILII@glGetSeparableFilterEXT@	; `string'
PUBLIC	??_C@_0BH@BGAJAFHE@glSeparableFilter2DEXT@	; `string'
PUBLIC	??_C@_0P@KGHKOLHB@glTangent3bEXT@		; `string'
PUBLIC	??_C@_0BA@LEJLBHGB@glTangent3bvEXT@		; `string'
PUBLIC	??_C@_0P@CJDKBONB@glTangent3dEXT@		; `string'
PUBLIC	??_C@_0BA@GCMCPEHM@glTangent3dvEXT@		; `string'
PUBLIC	??_C@_0P@FDPKENLB@glTangent3fEXT@		; `string'
PUBLIC	??_C@_0BA@CPAKFFHH@glTangent3fvEXT@		; `string'
PUBLIC	??_C@_0P@NBKKNKGA@glTangent3iEXT@		; `string'
PUBLIC	??_C@_0BA@NOFMOHKC@glTangent3ivEXT@		; `string'
PUBLIC	??_C@_0P@PLPKFFED@glTangent3sEXT@		; `string'
PUBLIC	??_C@_0BA@HMBBMGFP@glTangent3svEXT@		; `string'
PUBLIC	??_C@_0BA@IFKALIMG@glBinormal3bEXT@		; `string'
PUBLIC	??_C@_0BB@OBLNOLBN@glBinormal3bvEXT@		; `string'
PUBLIC	??_C@_0BA@KOAENGG@glBinormal3dEXT@		; `string'
PUBLIC	??_C@_0BB@DHOEAIAA@glBinormal3dvEXT@		; `string'
PUBLIC	??_C@_0BA@HACABOAG@glBinormal3fEXT@		; `string'
PUBLIC	??_C@_0BB@HKCMKJAL@glBinormal3fvEXT@		; `string'
PUBLIC	??_C@_0BA@PCHAIJNH@glBinormal3iEXT@		; `string'
PUBLIC	??_C@_0BB@ILHKBLNO@glBinormal3ivEXT@		; `string'
PUBLIC	??_C@_0BA@NICAAGPE@glBinormal3sEXT@		; `string'
PUBLIC	??_C@_0BB@CJDHDKCD@glBinormal3svEXT@		; `string'
PUBLIC	??_C@_0BE@HLHMPCOG@glTangentPointerEXT@		; `string'
PUBLIC	??_C@_0BF@DOJEEBCJ@glBinormalPointerEXT@	; `string'
PUBLIC	??_C@_0BE@EDHFEHBO@glCopyTexImage1DEXT@		; `string'
PUBLIC	??_C@_0BE@MFOBDFLA@glCopyTexImage2DEXT@		; `string'
PUBLIC	??_C@_0BH@PGHCOMMF@glCopyTexSubImage1DEXT@	; `string'
PUBLIC	??_C@_0BH@HAOGJOGL@glCopyTexSubImage2DEXT@	; `string'
PUBLIC	??_C@_0BH@LLLKENMO@glCopyTexSubImage3DEXT@	; `string'
PUBLIC	??_C@_0BF@BCDJHKHD@glCullParameterdvEXT@	; `string'
PUBLIC	??_C@_0BF@FPPBNLHI@glCullParameterfvEXT@	; `string'
PUBLIC	??_C@_0BB@PGEJOJOO@glLabelObjectEXT@		; `string'
PUBLIC	??_C@_0BE@PBOEBGI@glGetObjectLabelEXT@		; `string'
PUBLIC	??_C@_0BH@LLCNDOOD@glInsertEventMarkerEXT@	; `string'
PUBLIC	??_C@_0BF@PLBBOBKG@glPushGroupMarkerEXT@	; `string'
PUBLIC	??_C@_0BE@PGLCBOPK@glPopGroupMarkerEXT@		; `string'
PUBLIC	??_C@_0BB@NPFLJMMA@glDepthBoundsEXT@		; `string'
PUBLIC	??_C@_0BB@CJBBPNGN@glMatrixLoadfEXT@		; `string'
PUBLIC	??_C@_0BB@FDNBKOAN@glMatrixLoaddEXT@		; `string'
PUBLIC	??_C@_0BB@LBBAKHJG@glMatrixMultfEXT@		; `string'
PUBLIC	??_C@_0BB@MLNAPEPG@glMatrixMultdEXT@		; `string'
PUBLIC	??_C@_0BI@IKIFDKFM@glMatrixLoadIdentityEXT@	; `string'
PUBLIC	??_C@_0BD@PMEJANFJ@glMatrixRotatefEXT@		; `string'
PUBLIC	??_C@_0BD@IGIJFODJ@glMatrixRotatedEXT@		; `string'
PUBLIC	??_C@_0BC@EFBPKCAC@glMatrixScalefEXT@		; `string'
PUBLIC	??_C@_0BC@DPNPPBGC@glMatrixScaledEXT@		; `string'
PUBLIC	??_C@_0BG@OMHAMLJN@glMatrixTranslatefEXT@	; `string'
PUBLIC	??_C@_0BG@JGLAJIPN@glMatrixTranslatedEXT@	; `string'
PUBLIC	??_C@_0BD@GNNFKBNH@glMatrixFrustumEXT@		; `string'
PUBLIC	??_C@_0BB@LIBGPEDB@glMatrixOrthoEXT@		; `string'
PUBLIC	??_C@_0P@BOEIELPJ@glMatrixPopEXT@		; `string'
PUBLIC	??_C@_0BA@MNKKLGBO@glMatrixPushEXT@		; `string'
PUBLIC	??_C@_0BJ@CALICIHF@glClientAttribDefaultEXT@	; `string'
PUBLIC	??_C@_0BN@NKADHPKI@glPushClientAttribDefaultEXT@ ; `string'
PUBLIC	??_C@_0BH@NGFENBKL@glTextureParameterfEXT@	; `string'
PUBLIC	??_C@_0BI@NCONACJB@glTextureParameterfvEXT@	; `string'
PUBLIC	??_C@_0BH@FEAEEGHK@glTextureParameteriEXT@	; `string'
PUBLIC	??_C@_0BI@CDLLLAEE@glTextureParameterivEXT@	; `string'
PUBLIC	??_C@_0BE@DKGBPGEG@glTextureImage1DEXT@		; `string'
PUBLIC	??_C@_0BE@LMPFIEOI@glTextureImage2DEXT@		; `string'
PUBLIC	??_C@_0BH@HDNJNIDA@glTextureSubImage1DEXT@	; `string'
PUBLIC	??_C@_0BH@PFENKKJO@glTextureSubImage2DEXT@	; `string'
PUBLIC	??_C@_0BI@IIONLBMI@glCopyTextureImage1DEXT@	; `string'
PUBLIC	??_C@_0BI@OHJMDGG@glCopyTextureImage2DEXT@	; `string'
PUBLIC	??_C@_0BL@MDEEPIMB@glCopyTextureSubImage1DEXT@	; `string'
PUBLIC	??_C@_0BL@EFNAIKGP@glCopyTextureSubImage2DEXT@	; `string'
PUBLIC	??_C@_0BF@PIPAOHHM@glGetTextureImageEXT@	; `string'
PUBLIC	??_C@_0BL@DOPGCDPP@glGetTextureParameterfvEXT@	; `string'
PUBLIC	??_C@_0BL@MPKAJBCK@glGetTextureParameterivEXT@	; `string'
PUBLIC	??_C@_0CA@PHCGGOKJ@glGetTextureLevelParameterfvEXT@ ; `string'
PUBLIC	??_C@_0CA@GHANMHM@glGetTextureLevelParameterivEXT@ ; `string'
PUBLIC	??_C@_0BE@HHKJFHEN@glTextureImage3DEXT@		; `string'
PUBLIC	??_C@_0BH@DOBBHJDL@glTextureSubImage3DEXT@	; `string'
PUBLIC	??_C@_0BL@IOIMFJMK@glCopyTextureSubImage3DEXT@	; `string'
PUBLIC	??_C@_0BG@MOGNCKMO@glBindMultiTextureEXT@	; `string'
PUBLIC	??_C@_0BK@GGBKGBFO@glMultiTexCoordPointerEXT@	; `string'
PUBLIC	??_C@_0BC@NGBAJLNK@glMultiTexEnvfEXT@		; `string'
PUBLIC	??_C@_0BD@PFOPAHHB@glMultiTexEnvfvEXT@		; `string'
PUBLIC	??_C@_0BC@FEEAAMAL@glMultiTexEnviEXT@		; `string'
PUBLIC	??_C@_0BD@ELJLFKE@glMultiTexEnvivEXT@		; `string'
PUBLIC	??_C@_0BC@DHHBLML@glMultiTexGendEXT@		; `string'
PUBLIC	??_C@_0BD@JPIKEAAD@glMultiTexGendvEXT@		; `string'
PUBLIC	??_C@_0BC@HJLHEIKL@glMultiTexGenfEXT@		; `string'
PUBLIC	??_C@_0BD@NCECOBAI@glMultiTexGenfvEXT@		; `string'
PUBLIC	??_C@_0BC@PLOHNPHK@glMultiTexGeniEXT@		; `string'
PUBLIC	??_C@_0BD@CDBEFDNN@glMultiTexGenivEXT@		; `string'
PUBLIC	??_C@_0BG@GNBOGHDO@glGetMultiTexEnvfvEXT@	; `string'
PUBLIC	??_C@_0BG@JMEINFOL@glGetMultiTexEnvivEXT@	; `string'
PUBLIC	??_C@_0BG@HHLCAEM@glGetMultiTexGendvEXT@	; `string'
PUBLIC	??_C@_0BG@EKLDIBEH@glGetMultiTexGenfvEXT@	; `string'
PUBLIC	??_C@_0BG@LLOFDDJC@glGetMultiTexGenivEXT@	; `string'
PUBLIC	??_C@_0BI@ECEEANIJ@glMultiTexParameteriEXT@	; `string'
PUBLIC	??_C@_0BJ@HBJFDKJ@glMultiTexParameterivEXT@	; `string'
PUBLIC	??_C@_0BI@MABEJKFI@glMultiTexParameterfEXT@	; `string'
PUBLIC	??_C@_0BJ@PGEPOBHM@glMultiTexParameterfvEXT@	; `string'
PUBLIC	??_C@_0BF@HKCOEKLM@glMultiTexImage1DEXT@	; `string'
PUBLIC	??_C@_0BF@PMLKDIBC@glMultiTexImage2DEXT@	; `string'
PUBLIC	??_C@_0BI@GFJJJDMD@glMultiTexSubImage1DEXT@	; `string'
PUBLIC	??_C@_0BI@ODANOBGN@glMultiTexSubImage2DEXT@	; `string'
PUBLIC	??_C@_0BJ@HAJMGINM@glCopyMultiTexImage1DEXT@	; `string'
PUBLIC	??_C@_0BJ@PGAIBKHC@glCopyMultiTexImage2DEXT@	; `string'
PUBLIC	??_C@_0BM@KPJDMMGJ@glCopyMultiTexSubImage1DEXT@	; `string'
PUBLIC	??_C@_0BM@CJAHLOMH@glCopyMultiTexSubImage2DEXT@	; `string'
PUBLIC	??_C@_0BG@ELMAAPHO@glGetMultiTexImageEXT@	; `string'
PUBLIC	??_C@_0BM@FMKJLGAC@glGetMultiTexParameterfvEXT@	; `string'
PUBLIC	??_C@_0BM@KNPPAENH@glGetMultiTexParameterivEXT@	; `string'
PUBLIC	??_C@_0CB@PNDHILHL@glGetMultiTexLevelParameterfvEX@ ; `string'
PUBLIC	??_C@_0CB@MGBDJKO@glGetMultiTexLevelParameterivEX@ ; `string'
PUBLIC	??_C@_0BF@DHOGOLLH@glMultiTexImage3DEXT@	; `string'
PUBLIC	??_C@_0BI@CIFBDCMI@glMultiTexSubImage3DEXT@	; `string'
PUBLIC	??_C@_0BM@OCFLGNGC@glCopyMultiTexSubImage3DEXT@	; `string'
PUBLIC	??_C@_0BO@FCOHKAHD@glEnableClientStateIndexedEXT@ ; `string'
PUBLIC	??_C@_0BP@LBNONMPF@glDisableClientStateIndexedEXT@ ; `string'
PUBLIC	??_C@_0BG@EMFACKNP@glGetFloatIndexedvEXT@	; `string'
PUBLIC	??_C@_0BH@JPALJFOC@glGetDoubleIndexedvEXT@	; `string'
PUBLIC	??_C@_0BI@FKCCJJJM@glGetPointerIndexedvEXT@	; `string'
PUBLIC	??_C@_0BD@PNIDDKHK@glEnableIndexedEXT@		; `string'
PUBLIC	??_C@_0BE@FCCIJFGK@glDisableIndexedEXT@		; `string'
PUBLIC	??_C@_0BG@LNLGELCG@glIsEnabledIndexedEXT@	; `string'
PUBLIC	??_C@_0BI@HCFKGNEO@glGetIntegerIndexedvEXT@	; `string'
PUBLIC	??_C@_0BI@NHMIOCJB@glGetBooleanIndexedvEXT@	; `string'
PUBLIC	??_C@_0BO@CMBPGJCP@glCompressedTextureImage3DEXT@ ; `string'
PUBLIC	??_C@_0BO@OHEDLKIK@glCompressedTextureImage2DEXT@ ; `string'
PUBLIC	??_C@_0BO@GBNHMICE@glCompressedTextureImage1DEXT@ ; `string'
PUBLIC	??_C@_0CB@BGIFGLOK@glCompressedTextureSubImage3DEX@ ; `string'
PUBLIC	??_C@_0CB@NNNJLIEP@glCompressedTextureSubImage2DEX@ ; `string'
PUBLIC	??_C@_0CB@FLENMKOB@glCompressedTextureSubImage1DEX@ ; `string'
PUBLIC	??_C@_0BP@HEIAJKMC@glGetCompressedTextureImageEXT@ ; `string'
PUBLIC	??_C@_0BP@JEABFNPN@glCompressedMultiTexImage3DEXT@ ; `string'
PUBLIC	??_C@_0BP@FPFNIOFI@glCompressedMultiTexImage2DEXT@ ; `string'
PUBLIC	??_C@_0BP@NJMJPMPG@glCompressedMultiTexImage1DEXT@ ; `string'
PUBLIC	??_C@_0CC@NJKNEEJI@glCompressedMultiTexSubImage3DE@ ; `string'
PUBLIC	??_C@_0CC@BCPBJHDN@glCompressedMultiTexSubImage2DE@ ; `string'
PUBLIC	??_C@_0CC@JEGFOFJD@glCompressedMultiTexSubImage1DE@ ; `string'
PUBLIC	??_C@_0CA@GHJFOBII@glGetCompressedMultiTexImageEXT@ ; `string'
PUBLIC	??_C@_0BK@DMNAAGDD@glMatrixLoadTransposefEXT@	; `string'
PUBLIC	??_C@_0BK@EGBAFFFD@glMatrixLoadTransposedEXT@	; `string'
PUBLIC	??_C@_0BK@LLNHCLOA@glMatrixMultTransposefEXT@	; `string'
PUBLIC	??_C@_0BK@MBBHHIIA@glMatrixMultTransposedEXT@	; `string'
PUBLIC	??_C@_0BF@EGDGIBPF@glNamedBufferDataEXT@	; `string'
PUBLIC	??_C@_0BI@KLAGIKJO@glNamedBufferSubDataEXT@	; `string'
PUBLIC	??_C@_0BE@ONFFICFI@glMapNamedBufferEXT@		; `string'
PUBLIC	??_C@_0BG@CAIFHBPG@glUnmapNamedBufferEXT@	; `string'
PUBLIC	??_C@_0BP@HGDHPKNF@glGetNamedBufferParameterivEXT@ ; `string'
PUBLIC	??_C@_0BM@IKINKGOC@glGetNamedBufferPointervEXT@	; `string'
PUBLIC	??_C@_0BL@EHBNKLPA@glGetNamedBufferSubDataEXT@	; `string'
PUBLIC	??_C@_0BG@ELNBLDME@glProgramUniform1fEXT@	; `string'
PUBLIC	??_C@_0BG@MNEFMBGK@glProgramUniform2fEXT@	; `string'
PUBLIC	??_C@_0BG@GBJBCMP@glProgramUniform3fEXT@	; `string'
PUBLIC	??_C@_0BG@BLBMCCHH@glProgramUniform4fEXT@	; `string'
PUBLIC	??_C@_0BG@MJIBCEBF@glProgramUniform1iEXT@	; `string'
PUBLIC	??_C@_0BG@EPBFFGLL@glProgramUniform2iEXT@	; `string'
PUBLIC	??_C@_0BG@IEEJIFBO@glProgramUniform3iEXT@	; `string'
PUBLIC	??_C@_0BG@JJEMLFKG@glProgramUniform4iEXT@	; `string'
PUBLIC	??_C@_0BH@PHNPLDK@glProgramUniform1fvEXT@	; `string'
PUBLIC	??_C@_0BH@DOJFOBKH@glProgramUniform2fvEXT@	; `string'
PUBLIC	??_C@_0BH@JIOCOKBD@glProgramUniform3fvEXT@	; `string'
PUBLIC	??_C@_0BH@FNEFNEJN@glProgramUniform4fvEXT@	; `string'
PUBLIC	??_C@_0BH@POCLEJOP@glProgramUniform1ivEXT@	; `string'
PUBLIC	??_C@_0BH@MPMDFDHC@glProgramUniform2ivEXT@	; `string'
PUBLIC	??_C@_0BH@GJLEFIMG@glProgramUniform3ivEXT@	; `string'
PUBLIC	??_C@_0BH@KMBDGGEI@glProgramUniform4ivEXT@	; `string'
PUBLIC	??_C@_0BN@JOHLNHAH@glProgramUniformMatrix2fvEXT@ ; `string'
PUBLIC	??_C@_0BN@DIAMNMLD@glProgramUniformMatrix3fvEXT@ ; `string'
PUBLIC	??_C@_0BN@PNKLOCDN@glProgramUniformMatrix4fvEXT@ ; `string'
PUBLIC	??_C@_0BP@IDOAAHFD@glProgramUniformMatrix2x3fvEXT@ ; `string'
PUBLIC	??_C@_0BP@DCOMBIKE@glProgramUniformMatrix3x2fvEXT@ ; `string'
PUBLIC	??_C@_0BP@EGEHDJNN@glProgramUniformMatrix2x4fvEXT@ ; `string'
PUBLIC	??_C@_0BP@FGINHFGN@glProgramUniformMatrix4x2fvEXT@ ; `string'
PUBLIC	??_C@_0BP@FBDMCNJO@glProgramUniformMatrix3x4fvEXT@ ; `string'
PUBLIC	??_C@_0BP@PAPKHONJ@glProgramUniformMatrix4x3fvEXT@ ; `string'
PUBLIC	??_C@_0BD@OEEPDOGM@glTextureBufferEXT@		; `string'
PUBLIC	??_C@_0BE@HEPIKCIG@glMultiTexBufferEXT@		; `string'
PUBLIC	??_C@_0BJ@NPJAJLML@glTextureParameterIivEXT@	; `string'
PUBLIC	??_C@_0BK@MNKIOBHH@glTextureParameterIuivEXT@	; `string'
PUBLIC	??_C@_0BM@HFHGMMLF@glGetTextureParameterIivEXT@	; `string'
PUBLIC	??_C@_0BN@HKLPFLBL@glGetTextureParameterIuivEXT@ ; `string'
PUBLIC	??_C@_0BK@BAPKHON@glMultiTexParameterIivEXT@	; `string'
PUBLIC	??_C@_0BL@BPHLPLLG@glMultiTexParameterIuivEXT@	; `string'
PUBLIC	??_C@_0BN@LGBIBNIB@glGetMultiTexParameterIivEXT@ ; `string'
PUBLIC	??_C@_0BO@FLMIMBHP@glGetMultiTexParameterIuivEXT@ ; `string'
PUBLIC	??_C@_0BH@GIIPILFM@glProgramUniform1uiEXT@	; `string'
PUBLIC	??_C@_0BH@FJGHJBMB@glProgramUniform2uiEXT@	; `string'
PUBLIC	??_C@_0BH@PPBAJKHF@glProgramUniform3uiEXT@	; `string'
PUBLIC	??_C@_0BH@DKLHKEPL@glProgramUniform4uiEXT@	; `string'
PUBLIC	??_C@_0BI@PBIKLOHE@glProgramUniform1uivEXT@	; `string'
PUBLIC	??_C@_0BI@HPAFLJJH@glProgramUniform2uivEXT@	; `string'
PUBLIC	??_C@_0BI@LDKPLJAJ@glProgramUniform3uivEXT@	; `string'
PUBLIC	??_C@_0BI@LJGKLABA@glProgramUniform4uivEXT@	; `string'
PUBLIC	??_C@_0CE@OLAJGKOH@glNamedProgramLocalParameters4f@ ; `string'
PUBLIC	??_C@_0CD@LPMMAIIF@glNamedProgramLocalParameterI4i@ ; `string'
PUBLIC	??_C@_0CE@OFCJHIH@glNamedProgramLocalParameterI4i@ ; `string'
PUBLIC	??_C@_0CF@NMCFJOAA@glNamedProgramLocalParametersI4@ ; `string'
PUBLIC	??_C@_0CE@JIPGFFDE@glNamedProgramLocalParameterI4u@ ; `string'
PUBLIC	??_C@_0CF@LCBDCOMA@glNamedProgramLocalParameterI4u@ ; `string'
PUBLIC	??_C@_0CG@MBBNEPEK@glNamedProgramLocalParametersI4@ ; `string'
PUBLIC	??_C@_0CG@LFLLCKKN@glGetNamedProgramLocalParameter@ ; `string'
PUBLIC	??_C@_0CH@GJBDAOKL@glGetNamedProgramLocalParameter@ ; `string'
PUBLIC	??_C@_0BI@DDPEAKOL@glEnableClientStateiEXT@	; `string'
PUBLIC	??_C@_0BJ@LKKOIGJN@glDisableClientStateiEXT@	; `string'
PUBLIC	??_C@_0BB@JLGFFCMK@glGetFloati_vEXT@		; `string'
PUBLIC	??_C@_0BC@PDBOBDJL@glGetDoublei_vEXT@		; `string'
PUBLIC	??_C@_0BD@HGLPNBMF@glGetPointeri_vEXT@		; `string'
PUBLIC	??_C@_0BI@HGNIPKHA@glNamedProgramStringEXT@	; `string'
PUBLIC	??_C@_0CC@KNGPLIKD@glNamedProgramLocalParameter4dE@ ; `string'
PUBLIC	??_C@_0CD@NMENLBMK@glNamedProgramLocalParameter4dv@ ; `string'
PUBLIC	??_C@_0CC@NHKPOLMD@glNamedProgramLocalParameter4fE@ ; `string'
PUBLIC	??_C@_0CD@JBIFBAMB@glNamedProgramLocalParameter4fv@ ; `string'
PUBLIC	??_C@_0CF@ELEDHIL@glGetNamedProgramLocalParameter@ ; `string'
PUBLIC	??_C@_0CF@EJHMJGIA@glGetNamedProgramLocalParameter@ ; `string'
PUBLIC	??_C@_0BH@IALGOIPC@glGetNamedProgramivEXT@	; `string'
PUBLIC	??_C@_0BL@JKMDNLBO@glGetNamedProgramStringEXT@	; `string'
PUBLIC	??_C@_0BO@KHENOFMG@glNamedRenderbufferStorageEXT@ ; `string'
PUBLIC	??_C@_0CF@MMPFHIHI@glGetNamedRenderbufferParameter@ ; `string'
PUBLIC	??_C@_0CJ@DMIMHEMF@glNamedRenderbufferStorageMulti@ ; `string'
PUBLIC	??_C@_0DB@DNHIJAC@glNamedRenderbufferStorageMulti@ ; `string'
PUBLIC	??_C@_0CB@BPNGHABA@glCheckNamedFramebufferStatusEX@ ; `string'
PUBLIC	??_C@_0BP@BMGCDMAJ@glNamedFramebufferTexture1DEXT@ ; `string'
PUBLIC	??_C@_0BP@JKPGEOKH@glNamedFramebufferTexture2DEXT@ ; `string'
PUBLIC	??_C@_0BP@FBKKJNAC@glNamedFramebufferTexture3DEXT@ ; `string'
PUBLIC	??_C@_0CC@GIBDJJNI@glNamedFramebufferRenderbufferE@ ; `string'
PUBLIC	??_C@_0CO@OKPMKDDI@glGetNamedFramebufferAttachment@ ; `string'
PUBLIC	??_C@_0BL@FGEAAKMK@glGenerateTextureMipmapEXT@	; `string'
PUBLIC	??_C@_0BM@DMNPALLC@glGenerateMultiTexMipmapEXT@	; `string'
PUBLIC	??_C@_0BL@PBDAHKDG@glFramebufferDrawBufferEXT@	; `string'
PUBLIC	??_C@_0BM@JEJEAGLD@glFramebufferDrawBuffersEXT@	; `string'
PUBLIC	??_C@_0BL@JBCAAPKE@glFramebufferReadBufferEXT@	; `string'
PUBLIC	??_C@_0BP@HFLGOGIL@glGetFramebufferParameterivEXT@ ; `string'
PUBLIC	??_C@_0BM@KMCAOBPL@glNamedCopyBufferSubDataEXT@	; `string'
PUBLIC	??_C@_0BN@EBOLPEFF@glNamedFramebufferTextureEXT@ ; `string'
PUBLIC	??_C@_0CC@OGPAEEAO@glNamedFramebufferTextureLayerE@ ; `string'
PUBLIC	??_C@_0CB@BJCEBIKA@glNamedFramebufferTextureFaceEX@ ; `string'
PUBLIC	??_C@_0BJ@MHNDMBOO@glTextureRenderbufferEXT@	; `string'
PUBLIC	??_C@_0BK@BJEMPNMI@glMultiTexRenderbufferEXT@	; `string'
PUBLIC	??_C@_0BN@DMLCFCEO@glVertexArrayVertexOffsetEXT@ ; `string'
PUBLIC	??_C@_0BM@CFIMGCMJ@glVertexArrayColorOffsetEXT@	; `string'
PUBLIC	??_C@_0BP@HFLJMDEG@glVertexArrayEdgeFlagOffsetEXT@ ; `string'
PUBLIC	??_C@_0BM@INBHJNCB@glVertexArrayIndexOffsetEXT@	; `string'
PUBLIC	??_C@_0BN@OADCKOIN@glVertexArrayNormalOffsetEXT@ ; `string'
PUBLIC	??_C@_0BP@MNIAODGP@glVertexArrayTexCoordOffsetEXT@ ; `string'
PUBLIC	??_C@_0CE@JHDLNPEP@glVertexArrayMultiTexCoordOffse@ ; `string'
PUBLIC	??_C@_0BP@LMBGFCAJ@glVertexArrayFogCoordOffsetEXT@ ; `string'
PUBLIC	??_C@_0CF@GIDHOCLP@glVertexArraySecondaryColorOffs@ ; `string'
PUBLIC	??_C@_0CD@JHIOFFOE@glVertexArrayVertexAttribOffset@ ; `string'
PUBLIC	??_C@_0CE@ONCNHCKI@glVertexArrayVertexAttribIOffse@ ; `string'
PUBLIC	??_C@_0BH@JAHPJAF@glEnableVertexArrayEXT@	; `string'
PUBLIC	??_C@_0BI@IAKAGPJM@glDisableVertexArrayEXT@	; `string'
PUBLIC	??_C@_0BN@LEPLOHNI@glEnableVertexArrayAttribEXT@ ; `string'
PUBLIC	??_C@_0BO@OOIMHDFA@glDisableVertexArrayAttribEXT@ ; `string'
PUBLIC	??_C@_0BM@FJKMMCPD@glGetVertexArrayIntegervEXT@	; `string'
PUBLIC	??_C@_0BM@KLKCGIBD@glGetVertexArrayPointervEXT@	; `string'
PUBLIC	??_C@_0BO@FDAMMDFD@glGetVertexArrayIntegeri_vEXT@ ; `string'
PUBLIC	??_C@_0BO@DLHBIIEH@glGetVertexArrayPointeri_vEXT@ ; `string'
PUBLIC	??_C@_0BJ@MEDFIODK@glMapNamedBufferRangeEXT@	; `string'
PUBLIC	??_C@_0CB@EIJKJEMO@glFlushMappedNamedBufferRangeEX@ ; `string'
PUBLIC	??_C@_0BI@IGOLIKPI@glNamedBufferStorageEXT@	; `string'
PUBLIC	??_C@_0BK@JIPEFNFB@glClearNamedBufferDataEXT@	; `string'
PUBLIC	??_C@_0BN@CNJAFGHD@glClearNamedBufferSubDataEXT@ ; `string'
PUBLIC	??_C@_0CA@KNLMGFIL@glNamedFramebufferParameteriEXT@ ; `string'
PUBLIC	??_C@_0CE@EMNKOBNO@glGetNamedFramebufferParameteri@ ; `string'
PUBLIC	??_C@_0BG@DBBBOAKE@glProgramUniform1dEXT@	; `string'
PUBLIC	??_C@_0BG@LHIFJCAK@glProgramUniform2dEXT@	; `string'
PUBLIC	??_C@_0BG@HMNJEBKP@glProgramUniform3dEXT@	; `string'
PUBLIC	??_C@_0BG@GBNMHBBH@glProgramUniform4dEXT@	; `string'
PUBLIC	??_C@_0BH@ECLFFKDB@glProgramUniform1dvEXT@	; `string'
PUBLIC	??_C@_0BH@HDFNEAKM@glProgramUniform2dvEXT@	; `string'
PUBLIC	??_C@_0BH@NFCKELBI@glProgramUniform3dvEXT@	; `string'
PUBLIC	??_C@_0BH@BAINHFJG@glProgramUniform4dvEXT@	; `string'
PUBLIC	??_C@_0BN@NDLDHGAM@glProgramUniformMatrix2dvEXT@ ; `string'
PUBLIC	??_C@_0BN@HFMEHNLI@glProgramUniformMatrix3dvEXT@ ; `string'
PUBLIC	??_C@_0BN@LAGDEDDG@glProgramUniformMatrix4dvEXT@ ; `string'
PUBLIC	??_C@_0BP@MOCIKGFI@glProgramUniformMatrix2x3dvEXT@ ; `string'
PUBLIC	??_C@_0BP@LIPJING@glProgramUniformMatrix2x4dvEXT@ ; `string'
PUBLIC	??_C@_0BP@HPCELJKP@glProgramUniformMatrix3x2dvEXT@ ; `string'
PUBLIC	??_C@_0BP@BMPEIMJF@glProgramUniformMatrix3x4dvEXT@ ; `string'
PUBLIC	??_C@_0BP@BLEFNEGG@glProgramUniformMatrix4x2dvEXT@ ; `string'
PUBLIC	??_C@_0BP@LNDCNPNC@glProgramUniformMatrix4x3dvEXT@ ; `string'
PUBLIC	??_C@_0BI@HEDPMLB@glTextureBufferRangeEXT@	; `string'
PUBLIC	??_C@_0BG@LIPEIIGD@glTextureStorage1DEXT@	; `string'
PUBLIC	??_C@_0BG@DOGAPKMN@glTextureStorage2DEXT@	; `string'
PUBLIC	??_C@_0BG@PFDMCJGI@glTextureStorage3DEXT@	; `string'
PUBLIC	??_C@_0CB@IKHJODMK@glTextureStorage2DMultisampleEX@ ; `string'
PUBLIC	??_C@_0CB@NNPCIIJ@glTextureStorage3DMultisampleEX@ ; `string'
PUBLIC	??_C@_0CB@BDCLHICB@glVertexArrayBindVertexBufferEX@ ; `string'
PUBLIC	??_C@_0CD@JDLJFCCB@glVertexArrayVertexAttribFormat@ ; `string'
PUBLIC	??_C@_0CE@OJBKHFGN@glVertexArrayVertexAttribIForma@ ; `string'
PUBLIC	??_C@_0CE@JIENNJCP@glVertexArrayVertexAttribLForma@ ; `string'
PUBLIC	??_C@_0CE@PLJLPNAP@glVertexArrayVertexAttribBindin@ ; `string'
PUBLIC	??_C@_0CF@LAAOPNKA@glVertexArrayVertexBindingDivis@ ; `string'
PUBLIC	??_C@_0CE@JMHKNOOK@glVertexArrayVertexAttribLOffse@ ; `string'
PUBLIC	??_C@_0BL@KBMIFFAF@glTexturePageCommitmentEXT@	; `string'
PUBLIC	??_C@_0CE@DPMBMKCD@glVertexArrayVertexAttribDiviso@ ; `string'
PUBLIC	??_C@_0BG@PJOFEKKJ@glColorMaskIndexedEXT@	; `string'
PUBLIC	??_C@_0BJ@EGCHCMIN@glDrawArraysInstancedEXT@	; `string'
PUBLIC	??_C@_0BL@CPGJMID@glDrawElementsInstancedEXT@	; `string'
PUBLIC	??_C@_0BH@GFFILNEF@glDrawRangeElementsEXT@	; `string'
PUBLIC	??_C@_0BL@CEEFABGA@glBufferStorageExternalEXT@	; `string'
PUBLIC	??_C@_0CA@CHNMPEGN@glNamedBufferStorageExternalEXT@ ; `string'
PUBLIC	??_C@_0P@HILEJHGE@glFogCoordfEXT@		; `string'
PUBLIC	??_C@_0BA@NJJIDNPG@glFogCoordfvEXT@		; `string'
PUBLIC	??_C@_0P@CHEMEAE@glFogCoorddEXT@		; `string'
PUBLIC	??_C@_0BA@JEFAJMPN@glFogCoorddvEXT@		; `string'
PUBLIC	??_C@_0BF@FOOIEJCC@glFogCoordPointerEXT@	; `string'
PUBLIC	??_C@_0BF@GOMLACDI@glBlitFramebufferEXT@	; `string'
PUBLIC	??_C@_0CE@IGIMMIPN@glRenderbufferStorageMultisampl@ ; `string'
PUBLIC	??_C@_0BE@DLCBCJNM@glIsRenderbufferEXT@		; `string'
PUBLIC	??_C@_0BG@GLKALDNN@glBindRenderbufferEXT@	; `string'
PUBLIC	??_C@_0BJ@FCLEPNJL@glDeleteRenderbuffersEXT@	; `string'
PUBLIC	??_C@_0BG@HHIDFCMP@glGenRenderbuffersEXT@	; `string'
PUBLIC	??_C@_0BJ@NPDAOAPK@glRenderbufferStorageEXT@	; `string'
PUBLIC	??_C@_0CA@NHMNLBAE@glGetRenderbufferParameterivEXT@ ; `string'
PUBLIC	??_C@_0BD@MIGPBMHK@glIsFramebufferEXT@		; `string'
PUBLIC	??_C@_0BF@EMIECBAK@glBindFramebufferEXT@	; `string'
PUBLIC	??_C@_0BI@NPEJNLO@glDeleteFramebuffersEXT@	; `string'
PUBLIC	??_C@_0BF@FFIJGJAM@glGenFramebuffersEXT@	; `string'
PUBLIC	??_C@_0BM@GOHPHGGE@glCheckFramebufferStatusEXT@	; `string'
PUBLIC	??_C@_0BK@DDHFDNIL@glFramebufferTexture1DEXT@	; `string'
PUBLIC	??_C@_0BK@LFOBEPCF@glFramebufferTexture2DEXT@	; `string'
PUBLIC	??_C@_0BK@HOLNJMIA@glFramebufferTexture3DEXT@	; `string'
PUBLIC	??_C@_0BN@BAGKOCJP@glFramebufferRenderbufferEXT@ ; `string'
PUBLIC	??_C@_0CJ@GLBPNGII@glGetFramebufferAttachmentParam@ ; `string'
PUBLIC	??_C@_0BE@CIGLHJJK@glGenerateMipmapEXT@		; `string'
PUBLIC	??_C@_0BH@PKNCEEOM@glProgramParameteriEXT@	; `string'
PUBLIC	??_C@_0BN@FHPFOAIA@glProgramEnvParameters4fvEXT@ ; `string'
PUBLIC	??_C@_0BP@JDOGGDOI@glProgramLocalParameters4fvEXT@ ; `string'
PUBLIC	??_C@_0BD@FFGAODEC@glGetUniformuivEXT@		; `string'
PUBLIC	??_C@_0BK@DNBDABFG@glBindFragDataLocationEXT@	; `string'
PUBLIC	??_C@_0BJ@EJLFAMEH@glGetFragDataLocationEXT@	; `string'
PUBLIC	??_C@_0BA@OOCMDNJI@glUniform1uiEXT@		; `string'
PUBLIC	??_C@_0BA@NPMECHAF@glUniform2uiEXT@		; `string'
PUBLIC	??_C@_0BA@HJLDCMLB@glUniform3uiEXT@		; `string'
PUBLIC	??_C@_0BA@LMBEBCDP@glUniform4uiEXT@		; `string'
PUBLIC	??_C@_0BB@GNAFBLGL@glUniform1uivEXT@		; `string'
PUBLIC	??_C@_0BB@ODIKBMII@glUniform2uivEXT@		; `string'
PUBLIC	??_C@_0BB@CPCABMBG@glUniform3uivEXT@		; `string'
PUBLIC	??_C@_0BB@CFOFBFAP@glUniform4uivEXT@		; `string'
PUBLIC	??_C@_0BF@JIMLDDMF@glVertexAttribI1iEXT@	; `string'
PUBLIC	??_C@_0BF@BOFPEBGL@glVertexAttribI2iEXT@	; `string'
PUBLIC	??_C@_0BF@NFADJCMO@glVertexAttribI3iEXT@	; `string'
PUBLIC	??_C@_0BF@MIAGKCHG@glVertexAttribI4iEXT@	; `string'
PUBLIC	??_C@_0BG@OOANBDJP@glVertexAttribI1uiEXT@	; `string'
PUBLIC	??_C@_0BG@NPOFAJAC@glVertexAttribI2uiEXT@	; `string'
PUBLIC	??_C@_0BG@HJJCACLG@glVertexAttribI3uiEXT@	; `string'
PUBLIC	??_C@_0BG@LMDFDMDI@glVertexAttribI4uiEXT@	; `string'
PUBLIC	??_C@_0BG@HIKJNBCM@glVertexAttribI1ivEXT@	; `string'
PUBLIC	??_C@_0BG@EJEBMLLB@glVertexAttribI2ivEXT@	; `string'
PUBLIC	??_C@_0BG@OPDGMAAF@glVertexAttribI3ivEXT@	; `string'
PUBLIC	??_C@_0BG@CKJBPOIL@glVertexAttribI4ivEXT@	; `string'
PUBLIC	??_C@_0BH@PDGBKPOG@glVertexAttribI1uivEXT@	; `string'
PUBLIC	??_C@_0BH@HNOOKIAF@glVertexAttribI2uivEXT@	; `string'
PUBLIC	??_C@_0BH@LBEEKIJL@glVertexAttribI3uivEXT@	; `string'
PUBLIC	??_C@_0BH@LLIBKBIC@glVertexAttribI4uivEXT@	; `string'
PUBLIC	??_C@_0BG@EAFGAOEI@glVertexAttribI4bvEXT@	; `string'
PUBLIC	??_C@_0BG@IINMNPHG@glVertexAttribI4svEXT@	; `string'
PUBLIC	??_C@_0BH@NBEGFBEB@glVertexAttribI4ubvEXT@	; `string'
PUBLIC	??_C@_0BH@BJMMIAHP@glVertexAttribI4usvEXT@	; `string'
PUBLIC	??_C@_0BK@FIAOAACI@glVertexAttribIPointerEXT@	; `string'
PUBLIC	??_C@_0BI@KAPFBDGP@glGetVertexAttribIivEXT@	; `string'
PUBLIC	??_C@_0BJ@BMGMODAO@glGetVertexAttribIuivEXT@	; `string'
PUBLIC	??_C@_0BC@HDKNAHKO@glGetHistogramEXT@		; `string'
PUBLIC	??_C@_0BN@POFKAIPA@glGetHistogramParameterfvEXT@ ; `string'
PUBLIC	??_C@_0BN@PAMLKCF@glGetHistogramParameterivEXT@	; `string'
PUBLIC	??_C@_0P@MHPDBJJK@glGetMinmaxEXT@		; `string'
PUBLIC	??_C@_0BK@LHKCMDIM@glGetMinmaxParameterfvEXT@	; `string'
PUBLIC	??_C@_0BK@EGPEHBFJ@glGetMinmaxParameterivEXT@	; `string'
PUBLIC	??_C@_0P@NJHKLCL@glHistogramEXT@		; `string'
PUBLIC	??_C@_0M@CMBCKEAN@glMinmaxEXT@			; `string'
PUBLIC	??_C@_0BE@INOGIHMN@glResetHistogramEXT@		; `string'
PUBLIC	??_C@_0BB@ICGNPJGJ@glResetMinmaxEXT@		; `string'
PUBLIC	??_C@_0P@JNIENPPF@glIndexFuncEXT@		; `string'
PUBLIC	??_C@_0BD@FDMMOKEF@glIndexMaterialEXT@		; `string'
PUBLIC	??_C@_0BC@BMGBGAIC@glApplyTextureEXT@		; `string'
PUBLIC	??_C@_0BC@NKGLGGFG@glTextureLightEXT@		; `string'
PUBLIC	??_C@_0BF@PBKCOGKF@glTextureMaterialEXT@	; `string'
PUBLIC	??_C@_0BG@NLHPDBNE@glGetUnsignedBytevEXT@	; `string'
PUBLIC	??_C@_0BI@KNHNFAED@glGetUnsignedBytei_vEXT@	; `string'
PUBLIC	??_C@_0BJ@DAIMHILK@glDeleteMemoryObjectsEXT@	; `string'
PUBLIC	??_C@_0BE@NOLJNHIA@glIsMemoryObjectEXT@		; `string'
PUBLIC	??_C@_0BJ@HONOPFKE@glCreateMemoryObjectsEXT@	; `string'
PUBLIC	??_C@_0BN@MNKFHIOI@glMemoryObjectParameterivEXT@ ; `string'
PUBLIC	??_C@_0CA@BBJBIJOO@glGetMemoryObjectParameterivEXT@ ; `string'
PUBLIC	??_C@_0BF@EHPCMGBK@glTexStorageMem2DEXT@	; `string'
PUBLIC	??_C@_0CA@IJKOJMEH@glTexStorageMem2DMultisampleEXT@ ; `string'
PUBLIC	??_C@_0BF@IMKOBFLP@glTexStorageMem3DEXT@	; `string'
PUBLIC	??_C@_0CA@OAIFHAE@glTexStorageMem3DMultisampleEXT@ ; `string'
PUBLIC	??_C@_0BG@CFMEKMO@glBufferStorageMemEXT@	; `string'
PUBLIC	??_C@_0BJ@FDPIAJM@glTextureStorageMem2DEXT@	; `string'
PUBLIC	??_C@_0CE@KHGODFPD@glTextureStorageMem2DMultisampl@ ; `string'
PUBLIC	??_C@_0BJ@MOGDFDDJ@glTextureStorageMem3DEXT@	; `string'
PUBLIC	??_C@_0CE@CAMIPOLA@glTextureStorageMem3DMultisampl@ ; `string'
PUBLIC	??_C@_0BL@HKOLKGGL@glNamedBufferStorageMemEXT@	; `string'
PUBLIC	??_C@_0BF@MBGGLELE@glTexStorageMem1DEXT@	; `string'
PUBLIC	??_C@_0BJ@IDKLPCDC@glTextureStorageMem1DEXT@	; `string'
PUBLIC	??_C@_0BE@DEGOEJME@glImportMemoryFdEXT@		; `string'
PUBLIC	??_C@_0BN@CKFFNNNB@glImportMemoryWin32HandleEXT@ ; `string'
PUBLIC	??_C@_0BL@PJGPALAN@glImportMemoryWin32NameEXT@	; `string'
PUBLIC	??_C@_0BF@MOHHALAE@glMultiDrawArraysEXT@	; `string'
PUBLIC	??_C@_0BH@CPIJKLBJ@glMultiDrawElementsEXT@	; `string'
PUBLIC	??_C@_0BA@CBHHDJML@glSampleMaskEXT@		; `string'
PUBLIC	??_C@_0BD@GLCOCHJL@glSamplePatternEXT@		; `string'
PUBLIC	??_C@_0BA@MJCEHDBE@glColorTableEXT@		; `string'
PUBLIC	??_C@_0BD@FEIIDOBH@glGetColorTableEXT@		; `string'
PUBLIC	??_C@_0BO@IEPJPPHC@glGetColorTableParameterivEXT@ ; `string'
PUBLIC	??_C@_0BO@HFKPENKH@glGetColorTableParameterfvEXT@ ; `string'
PUBLIC	??_C@_0BO@GKGCNIAI@glPixelTransformParameteriEXT@ ; `string'
PUBLIC	??_C@_0BO@OIDCEPNJ@glPixelTransformParameterfEXT@ ; `string'
PUBLIC	??_C@_0BP@JNIOMGMK@glPixelTransformParameterivEXT@ ; `string'
PUBLIC	??_C@_0BP@GMNIHEBP@glPixelTransformParameterfvEXT@ ; `string'
PUBLIC	??_C@_0CC@BGOHPPC@glGetPixelTransformParameterivE@ ; `string'
PUBLIC	??_C@_0CC@PADIMNCH@glGetPixelTransformParameterfvE@ ; `string'
PUBLIC	??_C@_0BF@KOFPPNHP@glPointParameterfEXT@	; `string'
PUBLIC	??_C@_0BG@FDCLBPHA@glPointParameterfvEXT@	; `string'
PUBLIC	??_C@_0BD@KFMIOCPC@glPolygonOffsetEXT@		; `string'
PUBLIC	??_C@_0BI@NHICBIDO@glPolygonOffsetClampEXT@	; `string'
PUBLIC	??_C@_0BF@NCFNHLBM@glProvokingVertexEXT@	; `string'
PUBLIC	??_C@_0BD@KNNAFCHA@glRasterSamplesEXT@		; `string'
PUBLIC	??_C@_0BG@MGNMPMLP@glSecondaryColor3bEXT@	; `string'
PUBLIC	??_C@_0BH@MICHFOMB@glSecondaryColor3bvEXT@	; `string'
PUBLIC	??_C@_0BG@EJJMAJBP@glSecondaryColor3dEXT@	; `string'
PUBLIC	??_C@_0BH@BOHOLNNM@glSecondaryColor3dvEXT@	; `string'
PUBLIC	??_C@_0BG@DDFMFKHP@glSecondaryColor3fEXT@	; `string'
PUBLIC	??_C@_0BH@FDLGBMNH@glSecondaryColor3fvEXT@	; `string'
PUBLIC	??_C@_0BG@LBAMMNKO@glSecondaryColor3iEXT@	; `string'
PUBLIC	??_C@_0BH@KCOAKOAC@glSecondaryColor3ivEXT@	; `string'
PUBLIC	??_C@_0BG@JLFMECIN@glSecondaryColor3sEXT@	; `string'
PUBLIC	??_C@_0BH@KNIPPP@glSecondaryColor3svEXT@	; `string'
PUBLIC	??_C@_0BH@EDJEFNKA@glSecondaryColor3ubEXT@	; `string'
PUBLIC	??_C@_0BI@EFKKBLJF@glSecondaryColor3ubvEXT@	; `string'
PUBLIC	??_C@_0BH@DEEEGMLB@glSecondaryColor3uiEXT@	; `string'
PUBLIC	??_C@_0BI@CPGNOLFG@glSecondaryColor3uivEXT@	; `string'
PUBLIC	??_C@_0BH@BOBEODJC@glSecondaryColor3usEXT@	; `string'
PUBLIC	??_C@_0BI@INCAMKKL@glSecondaryColor3usvEXT@	; `string'
PUBLIC	??_C@_0BL@FIJPIBAP@glSecondaryColorPointerEXT@	; `string'
PUBLIC	??_C@_0BD@JENALPIA@glGenSemaphoresEXT@		; `string'
PUBLIC	??_C@_0BG@PGFOMLNN@glDeleteSemaphoresEXT@	; `string'
PUBLIC	??_C@_0BB@PJIOCKGF@glIsSemaphoreEXT@		; `string'
PUBLIC	??_C@_0BN@MFAHEOEI@glSemaphoreParameterui64vEXT@ ; `string'
PUBLIC	??_C@_0CA@BJDDLPEO@glGetSemaphoreParameterui64vEXT@ ; `string'
PUBLIC	??_C@_0BD@ONFJMPBK@glWaitSemaphoreEXT@		; `string'
PUBLIC	??_C@_0BF@JFIHODAC@glSignalSemaphoreEXT@	; `string'
PUBLIC	??_C@_0BH@BOEDCAHK@glImportSemaphoreFdEXT@	; `string'
PUBLIC	??_C@_0CA@GNAKADEC@glImportSemaphoreWin32HandleEXT@ ; `string'
PUBLIC	??_C@_0BO@FAAAMFIN@glImportSemaphoreWin32NameEXT@ ; `string'
PUBLIC	??_C@_0BG@POJOCCGB@glUseShaderProgramEXT@	; `string'
PUBLIC	??_C@_0BD@CLOMPIJI@glActiveProgramEXT@		; `string'
PUBLIC	??_C@_0BJ@MMLKJOPF@glCreateShaderProgramEXT@	; `string'
PUBLIC	??_C@_0BJ@KCKCCCKM@glActiveShaderProgramEXT@	; `string'
PUBLIC	??_C@_0BJ@GNNOGINB@glBindProgramPipelineEXT@	; `string'
PUBLIC	??_C@_0BK@FOCEJACN@glCreateShaderProgramvEXT@	; `string'
PUBLIC	??_C@_0BM@KOIFALOM@glDeleteProgramPipelinesEXT@	; `string'
PUBLIC	??_C@_0BJ@FEBCIIIM@glGenProgramPipelinesEXT@	; `string'
PUBLIC	??_C@_0BP@DKCKIEIJ@glGetProgramPipelineInfoLogEXT@ ; `string'
PUBLIC	??_C@_0BK@OLMMHFJP@glGetProgramPipelineivEXT@	; `string'
PUBLIC	??_C@_0BH@HNANNDJA@glIsProgramPipelineEXT@	; `string'
PUBLIC	??_C@_0BG@EGEMDMDF@glUseProgramStagesEXT@	; `string'
PUBLIC	??_C@_0BN@CJEKPLHI@glValidateProgramPipelineEXT@ ; `string'
PUBLIC	??_C@_0BN@NMKAKDCJ@glFramebufferFetchBarrierEXT@ ; `string'
PUBLIC	??_C@_0BG@CKIKMCEP@glBindImageTextureEXT@	; `string'
PUBLIC	??_C@_0BD@KBDDKHKJ@glMemoryBarrierEXT@		; `string'
PUBLIC	??_C@_0BF@KMNAKPFO@glStencilClearTagEXT@	; `string'
PUBLIC	??_C@_0BH@FDKCPLFK@glActiveStencilFaceEXT@	; `string'
PUBLIC	??_C@_0BD@MHDOEKHM@glTexSubImage1DEXT@		; `string'
PUBLIC	??_C@_0BD@EBKKDINC@glTexSubImage2DEXT@		; `string'
PUBLIC	??_C@_0BA@CBIBMEOO@glTexImage3DEXT@		; `string'
PUBLIC	??_C@_0BD@IKPGOLHH@glTexSubImage3DEXT@		; `string'
PUBLIC	??_C@_0BN@JOIJDPEJ@glFramebufferTextureLayerEXT@ ; `string'
PUBLIC	??_C@_0P@HPBILOFJ@glTexBufferEXT@		; `string'
PUBLIC	??_C@_0BF@JNFNNNEN@glTexParameterIivEXT@	; `string'
PUBLIC	??_C@_0BG@MJDBAKCE@glTexParameterIuivEXT@	; `string'
PUBLIC	??_C@_0BI@KHAOHHCO@glGetTexParameterIivEXT@	; `string'
PUBLIC	??_C@_0BJ@BNLAGJGM@glGetTexParameterIuivEXT@	; `string'
PUBLIC	??_C@_0BC@GAABLOFL@glClearColorIiEXT@		; `string'
PUBLIC	??_C@_0BD@PJECGHFB@glClearColorIuiEXT@		; `string'
PUBLIC	??_C@_0BJ@LJBONNCK@glAreTexturesResidentEXT@	; `string'
PUBLIC	??_C@_0BB@EBKBDLEN@glBindTextureEXT@		; `string'
PUBLIC	??_C@_0BE@LDBFENJM@glDeleteTexturesEXT@		; `string'
PUBLIC	??_C@_0BB@GJAECBGO@glGenTexturesEXT@		; `string'
PUBLIC	??_C@_0P@BLOFBLLL@glIsTextureEXT@		; `string'
PUBLIC	??_C@_0BI@BHBMGKCN@glPrioritizeTexturesEXT@	; `string'
PUBLIC	??_C@_0BD@HJCKBGND@glTextureNormalEXT@		; `string'
PUBLIC	??_C@_0BC@FENIPDJP@glTexStorage1DEXT@		; `string'
PUBLIC	??_C@_0BC@NCEMIBDB@glTexStorage2DEXT@		; `string'
PUBLIC	??_C@_0BC@BJBAFCJE@glTexStorage3DEXT@		; `string'
PUBLIC	??_C@_0BI@IJOKHKKO@glGetQueryObjecti64vEXT@	; `string'
PUBLIC	??_C@_0BJ@LBCFKCPE@glGetQueryObjectui64vEXT@	; `string'
PUBLIC	??_C@_0BM@BLDJBDM@glBeginTransformFeedbackEXT@	; `string'
PUBLIC	??_C@_0BK@MBPEMJDO@glEndTransformFeedbackEXT@	; `string'
PUBLIC	??_C@_0BF@MIMIIPJK@glBindBufferRangeEXT@	; `string'
PUBLIC	??_C@_0BG@PKIAJGM@glBindBufferOffsetEXT@	; `string'
PUBLIC	??_C@_0BE@NCJCCMMA@glBindBufferBaseEXT@		; `string'
PUBLIC	??_C@_0BP@LKJENMKJ@glTransformFeedbackVaryingsEXT@ ; `string'
PUBLIC	??_C@_0CB@KMFIHAIP@glGetTransformFeedbackVaryingEX@ ; `string'
PUBLIC	??_C@_0BC@PBPJCKDL@glArrayElementEXT@		; `string'
PUBLIC	??_C@_0BC@JAGLJGCN@glColorPointerEXT@		; `string'
PUBLIC	??_C@_0BA@NIBACEFN@glDrawArraysEXT@		; `string'
PUBLIC	??_C@_0BF@LIECLKLC@glEdgeFlagPointerEXT@	; `string'
PUBLIC	??_C@_0BB@EPJHLPNN@glGetPointervEXT@		; `string'
PUBLIC	??_C@_0BC@DOBCGHJI@glIndexPointerEXT@		; `string'
PUBLIC	??_C@_0BD@IBDDMGPJ@glNormalPointerEXT@		; `string'
PUBLIC	??_C@_0BF@PKEIBLPO@glTexCoordPointerEXT@	; `string'
PUBLIC	??_C@_0BD@IDICNFAP@glVertexPointerEXT@		; `string'
PUBLIC	??_C@_0BF@DCGDNIND@glVertexAttribL1dEXT@	; `string'
PUBLIC	??_C@_0BF@LEPHKKHN@glVertexAttribL2dEXT@	; `string'
PUBLIC	??_C@_0BF@HPKLHJNI@glVertexAttribL3dEXT@	; `string'
PUBLIC	??_C@_0BF@GCKOEJGA@glVertexAttribL4dEXT@	; `string'
PUBLIC	??_C@_0BG@IMNHMMJG@glVertexAttribL1dvEXT@	; `string'
PUBLIC	??_C@_0BG@LNDPNGAL@glVertexAttribL2dvEXT@	; `string'
PUBLIC	??_C@_0BG@BLEINNLP@glVertexAttribL3dvEXT@	; `string'
PUBLIC	??_C@_0BG@NOOPODDB@glVertexAttribL4dvEXT@	; `string'
PUBLIC	??_C@_0BK@MAKNHHDI@glVertexAttribLPointerEXT@	; `string'
PUBLIC	??_C@_0BI@EOFDCPBG@glGetVertexAttribLdvEXT@	; `string'
PUBLIC	??_C@_0BH@DBHOHHOM@glBeginVertexShaderEXT@	; `string'
PUBLIC	??_C@_0BF@LHBKPFPA@glEndVertexShaderEXT@	; `string'
PUBLIC	??_C@_0BG@OCJKPIFF@glBindVertexShaderEXT@	; `string'
PUBLIC	??_C@_0BG@JEGJGDJG@glGenVertexShadersEXT@	; `string'
PUBLIC	??_C@_0BI@FECIKLIE@glDeleteVertexShaderEXT@	; `string'
PUBLIC	??_C@_0P@EJGAIAGI@glShaderOp1EXT@		; `string'
PUBLIC	??_C@_0P@OMAPKLI@glShaderOp2EXT@		; `string'
PUBLIC	??_C@_0P@DDKANDAI@glShaderOp3EXT@		; `string'
PUBLIC	??_C@_0N@OAIECMLP@glSwizzleEXT@			; `string'
PUBLIC	??_C@_0P@MFMDCJBK@glWriteMaskEXT@		; `string'
PUBLIC	??_C@_0BF@IKCGIIKN@glInsertComponentEXT@	; `string'
PUBLIC	??_C@_0BG@IIKDNCFK@glExtractComponentEXT@	; `string'
PUBLIC	??_C@_0BA@FOBGFEBC@glGenSymbolsEXT@		; `string'
PUBLIC	??_C@_0BC@NKPANFDC@glSetInvariantEXT@		; `string'
PUBLIC	??_C@_0BG@MJJEAAJC@glSetLocalConstantEXT@	; `string'
PUBLIC	??_C@_0P@HDFNIDJJ@glVariantbvEXT@		; `string'
PUBLIC	??_C@_0P@LLNHFCKH@glVariantsvEXT@		; `string'
PUBLIC	??_C@_0P@BJJKHDFK@glVariantivEXT@		; `string'
PUBLIC	??_C@_0P@OIMMMBIP@glVariantfvEXT@		; `string'
PUBLIC	??_C@_0P@KFAEGAIE@glVariantdvEXT@		; `string'
PUBLIC	??_C@_0BA@CAKBLIIO@glVariantubvEXT@		; `string'
PUBLIC	??_C@_0BA@OICLGJLA@glVariantusvEXT@		; `string'
PUBLIC	??_C@_0BA@EKGGEIEN@glVariantuivEXT@		; `string'
PUBLIC	??_C@_0BE@MLHCODFN@glVariantPointerEXT@		; `string'
PUBLIC	??_C@_0BO@GCEAPMKD@glEnableVariantClientStateEXT@ ; `string'
PUBLIC	??_C@_0BP@IBHJIACF@glDisableVariantClientStateEXT@ ; `string'
PUBLIC	??_C@_0BI@PBIFACEG@glBindLightParameterEXT@	; `string'
PUBLIC	??_C@_0BL@PJABJA@glBindMaterialParameterEXT@	; `string'
PUBLIC	??_C@_0BJ@HCMLCIKI@glBindTexGenParameterEXT@	; `string'
PUBLIC	??_C@_0BO@GMKMPNFP@glBindTextureUnitParameterEXT@ ; `string'
PUBLIC	??_C@_0BD@GMIEHABM@glBindParameterEXT@		; `string'
PUBLIC	??_C@_0BG@CLPIJBFD@glIsVariantEnabledEXT@	; `string'
PUBLIC	??_C@_0BI@EPPMCFAN@glGetVariantBooleanvEXT@	; `string'
PUBLIC	??_C@_0BI@EOHDHDAJ@glGetVariantIntegervEXT@	; `string'
PUBLIC	??_C@_0BG@DGEKMCHD@glGetVariantFloatvEXT@	; `string'
PUBLIC	??_C@_0BI@LMHNNJOJ@glGetVariantPointervEXT@	; `string'
PUBLIC	??_C@_0BK@EADAIGJC@glGetInvariantBooleanvEXT@	; `string'
PUBLIC	??_C@_0BK@EBLPNAJG@glGetInvariantIntegervEXT@	; `string'
PUBLIC	??_C@_0BI@GAJGBOMH@glGetInvariantFloatvEXT@	; `string'
PUBLIC	??_C@_0BO@KMEGCJCE@glGetLocalConstantBooleanvEXT@ ; `string'
PUBLIC	??_C@_0BO@KNMJHPCA@glGetLocalConstantIntegervEXT@ ; `string'
PUBLIC	??_C@_0BM@OHCLJGJK@glGetLocalConstantFloatvEXT@	; `string'
PUBLIC	??_C@_0BD@FPEAFNKI@glVertexWeightfEXT@		; `string'
PUBLIC	??_C@_0BE@ELGNEHKH@glVertexWeightfvEXT@		; `string'
PUBLIC	??_C@_0BJ@KPGBLGAC@glVertexWeightPointerEXT@	; `string'
PUBLIC	??_C@_0BM@IMBBILJG@glAcquireKeyedMutexWin32EXT@	; `string'
PUBLIC	??_C@_0BM@NNGBMKJJ@glReleaseKeyedMutexWin32EXT@	; `string'
PUBLIC	??_C@_0BG@HPHPJDPD@glWindowRectanglesEXT@	; `string'
PUBLIC	??_C@_0BA@JABFPGIF@glImportSyncEXT@		; `string'
PUBLIC	??_C@_0BJ@FOGAIAMI@glFrameTerminatorGREMEDY@	; `string'
PUBLIC	??_C@_0BG@HOCDKCBN@glStringMarkerGREMEDY@	; `string'
PUBLIC	??_C@_0BN@DFHHMHMN@glImageTransformParameteriHP@ ; `string'
PUBLIC	??_C@_0BN@GNBENHJL@glImageTransformParameterfHP@ ; `string'
PUBLIC	??_C@_0BO@FNJKOJME@glImageTransformParameterivHP@ ; `string'
PUBLIC	??_C@_0BO@NPMKHOBF@glImageTransformParameterfvHP@ ; `string'
PUBLIC	??_C@_0CB@LECFHIAA@glGetImageTransformParameterivH@ ; `string'
PUBLIC	??_C@_0CB@DGHFOPNB@glGetImageTransformParameterfvH@ ; `string'
PUBLIC	??_C@_0BJ@EGJLGJFP@glMultiModeDrawArraysIBM@	; `string'
PUBLIC	??_C@_0BL@GFJOMAFF@glMultiModeDrawElementsIBM@	; `string'
PUBLIC	??_C@_0BF@HIPHGNEG@glFlushStaticDataIBM@	; `string'
PUBLIC	??_C@_0BG@KLFCLJE@glColorPointerListIBM@	; `string'
PUBLIC	??_C@_0BP@PMIIJHOP@glSecondaryColorPointerListIBM@ ; `string'
PUBLIC	??_C@_0BJ@KPDCFCPD@glEdgeFlagPointerListIBM@	; `string'
PUBLIC	??_C@_0BJ@LIHBGNPA@glFogCoordPointerListIBM@	; `string'
PUBLIC	??_C@_0BG@FLIMMAIL@glIndexPointerListIBM@	; `string'
PUBLIC	??_C@_0BH@NHONNMEE@glNormalPointerListIBM@	; `string'
PUBLIC	??_C@_0BJ@MEHHEKBH@glTexCoordPointerListIBM@	; `string'
PUBLIC	??_C@_0BH@HJFAHGMD@glVertexPointerListIBM@	; `string'
PUBLIC	??_C@_0BI@IALGGLKI@glBlendFuncSeparateINGR@	; `string'
PUBLIC	??_C@_0CG@FIEJNJE@glApplyFramebufferAttachmentCMA@ ; `string'
PUBLIC	??_C@_0BD@FFDOLCNG@glSyncTextureINTEL@		; `string'
PUBLIC	??_C@_0BG@GMCLKOGP@glUnmapTexture2DINTEL@	; `string'
PUBLIC	??_C@_0BE@KBPLFNMB@glMapTexture2DINTEL@		; `string'
PUBLIC	??_C@_0BG@OBAGKCON@glVertexPointervINTEL@	; `string'
PUBLIC	??_C@_0BG@INMGGPAF@glNormalPointervINTEL@	; `string'
PUBLIC	??_C@_0BF@NIENHGGK@glColorPointervINTEL@	; `string'
PUBLIC	??_C@_0BI@HLMIGKBN@glTexCoordPointervINTEL@	; `string'
PUBLIC	??_C@_0BG@JBNOOLKE@glBeginPerfQueryINTEL@	; `string'
PUBLIC	??_C@_0BH@MKFFIEMJ@glCreatePerfQueryINTEL@	; `string'
PUBLIC	??_C@_0BH@HHNLEFPM@glDeletePerfQueryINTEL@	; `string'
PUBLIC	??_C@_0BE@CGIOCDHE@glEndPerfQueryINTEL@		; `string'
PUBLIC	??_C@_0BL@PPFKNIGH@glGetFirstPerfQueryIdINTEL@	; `string'
PUBLIC	??_C@_0BK@GPGLFOFG@glGetNextPerfQueryIdINTEL@	; `string'
PUBLIC	??_C@_0BK@OGGFLDDJ@glGetPerfCounterInfoINTEL@	; `string'
PUBLIC	??_C@_0BI@IKOPAPCN@glGetPerfQueryDataINTEL@	; `string'
PUBLIC	??_C@_0BM@PLCMEHGM@glGetPerfQueryIdByNameINTEL@	; `string'
PUBLIC	??_C@_0BI@MOAJAGEH@glGetPerfQueryInfoINTEL@	; `string'
PUBLIC	??_C@_0BC@POODDIKG@glBlendBarrierKHR@		; `string'
PUBLIC	??_C@_0BJ@LEIBFGNK@glDebugMessageControlKHR@	; `string'
PUBLIC	??_C@_0BI@LBHNJPLI@glDebugMessageInsertKHR@	; `string'
PUBLIC	??_C@_0BK@LALDMAPH@glDebugMessageCallbackKHR@	; `string'
PUBLIC	??_C@_0BI@KKHBIJHC@glGetDebugMessageLogKHR@	; `string'
PUBLIC	??_C@_0BE@MILILOCH@glPushDebugGroupKHR@		; `string'
PUBLIC	??_C@_0BD@GCNNMKN@glPopDebugGroupKHR@		; `string'
PUBLIC	??_C@_0BB@DMCJMPFK@glObjectLabelKHR@		; `string'
PUBLIC	??_C@_0BE@KFLNDCKN@glGetObjectLabelKHR@		; `string'
PUBLIC	??_C@_0BE@GOKGMAFA@glObjectPtrLabelKHR@		; `string'
PUBLIC	??_C@_0BH@IIFNGNDB@glGetObjectPtrLabelKHR@	; `string'
PUBLIC	??_C@_0BB@OFDEMMBI@glGetPointervKHR@		; `string'
PUBLIC	??_C@_0BO@CAJNHOA@glMaxShaderCompilerThreadsKHR@ ; `string'
PUBLIC	??_C@_0BM@EHFHCJKI@glGetGraphicsResetStatusKHR@	; `string'
PUBLIC	??_C@_0BB@LLEMBHEB@glReadnPixelsKHR@		; `string'
PUBLIC	??_C@_0BD@LNJLGNAM@glGetnUniformfvKHR@		; `string'
PUBLIC	??_C@_0BD@EMMNNPNJ@glGetnUniformivKHR@		; `string'
PUBLIC	??_C@_0BE@HPIFCLPC@glGetnUniformuivKHR@		; `string'
PUBLIC	??_C@_0BM@HKFLKPMH@glFramebufferParameteriMESA@	; `string'
PUBLIC	??_C@_0CA@EDBEAAM@glGetFramebufferParameterivMESA@ ; `string'
PUBLIC	??_C@_0BE@PCOIAAF@glResizeBuffersMESA@		; `string'
PUBLIC	??_C@_0BC@ECHKAMAP@glWindowPos2dMESA@		; `string'
PUBLIC	??_C@_0BD@ENICNKCL@glWindowPos2dvMESA@		; `string'
PUBLIC	??_C@_0BC@PLCKNAE@glWindowPos2fMESA@		; `string'
PUBLIC	??_C@_0BD@NKBNMLAC@glWindowPos2fvMESA@		; `string'
PUBLIC	??_C@_0BC@POOEBPNB@glWindowPos2iMESA@		; `string'
PUBLIC	??_C@_0BD@CMFFLLOL@glWindowPos2ivMESA@		; `string'
PUBLIC	??_C@_0BC@FMKJDOCM@glWindowPos2sMESA@		; `string'
PUBLIC	??_C@_0BD@OPPLHIGL@glWindowPos2svMESA@		; `string'
PUBLIC	??_C@_0BC@OEANAHLL@glWindowPos3dMESA@		; `string'
PUBLIC	??_C@_0BD@IBCINKLF@glWindowPos3dvMESA@		; `string'
PUBLIC	??_C@_0BC@KJMFKGLA@glWindowPos3fMESA@		; `string'
PUBLIC	??_C@_0BD@BGLHMLJM@glWindowPos3fvMESA@		; `string'
PUBLIC	??_C@_0BC@FIJDBEGF@glWindowPos3iMESA@		; `string'
PUBLIC	??_C@_0BD@OAPPLLHF@glWindowPos3ivMESA@		; `string'
PUBLIC	??_C@_0BC@PKNODFJI@glWindowPos3sMESA@		; `string'
PUBLIC	??_C@_0BD@CDFBHIPF@glWindowPos3svMESA@		; `string'
PUBLIC	??_C@_0BC@CBKKDJDF@glWindowPos4dMESA@		; `string'
PUBLIC	??_C@_0BD@ILONNDKM@glWindowPos4dvMESA@		; `string'
PUBLIC	??_C@_0BC@GMGCJIDO@glWindowPos4fMESA@		; `string'
PUBLIC	??_C@_0BD@BMHCMCIF@glWindowPos4fvMESA@		; `string'
PUBLIC	??_C@_0BC@JNDECKOL@glWindowPos4iMESA@		; `string'
PUBLIC	??_C@_0BD@OKDKLCGM@glWindowPos4ivMESA@		; `string'
PUBLIC	??_C@_0BC@DPHJALBG@glWindowPos4sMESA@		; `string'
PUBLIC	??_C@_0BD@CJJEHBOM@glWindowPos4svMESA@		; `string'
PUBLIC	??_C@_0BM@GLBLBKGC@glBeginConditionalRenderNVX@	; `string'
PUBLIC	??_C@_0BK@KLFMECGA@glEndConditionalRenderNVX@	; `string'
PUBLIC	??_C@_0BD@JFIALKLF@glUploadGpuMaskNVX@		; `string'
PUBLIC	??_C@_0BN@JCALBIN@glMulticastViewportArrayvNVX@	; `string'
PUBLIC	??_C@_0CF@FCMCFLNJ@glMulticastViewportPositionWSca@ ; `string'
PUBLIC	??_C@_0BM@JGPEIEM@glMulticastScissorArrayvNVX@	; `string'
PUBLIC	??_C@_0BM@JNHJPGGM@glAsyncCopyBufferSubDataNVX@	; `string'
PUBLIC	??_C@_0BL@EHMKILFF@glAsyncCopyImageSubDataNVX@	; `string'
PUBLIC	??_C@_0BM@PNDPKLJF@glLGPUNamedBufferSubDataNVX@	; `string'
PUBLIC	??_C@_0BK@BHCJLMMB@glLGPUCopyImageSubDataNVX@	; `string'
PUBLIC	??_C@_0BD@GOCEONBG@glLGPUInterlockNVX@		; `string'
PUBLIC	??_C@_0BJ@JNHFJAIG@glCreateProgressFenceNVX@	; `string'
PUBLIC	??_C@_0BJ@ONGCIOJ@glSignalSemaphoreui64NVX@	; `string'
PUBLIC	??_C@_0BH@OLEJPJIC@glWaitSemaphoreui64NVX@	; `string'
PUBLIC	??_C@_0BN@IMGDMNAD@glClientWaitSemaphoreui64NVX@ ; `string'
PUBLIC	??_C@_0CB@FDKGLPFF@glAlphaToCoverageDitherControlN@ ; `string'
PUBLIC	??_C@_0CE@OPPLMFME@glMultiDrawArraysIndirectBindle@ ; `string'
PUBLIC	??_C@_0CG@CKMIKFBJ@glMultiDrawElementsIndirectBind@ ; `string'
PUBLIC	??_C@_0CJ@JENKOOOA@glMultiDrawArraysIndirectBindle@ ; `string'
PUBLIC	??_C@_0CL@EODJNKMJ@glMultiDrawElementsIndirectBind@ ; `string'
PUBLIC	??_C@_0BF@EPEHJEDI@glGetTextureHandleNV@	; `string'
PUBLIC	??_C@_0BM@EEDGJAH@glGetTextureSamplerHandleNV@	; `string'
PUBLIC	??_C@_0BO@DLOHPGGJ@glMakeTextureHandleResidentNV@ ; `string'
PUBLIC	??_C@_0CB@HOLIECK@glMakeTextureHandleNonResidentN@ ; `string'
PUBLIC	??_C@_0BD@OBEFACIO@glGetImageHandleNV@		; `string'
PUBLIC	??_C@_0BM@DGAOHFKM@glMakeImageHandleResidentNV@	; `string'
PUBLIC	??_C@_0BP@FJPHEBNI@glMakeImageHandleNonResidentNV@ ; `string'
PUBLIC	??_C@_0BG@DGBLMDFM@glUniformHandleui64NV@	; `string'
PUBLIC	??_C@_0BH@KJKANOEI@glUniformHandleui64vNV@	; `string'
PUBLIC	??_C@_0BN@JJIDLDJD@glProgramUniformHandleui64NV@ ; `string'
PUBLIC	??_C@_0BO@KCNEJJBJ@glProgramUniformHandleui64vNV@ ; `string'
PUBLIC	??_C@_0BM@PCCMLKEF@glIsTextureHandleResidentNV@	; `string'
PUBLIC	??_C@_0BK@INAMLCNH@glIsImageHandleResidentNV@	; `string'
PUBLIC	??_C@_0BE@JBFJPBIH@glBlendParameteriNV@		; `string'
PUBLIC	??_C@_0BB@GAMMBNHE@glBlendBarrierNV@		; `string'
PUBLIC	??_C@_0BL@MAGJCHDO@glViewportPositionWScaleNV@	; `string'
PUBLIC	??_C@_0BB@JCJHPNMD@glCreateStatesNV@		; `string'
PUBLIC	??_C@_0BB@IOHKFFOC@glDeleteStatesNV@		; `string'
PUBLIC	??_C@_0M@LPMGKMFG@glIsStateNV@			; `string'
PUBLIC	??_C@_0BB@IKILHEGP@glStateCaptureNV@		; `string'
PUBLIC	??_C@_0BF@BEPJEJAD@glGetCommandHeaderNV@	; `string'
PUBLIC	??_C@_0BC@BJBKPOCK@glGetStageIndexNV@		; `string'
PUBLIC	??_C@_0BB@CGFDCHAI@glDrawCommandsNV@		; `string'
PUBLIC	??_C@_0BI@EBCLDBG@glDrawCommandsAddressNV@	; `string'
PUBLIC	??_C@_0BH@JPNJIOLL@glDrawCommandsStatesNV@	; `string'
PUBLIC	??_C@_0BO@LALAAPCO@glDrawCommandsStatesAddressNV@ ; `string'
PUBLIC	??_C@_0BH@HHLDICBF@glCreateCommandListsNV@	; `string'
PUBLIC	??_C@_0BH@MKDNEDCA@glDeleteCommandListsNV@	; `string'
PUBLIC	??_C@_0BC@DLIBMDNK@glIsCommandListNV@		; `string'
PUBLIC	??_C@_0CB@MIFDEBOK@glListDrawCommandsStatesClientN@ ; `string'
PUBLIC	??_C@_0BI@FMPCEPEK@glCommandListSegmentsNV@	; `string'
PUBLIC	??_C@_0BH@EIIBLDNK@glCompileCommandListNV@	; `string'
PUBLIC	??_C@_0BE@CPJGHNFC@glCallCommandListNV@		; `string'
PUBLIC	??_C@_0BL@BFPLEPJG@glBeginConditionalRenderNV@	; `string'
PUBLIC	??_C@_0BJ@OIMPOAOJ@glEndConditionalRenderNV@	; `string'
PUBLIC	??_C@_0BK@FHACFEBF@glSubpixelPrecisionBiasNV@	; `string'
PUBLIC	??_C@_0CB@FIGIFDEE@glConservativeRasterParameterfN@ ; `string'
PUBLIC	??_C@_0CB@LEDBC@glConservativeRasterParameteriN@ ; `string'
PUBLIC	??_C@_0BF@OINOFOEL@glCopyImageSubDataNV@	; `string'
PUBLIC	??_C@_0BA@MOJBNLAH@glDepthRangedNV@		; `string'
PUBLIC	??_C@_0BA@EGPMPOHN@glClearDepthdNV@		; `string'
PUBLIC	??_C@_0BB@ONEIOJNL@glDepthBoundsdNV@		; `string'
PUBLIC	??_C@_0BA@LFBNBFFN@glDrawTextureNV@		; `string'
PUBLIC	??_C@_0BA@PCEMMMHD@glDrawVkImageNV@		; `string'
PUBLIC	??_C@_0BC@MEGKJFGF@glGetVkProcAddrNV@		; `string'
PUBLIC	??_C@_0BE@JLEGLDAM@glWaitVkSemaphoreNV@		; `string'
PUBLIC	??_C@_0BG@IIFCPFHG@glSignalVkSemaphoreNV@	; `string'
PUBLIC	??_C@_0BC@HDCMELJM@glSignalVkFenceNV@		; `string'
PUBLIC	??_C@_0BF@GPAMDJI@glMapControlPointsNV@		; `string'
PUBLIC	??_C@_0BD@EFLPKDJJ@glMapParameterivNV@		; `string'
PUBLIC	??_C@_0BD@MHOPDEEI@glMapParameterfvNV@		; `string'
PUBLIC	??_C@_0BI@DMKDGJPL@glGetMapControlPointsNV@	; `string'
PUBLIC	??_C@_0BG@NNEOMDNG@glGetMapParameterivNV@	; `string'
PUBLIC	??_C@_0BG@FPBOFEAH@glGetMapParameterfvNV@	; `string'
PUBLIC	??_C@_0BM@CAFKPPNA@glGetMapAttribParameterivNV@	; `string'
PUBLIC	??_C@_0BM@KCAKGIAB@glGetMapAttribParameterfvNV@	; `string'
PUBLIC	??_C@_0N@MOIOFJHA@glEvalMapsNV@			; `string'
PUBLIC	??_C@_0BF@KCLIIDIC@glGetMultisamplefvNV@	; `string'
PUBLIC	??_C@_0BG@JHCPKEEG@glSampleMaskIndexedNV@	; `string'
PUBLIC	??_C@_0BE@IFGHOHNA@glTexRenderbufferNV@		; `string'
PUBLIC	??_C@_0BB@DAKHCBKD@glDeleteFencesNV@		; `string'
PUBLIC	??_C@_0O@CHJMKDPL@glGenFencesNV@		; `string'
PUBLIC	??_C@_0M@GJKCPNCE@glIsFenceNV@			; `string'
PUBLIC	??_C@_0O@LNNPKBIJ@glTestFenceNV@		; `string'
PUBLIC	??_C@_0P@IHAKHMAP@glGetFenceivNV@		; `string'
PUBLIC	??_C@_0BA@LABINNJE@glFinishFenceNV@		; `string'
PUBLIC	??_C@_0N@JFIDDEIM@glSetFenceNV@			; `string'
PUBLIC	??_C@_0BK@JNIANMBH@glFragmentCoverageColorNV@	; `string'
PUBLIC	??_C@_0BM@BFFOPDMF@glProgramNamedParameter4fNV@	; `string'
PUBLIC	??_C@_0BN@CAFALAJI@glProgramNamedParameter4fvNV@ ; `string'
PUBLIC	??_C@_0BM@LPFHDLEO@glProgramNamedParameter4dNV@	; `string'
PUBLIC	??_C@_0BN@FKJAODPI@glProgramNamedParameter4dvNV@ ; `string'
PUBLIC	??_C@_0BP@OFGIPBNP@glGetProgramNamedParameterfvNV@ ; `string'
PUBLIC	??_C@_0BP@JPKIKCLP@glGetProgramNamedParameterdvNV@ ; `string'
PUBLIC	??_C@_0BM@PNPEKHAP@glCoverageModulationTableNV@	; `string'
PUBLIC	??_C@_0BP@BPAIGOCB@glGetCoverageModulationTableNV@ ; `string'
PUBLIC	??_C@_0BH@ODBMFL@glCoverageModulationNV@	; `string'
PUBLIC	??_C@_0CL@BLPAMPMF@glRenderbufferStorageMultisampl@ ; `string'
PUBLIC	??_C@_0BH@FCFCFIOB@glProgramVertexLimitNV@	; `string'
PUBLIC	??_C@_0BI@DLCHGKBN@glFramebufferTextureEXT@	; `string'
PUBLIC	??_C@_0BM@GHJGPNOI@glFramebufferTextureFaceEXT@	; `string'
PUBLIC	??_C@_0BC@JDLOHJEG@glRenderGpuMaskNV@		; `string'
PUBLIC	??_C@_0BL@LKIMMJHD@glMulticastBufferSubDataNV@	; `string'
PUBLIC	??_C@_0BP@BDKCNPOF@glMulticastCopyBufferSubDataNV@ ; `string'
PUBLIC	??_C@_0BO@IDENJMEH@glMulticastCopyImageSubDataNV@ ; `string'
PUBLIC	??_C@_0BN@KGEHHAEF@glMulticastBlitFramebufferNV@ ; `string'
PUBLIC	??_C@_0CK@GNOEBMKJ@glMulticastFramebufferSampleLoc@ ; `string'
PUBLIC	??_C@_0BF@JFIJFIGP@glMulticastBarrierNV@	; `string'
PUBLIC	??_C@_0BG@JLFIHFLF@glMulticastWaitSyncNV@	; `string'
PUBLIC	??_C@_0BO@KPGKGHOB@glMulticastGetQueryObjectivNV@ ; `string'
PUBLIC	??_C@_0BP@IKENKCGO@glMulticastGetQueryObjectuivNV@ ; `string'
PUBLIC	??_C@_0CA@BOFOJOBI@glMulticastGetQueryObjecti64vNV@ ; `string'
PUBLIC	??_C@_0CB@EJELAJIE@glMulticastGetQueryObjectui64vN@ ; `string'
PUBLIC	??_C@_0BN@JKMALPPG@glProgramLocalParameterI4iNV@ ; `string'
PUBLIC	??_C@_0BO@JPAPEPMC@glProgramLocalParameterI4ivNV@ ; `string'
PUBLIC	??_C@_0BP@HFKMJBKD@glProgramLocalParametersI4ivNV@ ; `string'
PUBLIC	??_C@_0BO@DCGFHCII@glProgramLocalParameterI4uiNV@ ; `string'
PUBLIC	??_C@_0BP@CIBKLGDE@glProgramLocalParameterI4uivNV@ ; `string'
PUBLIC	??_C@_0CA@BCEFEECE@glProgramLocalParametersI4uivNV@ ; `string'
PUBLIC	??_C@_0BL@FEHHMDDA@glProgramEnvParameterI4iNV@	; `string'
PUBLIC	??_C@_0BM@ONMGJPDL@glProgramEnvParameterI4ivNV@	; `string'
PUBLIC	??_C@_0BN@LBLPBCML@glProgramEnvParametersI4ivNV@ ; `string'
PUBLIC	??_C@_0BM@EAKMKCHB@glProgramEnvParameterI4uiNV@	; `string'
PUBLIC	??_C@_0BN@OMAJDFFM@glProgramEnvParameterI4uivNV@ ; `string'
PUBLIC	??_C@_0BO@FBOILOMN@glProgramEnvParametersI4uivNV@ ; `string'
PUBLIC	??_C@_0CA@IOANACED@glGetProgramLocalParameterIivNV@ ; `string'
PUBLIC	??_C@_0CB@LCLEAHMP@glGetProgramLocalParameterIuivN@ ; `string'
PUBLIC	??_C@_0BO@NIDNLFEK@glGetProgramEnvParameterIivNV@ ; `string'
PUBLIC	??_C@_0BP@MLDOIPNM@glGetProgramEnvParameterIuivNV@ ; `string'
PUBLIC	??_C@_0CD@JCMFFHEG@glProgramSubroutineParametersui@ ; `string'
PUBLIC	??_C@_0CF@PJPEJIBG@glGetProgramSubroutineParameter@ ; `string'
PUBLIC	??_C@_0N@HCLAGKGE@glVertex2hNV@			; `string'
PUBLIC	??_C@_0O@IBOGMNHP@glVertex2hvNV@		; `string'
PUBLIC	??_C@_0N@EPNAEDNE@glVertex3hNV@			; `string'
PUBLIC	??_C@_0O@EKLKBONK@glVertex3hvNV@		; `string'
PUBLIC	??_C@_0N@PNPAJPME@glVertex4hNV@			; `string'
PUBLIC	??_C@_0O@FHLPCOGC@glVertex4hvNV@		; `string'
PUBLIC	??_C@_0N@EDDLLIAN@glNormal3hNV@			; `string'
PUBLIC	??_C@_0O@LFLJJPFB@glNormal3hvNV@		; `string'
PUBLIC	??_C@_0M@EGNPCIKO@glColor3hNV@			; `string'
PUBLIC	??_C@_0N@PKGDIJJD@glColor3hvNV@			; `string'
PUBLIC	??_C@_0M@PEPPPELO@glColor4hNV@			; `string'
PUBLIC	??_C@_0N@OHGGLJCL@glColor4hvNV@			; `string'
PUBLIC	??_C@_0P@IJCAIFOB@glTexCoord1hNV@		; `string'
PUBLIC	??_C@_0BA@BMMPCKDP@glTexCoord1hvNV@		; `string'
PUBLIC	??_C@_0P@MOIAPPDB@glTexCoord2hNV@		; `string'
PUBLIC	??_C@_0BA@JKFLFIJB@glTexCoord2hvNV@		; `string'
PUBLIC	??_C@_0P@PDOANGIB@glTexCoord3hNV@		; `string'
PUBLIC	??_C@_0BA@FBAHILDE@glTexCoord3hvNV@		; `string'
PUBLIC	??_C@_0P@EBMAAKJB@glTexCoord4hNV@		; `string'
PUBLIC	??_C@_0BA@EMACLLIM@glTexCoord4hvNV@		; `string'
PUBLIC	??_C@_0BE@ICMAJJDO@glMultiTexCoord1hNV@		; `string'
PUBLIC	??_C@_0BF@KKIAFGG@glMultiTexCoord1hvNV@		; `string'
PUBLIC	??_C@_0BE@MFGAODOO@glMultiTexCoord2hNV@		; `string'
PUBLIC	??_C@_0BF@IMDMHHMI@glMultiTexCoord2hvNV@	; `string'
PUBLIC	??_C@_0BE@PIAAMKFO@glMultiTexCoord3hNV@		; `string'
PUBLIC	??_C@_0BF@EHGAKEGN@glMultiTexCoord3hvNV@	; `string'
PUBLIC	??_C@_0BE@EKCABGEO@glMultiTexCoord4hNV@		; `string'
PUBLIC	??_C@_0BF@FKGFJENF@glMultiTexCoord4hvNV@	; `string'
PUBLIC	??_C@_0O@KNFBOGPJ@glFogCoordhNV@		; `string'
PUBLIC	??_C@_0P@PIHMDAK@glFogCoordhvNV@		; `string'
PUBLIC	??_C@_0BF@EBEILKNM@glSecondaryColor3hNV@	; `string'
PUBLIC	??_C@_0BG@EEGPAOBB@glSecondaryColor3hvNV@	; `string'
PUBLIC	??_C@_0BC@FLNKIAII@glVertexWeighthNV@		; `string'
PUBLIC	??_C@_0BD@CIHDAJMG@glVertexWeighthvNV@		; `string'
PUBLIC	??_C@_0BD@DJLFBANF@glVertexAttrib1hNV@		; `string'
PUBLIC	??_C@_0BE@DNMLELBP@glVertexAttrib1hvNV@		; `string'
PUBLIC	??_C@_0BD@HOBFGKAF@glVertexAttrib2hNV@		; `string'
PUBLIC	??_C@_0BE@LLFPDJLB@glVertexAttrib2hvNV@		; `string'
PUBLIC	??_C@_0BD@EDHFEDLF@glVertexAttrib3hNV@		; `string'
PUBLIC	??_C@_0BE@HAADOKBE@glVertexAttrib3hvNV@		; `string'
PUBLIC	??_C@_0BD@PBFFJPKF@glVertexAttrib4hNV@		; `string'
PUBLIC	??_C@_0BE@GNAGNKKM@glVertexAttrib4hvNV@		; `string'
PUBLIC	??_C@_0BF@GBLLAKGG@glVertexAttribs1hvNV@	; `string'
PUBLIC	??_C@_0BF@OHCPHIMI@glVertexAttribs2hvNV@	; `string'
PUBLIC	??_C@_0BF@CMHDKLGN@glVertexAttribs3hvNV@	; `string'
PUBLIC	??_C@_0BF@DBHGJLNF@glVertexAttribs4hvNV@	; `string'
PUBLIC	??_C@_0BO@OHGLKBNC@glGetInternalformatSampleivNV@ ; `string'
PUBLIC	??_C@_0CI@IHNOCDAN@glGetMemoryObjectDetachedResour@ ; `string'
PUBLIC	??_C@_0BP@EAPKCPHP@glResetMemoryObjectParameterNV@ ; `string'
PUBLIC	??_C@_0BE@OEDNBGIK@glTexAttachMemoryNV@		; `string'
PUBLIC	??_C@_0BH@IKFHJPJH@glBufferAttachMemoryNV@	; `string'
PUBLIC	??_C@_0BI@JLODPMKD@glTextureAttachMemoryNV@	; `string'
PUBLIC	??_C@_0BM@CMJDHPBM@glNamedBufferAttachMemoryNV@	; `string'
PUBLIC	??_C@_0BM@CEOONAOI@glBufferPageCommitmentMemNV@	; `string'
PUBLIC	??_C@_0BJ@JCPBHCLF@glTexPageCommitmentMemNV@	; `string'
PUBLIC	??_C@_0CB@FKFMDFKA@glNamedBufferPageCommitmentMemN@ ; `string'
PUBLIC	??_C@_0BN@MIFCODJP@glTexturePageCommitmentMemNV@ ; `string'
PUBLIC	??_C@_0BC@PPCAEPGN@glDrawMeshTasksNV@		; `string'
PUBLIC	??_C@_0BK@CHLFPBJC@glDrawMeshTasksIndirectNV@	; `string'
PUBLIC	??_C@_0BP@OBNMBBDE@glMultiDrawMeshTasksIndirectNV@ ; `string'
PUBLIC	??_C@_0CE@NGFJONJI@glMultiDrawMeshTasksIndirectCou@ ; `string'
PUBLIC	??_C@_0BI@JEMOBOCG@glGenOcclusionQueriesNV@	; `string'
PUBLIC	??_C@_0BL@MHABNDI@glDeleteOcclusionQueriesNV@	; `string'
PUBLIC	??_C@_0BF@JBHKNKJP@glIsOcclusionQueryNV@	; `string'
PUBLIC	??_C@_0BI@FEEDIEDE@glBeginOcclusionQueryNV@	; `string'
PUBLIC	??_C@_0BG@EAMELMPJ@glEndOcclusionQueryNV@	; `string'
PUBLIC	??_C@_0BI@NCOFAKJF@glGetOcclusionQueryivNV@	; `string'
PUBLIC	??_C@_0BJ@NNFIJICG@glGetOcclusionQueryuivNV@	; `string'
PUBLIC	??_C@_0BO@DDNFMIFB@glProgramBufferParametersfvNV@ ; `string'
PUBLIC	??_C@_0BP@MDFONLEO@glProgramBufferParametersIivNV@ ; `string'
PUBLIC	??_C@_0CA@MMEICIKL@glProgramBufferParametersIuivNV@ ; `string'
PUBLIC	??_C@_0N@FMDGEPDK@glGenPathsNV@			; `string'
PUBLIC	??_C@_0BA@NAAKFEKE@glDeletePathsNV@		; `string'
PUBLIC	??_C@_0L@PCPKPMMK@glIsPathNV@			; `string'
PUBLIC	??_C@_0BB@CFDKKDNH@glPathCommandsNV@		; `string'
PUBLIC	??_C@_0P@DHJAEDPC@glPathCoordsNV@		; `string'
PUBLIC	??_C@_0BE@HOBMPDDI@glPathSubCommandsNV@		; `string'
PUBLIC	??_C@_0BC@KLMMJFCP@glPathSubCoordsNV@		; `string'
PUBLIC	??_C@_0P@EAFCPLMB@glPathStringNV@		; `string'
PUBLIC	??_C@_0P@GIMFPAOD@glPathGlyphsNV@		; `string'
PUBLIC	??_C@_0BD@NBOFAPGO@glPathGlyphRangeNV@		; `string'
PUBLIC	??_C@_0BA@IMDPLEJG@glWeightPathsNV@		; `string'
PUBLIC	??_C@_0N@GPBNLDM@glCopyPathNV@			; `string'
PUBLIC	??_C@_0BF@OHBFMHDP@glInterpolatePathsNV@	; `string'
PUBLIC	??_C@_0BC@PFDDGCLO@glTransformPathNV@		; `string'
PUBLIC	??_C@_0BE@DHOHELBA@glPathParameterivNV@		; `string'
PUBLIC	??_C@_0BD@BFBLDIFL@glPathParameteriNV@		; `string'
PUBLIC	??_C@_0BE@LFLHNMMB@glPathParameterfvNV@		; `string'
PUBLIC	??_C@_0BD@ENHICIAN@glPathParameterfNV@		; `string'
PUBLIC	??_C@_0BC@EIADDCMD@glPathDashArrayNV@		; `string'
PUBLIC	??_C@_0BE@GIMCAKIK@glPathStencilFuncNV@		; `string'
PUBLIC	??_C@_0BL@MFCJMCIP@glPathStencilDepthOffsetNV@	; `string'
PUBLIC	??_C@_0BE@MOKIDLCK@glStencilFillPathNV@		; `string'
PUBLIC	??_C@_0BG@KLBLCPKO@glStencilStrokePathNV@	; `string'
PUBLIC	??_C@_0BN@PMAFGCFH@glStencilFillPathInstancedNV@ ; `string'
PUBLIC	??_C@_0BP@HGOJMHBB@glStencilStrokePathInstancedNV@ ; `string'
PUBLIC	??_C@_0BH@CPAJPDDN@glPathCoverDepthFuncNV@	; `string'
PUBLIC	??_C@_0BC@KLIEKJL@glCoverFillPathNV@		; `string'
PUBLIC	??_C@_0BE@HBMHDFON@glCoverStrokePathNV@		; `string'
PUBLIC	??_C@_0BL@COEHOHOL@glCoverFillPathInstancedNV@	; `string'
PUBLIC	??_C@_0BN@KDELIDEI@glCoverStrokePathInstancedNV@ ; `string'
PUBLIC	??_C@_0BH@NBBMOGHB@glGetPathParameterivNV@	; `string'
PUBLIC	??_C@_0BH@FDEMHBKA@glGetPathParameterfvNV@	; `string'
PUBLIC	??_C@_0BE@LMKOFOCA@glGetPathCommandsNV@		; `string'
PUBLIC	??_C@_0BC@EJKKOPHH@glGetPathCoordsNV@		; `string'
PUBLIC	??_C@_0BF@GLEDMBIB@glGetPathDashArrayNV@	; `string'
PUBLIC	??_C@_0BD@EEPFHFBK@glGetPathMetricsNV@		; `string'
PUBLIC	??_C@_0BH@CAOLNFDI@glGetPathMetricRangeNV@	; `string'
PUBLIC	??_C@_0BD@EJNMGPDD@glGetPathSpacingNV@		; `string'
PUBLIC	??_C@_0BG@PKOCINEE@glIsPointInFillPathNV@	; `string'
PUBLIC	??_C@_0BI@HCGHELHE@glIsPointInStrokePathNV@	; `string'
PUBLIC	??_C@_0BC@BFEHODOO@glGetPathLengthNV@		; `string'
PUBLIC	??_C@_0BD@BALPLLAE@glPointAlongPathNV@		; `string'
PUBLIC	??_C@_0BD@MFBDGFOH@glMatrixLoad3x2fNV@		; `string'
PUBLIC	??_C@_0BD@PIHDEMFH@glMatrixLoad3x3fNV@		; `string'
PUBLIC	??_C@_0BM@PGCEACNI@glMatrixLoadTranspose3x3fNV@	; `string'
PUBLIC	??_C@_0BD@LJOFHNHK@glMatrixMult3x2fNV@		; `string'
PUBLIC	??_C@_0BD@IEIFFEMK@glMatrixMult3x3fNV@		; `string'
PUBLIC	??_C@_0BM@BJOOEPHG@glMatrixMultTranspose3x3fNV@	; `string'
PUBLIC	??_C@_0BN@OOLJOHMJ@glStencilThenCoverFillPathNV@ ; `string'
PUBLIC	??_C@_0BP@FBCNDBGP@glStencilThenCoverStrokePathNV@ ; `string'
PUBLIC	??_C@_0CG@GIAJCOGG@glStencilThenCoverFillPathInsta@ ; `string'
PUBLIC	??_C@_0CI@MPNOFJBE@glStencilThenCoverStrokePathIns@ ; `string'
PUBLIC	??_C@_0BI@BGMFLDBO@glPathGlyphIndexRangeNV@	; `string'
PUBLIC	??_C@_0BI@FDFMNMOC@glPathGlyphIndexArrayNV@	; `string'
PUBLIC	??_C@_0BO@CBKCCCGJ@glPathMemoryGlyphIndexArrayNV@ ; `string'
PUBLIC	??_C@_0CA@LNIDHBI@glProgramPathFragmentInputGenNV@ ; `string'
PUBLIC	??_C@_0BJ@BFDANGAD@glGetProgramResourcefvNV@	; `string'
PUBLIC	??_C@_0BB@JJOCMELG@glPathColorGenNV@		; `string'
PUBLIC	??_C@_0P@HCMOCCO@glPathTexGenNV@		; `string'
PUBLIC	??_C@_0P@IFEMHIDG@glPathFogGenNV@		; `string'
PUBLIC	??_C@_0BG@PDFBPAAI@glGetPathColorGenivNV@	; `string'
PUBLIC	??_C@_0BG@HBABGHNJ@glGetPathColorGenfvNV@	; `string'
PUBLIC	??_C@_0BE@JJKBHGJB@glGetPathTexGenivNV@		; `string'
PUBLIC	??_C@_0BE@BLPBOBEA@glGetPathTexGenfvNV@		; `string'
PUBLIC	??_C@_0BD@KLAOCDGB@glPixelDataRangeNV@		; `string'
PUBLIC	??_C@_0BI@MFEIJCOB@glFlushPixelDataRangeNV@	; `string'
PUBLIC	??_C@_0BE@CICEHCDM@glPointParameteriNV@		; `string'
PUBLIC	??_C@_0BF@OEAMIAKB@glPointParameterivNV@	; `string'
PUBLIC	??_C@_0BG@FCLIHFBN@glPresentFrameKeyedNV@	; `string'
PUBLIC	??_C@_0BJ@HBACKHKP@glPresentFrameDualFillNV@	; `string'
PUBLIC	??_C@_0P@BFBLAEGH@glGetVideoivNV@		; `string'
PUBLIC	??_C@_0BA@IOCMPFBI@glGetVideouivNV@		; `string'
PUBLIC	??_C@_0BB@KHDMCLEG@glGetVideoi64vNV@		; `string'
PUBLIC	??_C@_0BC@MFCBBHMC@glGetVideoui64vNV@		; `string'
PUBLIC	??_C@_0BF@PPFLHPEL@glPrimitiveRestartNV@	; `string'
PUBLIC	??_C@_0BK@IECCGAIH@glPrimitiveRestartIndexNV@	; `string'
PUBLIC	??_C@_0BC@CLOPIGMB@glQueryResourceNV@		; `string'
PUBLIC	??_C@_0BI@MBNJENMJ@glGenQueryResourceTagNV@	; `string'
PUBLIC	??_C@_0BL@FJGHEONH@glDeleteQueryResourceTagNV@	; `string'
PUBLIC	??_C@_0BF@EMFJOMLB@glQueryResourceTagNV@	; `string'
PUBLIC	??_C@_0BI@MOFPBEKH@glCombinerParameterfvNV@	; `string'
PUBLIC	??_C@_0BH@BEJLOAMH@glCombinerParameterfNV@	; `string'
PUBLIC	??_C@_0BI@EMAPIDHG@glCombinerParameterivNV@	; `string'
PUBLIC	??_C@_0BH@EMPIPAJB@glCombinerParameteriNV@	; `string'
PUBLIC	??_C@_0BC@MHEFLHNL@glCombinerInputNV@		; `string'
PUBLIC	??_C@_0BD@LLKNJGND@glCombinerOutputNV@		; `string'
PUBLIC	??_C@_0BH@CALCLACB@glFinalCombinerInputNV@	; `string'
PUBLIC	??_C@_0CA@LNFOOOKL@glGetCombinerInputParameterfvNV@ ; `string'
PUBLIC	??_C@_0CA@DPAOHJHK@glGetCombinerInputParameterivNV@ ; `string'
PUBLIC	??_C@_0CB@OIJIKAOO@glGetCombinerOutputParameterfvN@ ; `string'
PUBLIC	??_C@_0CB@GKMIDHDP@glGetCombinerOutputParameterivN@ ; `string'
PUBLIC	??_C@_0CF@CMCNPKCK@glGetFinalCombinerInputParamete@ ; `string'
PUBLIC	??_C@_0CF@KOHNGNPL@glGetFinalCombinerInputParamete@ ; `string'
PUBLIC	??_C@_0BN@DPPCKLCA@glCombinerStageParameterfvNV@ ; `string'
PUBLIC	??_C@_0CA@ODMGFKCG@glGetCombinerStageParameterfvNV@ ; `string'
PUBLIC	??_C@_0CB@GFIBOIAK@glFramebufferSampleLocationsfvN@ ; `string'
PUBLIC	??_C@_0CG@JLMFDEIO@glNamedFramebufferSampleLocatio@ ; `string'
PUBLIC	??_C@_0BH@ICCPADHN@glResolveDepthValuesNV@	; `string'
PUBLIC	??_C@_0BF@NNIJDGLE@glScissorExclusiveNV@	; `string'
PUBLIC	??_C@_0BL@IMJDNKPB@glScissorExclusiveArrayvNV@	; `string'
PUBLIC	??_C@_0BH@ODMPHMC@glMakeBufferResidentNV@	; `string'
PUBLIC	??_C@_0BK@NKNMAMID@glMakeBufferNonResidentNV@	; `string'
PUBLIC	??_C@_0BF@HJHNCEAJ@glIsBufferResidentNV@	; `string'
PUBLIC	??_C@_0BM@PNMEGACL@glMakeNamedBufferResidentNV@	; `string'
PUBLIC	??_C@_0BP@PBIJIBKM@glMakeNamedBufferNonResidentNV@ ; `string'
PUBLIC	??_C@_0BK@EGMGKHFA@glIsNamedBufferResidentNV@	; `string'
PUBLIC	??_C@_0BM@GNCLIPCE@glGetBufferParameterui64vNV@	; `string'
PUBLIC	??_C@_0CB@FGAPEMKC@glGetNamedBufferParameterui64vN@ ; `string'
PUBLIC	??_C@_0BE@GHDKFDLO@glGetIntegerui64vNV@		; `string'
PUBLIC	??_C@_0BA@GJCBIMLB@glUniformui64NV@		; `string'
PUBLIC	??_C@_0BB@HHEEHKMC@glUniformui64vNV@		; `string'
PUBLIC	??_C@_0BH@OPICDKHF@glProgramUniformui64NV@	; `string'
PUBLIC	??_C@_0BI@OLMLNPNN@glProgramUniformui64vNV@	; `string'
PUBLIC	??_C@_0BJ@HHOMLEKA@glBindShadingRateImageNV@	; `string'
PUBLIC	??_C@_0BP@PNNPDNCL@glGetShadingRateImagePaletteNV@ ; `string'
PUBLIC	??_C@_0CD@LGCKIKC@glGetShadingRateSampleLocationi@ ; `string'
PUBLIC	??_C@_0BM@NIDGOENI@glShadingRateImageBarrierNV@	; `string'
PUBLIC	??_C@_0BM@BPCDPEAF@glShadingRateImagePaletteNV@	; `string'
PUBLIC	??_C@_0BL@JBJNGGGE@glShadingRateSampleOrderNV@	; `string'
PUBLIC	??_C@_0CB@LJKCLGMG@glShadingRateSampleOrderCustomN@ ; `string'
PUBLIC	??_C@_0BD@JMGAFMKM@glTextureBarrierNV@		; `string'
PUBLIC	??_C@_0CC@EEFADPCN@glTexImage2DMultisampleCoverage@ ; `string'
PUBLIC	??_C@_0CC@MFHFFKAK@glTexImage3DMultisampleCoverage@ ; `string'
PUBLIC	??_C@_0BO@LAGOAAE@glTextureImage2DMultisampleNV@ ; `string'
PUBLIC	??_C@_0BO@KFGOHBJF@glTextureImage3DMultisampleNV@ ; `string'
PUBLIC	??_C@_0CG@GLPDGBBN@glTextureImage2DMultisampleCove@ ; `string'
PUBLIC	??_C@_0CG@OKNGAEDK@glTextureImage3DMultisampleCove@ ; `string'
PUBLIC	??_C@_0BF@CJAJMEDK@glCreateSemaphoresNV@	; `string'
PUBLIC	??_C@_0BJ@DKPFEIKM@glSemaphoreParameterivNV@	; `string'
PUBLIC	??_C@_0BM@JABDBPNC@glGetSemaphoreParameterivNV@	; `string'
PUBLIC	??_C@_0BL@JGDAGNMD@glBeginTransformFeedbackNV@	; `string'
PUBLIC	??_C@_0BJ@GLAEMCLM@glEndTransformFeedbackNV@	; `string'
PUBLIC	??_C@_0BN@DLKLIELE@glTransformFeedbackAttribsNV@ ; `string'
PUBLIC	??_C@_0BE@OBAOENLA@glBindBufferRangeNV@		; `string'
PUBLIC	??_C@_0BF@FGCAAPML@glBindBufferOffsetNV@	; `string'
PUBLIC	??_C@_0BD@GBHJGKKE@glBindBufferBaseNV@		; `string'
PUBLIC	??_C@_0BO@LKDKPLHG@glTransformFeedbackVaryingsNV@ ; `string'
PUBLIC	??_C@_0BC@GKICBFEP@glActiveVaryingNV@		; `string'
PUBLIC	??_C@_0BH@HLMKDIEA@glGetVaryingLocationNV@	; `string'
PUBLIC	??_C@_0BF@EJMCOGAN@glGetActiveVaryingNV@	; `string'
PUBLIC	??_C@_0CA@BKFJJIKJ@glGetTransformFeedbackVaryingNV@ ; `string'
PUBLIC	??_C@_0CD@IGHHDCAA@glTransformFeedbackStreamAttrib@ ; `string'
PUBLIC	??_C@_0BK@DJOLIFOI@glBindTransformFeedbackNV@	; `string'
PUBLIC	??_C@_0BN@ELBFHMEM@glDeleteTransformFeedbacksNV@ ; `string'
PUBLIC	??_C@_0BK@GFNIKJH@glGenTransformFeedbacksNV@	; `string'
PUBLIC	??_C@_0BI@DICACHFF@glIsTransformFeedbackNV@	; `string'
PUBLIC	??_C@_0BL@LLKLIJFO@glPauseTransformFeedbackNV@	; `string'
PUBLIC	??_C@_0BM@DCBEGNIO@glResumeTransformFeedbackNV@	; `string'
PUBLIC	??_C@_0BK@BCJIKDKA@glDrawTransformFeedbackNV@	; `string'
PUBLIC	??_C@_0O@IOAGBPDE@glVDPAUInitNV@		; `string'
PUBLIC	??_C@_0O@HFBIAMDH@glVDPAUFiniNV@		; `string'
PUBLIC	??_C@_0BO@DKGOJDMN@glVDPAURegisterVideoSurfaceNV@ ; `string'
PUBLIC	??_C@_0BP@JCNALJG@glVDPAURegisterOutputSurfaceNV@ ; `string'
PUBLIC	??_C@_0BD@NLIHAKN@glVDPAUIsSurfaceNV@		; `string'
PUBLIC	??_C@_0BL@BIPCFCKC@glVDPAUUnregisterSurfaceNV@	; `string'
PUBLIC	??_C@_0BG@KFGGMEAJ@glVDPAUGetSurfaceivNV@	; `string'
PUBLIC	??_C@_0BH@MEFOIAMD@glVDPAUSurfaceAccessNV@	; `string'
PUBLIC	??_C@_0BF@GIDGIGBO@glVDPAUMapSurfacesNV@	; `string'
PUBLIC	??_C@_0BH@CJEPFHFG@glVDPAUUnmapSurfacesNV@	; `string'
PUBLIC	??_C@_0DC@NGFNEPOB@glVDPAURegisterVideoSurfaceWith@ ; `string'
PUBLIC	??_C@_0BK@MJCHGDFA@glFlushVertexArrayRangeNV@	; `string'
PUBLIC	??_C@_0BF@EOMCBGEH@glVertexArrayRangeNV@	; `string'
PUBLIC	??_C@_0BG@JBKEPNLI@glVertexAttribL1i64NV@	; `string'
PUBLIC	??_C@_0BG@KAEMOHCF@glVertexAttribL2i64NV@	; `string'
PUBLIC	??_C@_0BG@GDLOMJB@glVertexAttribL3i64NV@	; `string'
PUBLIC	??_C@_0BG@MDJMNCBP@glVertexAttribL4i64NV@	; `string'
PUBLIC	??_C@_0BH@OGAEHBH@glVertexAttribL1i64vNV@	; `string'
PUBLIC	??_C@_0BH@IAOPEAPE@glVertexAttribL2i64vNV@	; `string'
PUBLIC	??_C@_0BH@EMEFEAGK@glVertexAttribL3i64vNV@	; `string'
PUBLIC	??_C@_0BH@EGIAEJHD@glVertexAttribL4i64vNV@	; `string'
PUBLIC	??_C@_0BH@BIBLMIFJ@glVertexAttribL1ui64NV@	; `string'
PUBLIC	??_C@_0BH@JGJEMPLK@glVertexAttribL2ui64NV@	; `string'
PUBLIC	??_C@_0BH@FKDOMPCE@glVertexAttribL3ui64NV@	; `string'
PUBLIC	??_C@_0BH@FAPLMGDN@glVertexAttribL4ui64NV@	; `string'
PUBLIC	??_C@_0BI@NJOECKMM@glVertexAttribL1ui64vNV@	; `string'
PUBLIC	??_C@_0BI@OAGJBGAJ@glVertexAttribL2ui64vNV@	; `string'
PUBLIC	??_C@_0BI@PHBCACEK@glVertexAttribL3ui64vNV@	; `string'
PUBLIC	??_C@_0BI@JDHDGPID@glVertexAttribL4ui64vNV@	; `string'
PUBLIC	??_C@_0BJ@ODBKEANE@glGetVertexAttribLi64vNV@	; `string'
PUBLIC	??_C@_0BK@NLGEMDMB@glGetVertexAttribLui64vNV@	; `string'
PUBLIC	??_C@_0BI@PJDHBBAD@glVertexAttribLFormatNV@	; `string'
PUBLIC	??_C@_0BH@MDFHICFB@glBufferAddressRangeNV@	; `string'
PUBLIC	??_C@_0BB@NLNEAAKM@glVertexFormatNV@		; `string'
PUBLIC	??_C@_0BB@INCFAMIC@glNormalFormatNV@		; `string'
PUBLIC	??_C@_0BA@GFJAMAPO@glColorFormatNV@		; `string'
PUBLIC	??_C@_0BA@JJLAHNFD@glIndexFormatNV@		; `string'
PUBLIC	??_C@_0BD@MBEOEMHD@glTexCoordFormatNV@		; `string'
PUBLIC	??_C@_0BD@EFMLGKEE@glEdgeFlagFormatNV@		; `string'
PUBLIC	??_C@_0BJ@PKFFENAJ@glSecondaryColorFormatNV@	; `string'
PUBLIC	??_C@_0BD@OGHKKDDH@glFogCoordFormatNV@		; `string'
PUBLIC	??_C@_0BH@ICIIJEEN@glVertexAttribFormatNV@	; `string'
PUBLIC	??_C@_0BI@BPBONKEH@glVertexAttribIFormatNV@	; `string'
PUBLIC	??_C@_0BG@BBPDBPBI@glGetIntegerui64i_vNV@	; `string'
PUBLIC	??_C@_0BI@IDMBIFPA@glAreProgramsResidentNV@	; `string'
PUBLIC	??_C@_0BA@EFGCLOIP@glBindProgramNV@		; `string'
PUBLIC	??_C@_0BD@LCEMBAGD@glDeleteProgramsNV@		; `string'
PUBLIC	??_C@_0BD@EHHBAHPJ@glExecuteProgramNV@		; `string'
PUBLIC	??_C@_0BA@MDJIDCAI@glGenProgramsNV@		; `string'
PUBLIC	??_C@_0BK@LCJCCCJD@glGetProgramParameterdvNV@	; `string'
PUBLIC	??_C@_0BK@MIFCHBPD@glGetProgramParameterfvNV@	; `string'
PUBLIC	??_C@_0BB@GBFLIHIL@glGetProgramivNV@		; `string'
PUBLIC	??_C@_0BF@MIBLICIP@glGetProgramStringNV@	; `string'
PUBLIC	??_C@_0BF@MHCKMIOA@glGetTrackMatrixivNV@	; `string'
PUBLIC	??_C@_0BG@OBHBBAIN@glGetVertexAttribdvNV@	; `string'
PUBLIC	??_C@_0BG@JLLBEDON@glGetVertexAttribfvNV@	; `string'
PUBLIC	??_C@_0BG@BJOBNEDM@glGetVertexAttribivNV@	; `string'
PUBLIC	??_C@_0BM@FBGAKENC@glGetVertexAttribPointervNV@	; `string'
PUBLIC	??_C@_0O@EJNFDHB@glIsProgramNV@			; `string'
PUBLIC	??_C@_0BA@FMIIKLKD@glLoadProgramNV@		; `string'
PUBLIC	??_C@_0BH@IECDKIN@glProgramParameter4dNV@	; `string'
PUBLIC	??_C@_0BI@FIEKGFPD@glProgramParameter4dvNV@	; `string'
PUBLIC	??_C@_0BH@KCELPCAG@glProgramParameter4fNV@	; `string'
PUBLIC	??_C@_0BI@CCIKDGJD@glProgramParameter4fvNV@	; `string'
PUBLIC	??_C@_0BJ@HIKFLGHF@glProgramParameters4dvNV@	; `string'
PUBLIC	??_C@_0BJ@CGFOFBF@glProgramParameters4fvNV@	; `string'
PUBLIC	??_C@_0BM@NPHADIJC@glRequestResidentProgramsNV@	; `string'
PUBLIC	??_C@_0BA@KGODFEBP@glTrackMatrixNV@		; `string'
PUBLIC	??_C@_0BI@HINEBBOP@glVertexAttribPointerNV@	; `string'
PUBLIC	??_C@_0BD@HDGDKPGN@glVertexAttrib1dNV@		; `string'
PUBLIC	??_C@_0BE@PIDLKGBO@glVertexAttrib1dvNV@		; `string'
PUBLIC	??_C@_0BD@NJGKGHOG@glVertexAttrib1fNV@		; `string'
PUBLIC	??_C@_0BE@ICPLPFHO@glVertexAttrib1fvNV@		; `string'
PUBLIC	??_C@_0BD@LOKNMAEL@glVertexAttrib1sNV@		; `string'
PUBLIC	??_C@_0BE@CKPLONIM@glVertexAttrib1svNV@		; `string'
PUBLIC	??_C@_0BD@DEMDNFLN@glVertexAttrib2dNV@		; `string'
PUBLIC	??_C@_0BE@HOKPNELA@glVertexAttrib2dvNV@		; `string'
PUBLIC	??_C@_0BD@JOMKBNDG@glVertexAttrib2fNV@		; `string'
PUBLIC	??_C@_0BE@EGPIHNA@glVertexAttrib2fvNV@		; `string'
PUBLIC	??_C@_0BD@PJANLKJL@glVertexAttrib2sNV@		; `string'
PUBLIC	??_C@_0BE@KMGPJPCC@glVertexAttrib2svNV@		; `string'
PUBLIC	??_C@_0BD@JKDPMAN@glVertexAttrib3dNV@		; `string'
PUBLIC	??_C@_0BE@LFPDAHBF@glVertexAttrib3dvNV@		; `string'
PUBLIC	??_C@_0BD@KDKKDEIG@glVertexAttrib3fNV@		; `string'
PUBLIC	??_C@_0BE@MPDDFEHF@glVertexAttrib3fvNV@		; `string'
PUBLIC	??_C@_0BD@MEGNJDCL@glVertexAttrib3sNV@		; `string'
PUBLIC	??_C@_0BE@GHDDEMIH@glVertexAttrib3svNV@		; `string'
PUBLIC	??_C@_0BD@LLIDCABN@glVertexAttrib4dNV@		; `string'
PUBLIC	??_C@_0BE@KIPGDHKN@glVertexAttrib4dvNV@		; `string'
PUBLIC	??_C@_0BD@BBIKOIJG@glVertexAttrib4fNV@		; `string'
PUBLIC	??_C@_0BE@NCDGGEMN@glVertexAttrib4fvNV@		; `string'
PUBLIC	??_C@_0BD@HGENEPDL@glVertexAttrib4sNV@		; `string'
PUBLIC	??_C@_0BE@HKDGHMDP@glVertexAttrib4svNV@		; `string'
PUBLIC	??_C@_0BE@CKANEJFH@glVertexAttrib4ubNV@		; `string'
PUBLIC	??_C@_0BF@DOGOBBEK@glVertexAttrib4ubvNV@	; `string'
PUBLIC	??_C@_0BF@KEELOHGH@glVertexAttribs1dvNV@	; `string'
PUBLIC	??_C@_0BF@NOILLEAH@glVertexAttribs1fvNV@	; `string'
PUBLIC	??_C@_0BF@HGILKMPF@glVertexAttribs1svNV@	; `string'
PUBLIC	??_C@_0BF@CCNPJFMJ@glVertexAttribs2dvNV@	; `string'
PUBLIC	??_C@_0BF@FIBPMGKJ@glVertexAttribs2fvNV@	; `string'
PUBLIC	??_C@_0BF@PABPNOFL@glVertexAttribs2svNV@	; `string'
PUBLIC	??_C@_0BF@OJIDEGGM@glVertexAttribs3dvNV@	; `string'
PUBLIC	??_C@_0BF@JDEDBFAM@glVertexAttribs3fvNV@	; `string'
PUBLIC	??_C@_0BF@DLEDANPO@glVertexAttribs3svNV@	; `string'
PUBLIC	??_C@_0BF@PEIGHGNE@glVertexAttribs4dvNV@	; `string'
PUBLIC	??_C@_0BF@IOEGCFLE@glVertexAttribs4fvNV@	; `string'
PUBLIC	??_C@_0BF@CGEGDNEG@glVertexAttribs4svNV@	; `string'
PUBLIC	??_C@_0BG@BHOLKIJD@glVertexAttribs4ubvNV@	; `string'
PUBLIC	??_C@_0BG@HIMELIPH@glBeginVideoCaptureNV@	; `string'
PUBLIC	??_C@_0CB@FMJAEKNP@glBindVideoCaptureStreamBufferN@ ; `string'
PUBLIC	??_C@_0CC@IDABGAJB@glBindVideoCaptureStreamTexture@ ; `string'
PUBLIC	??_C@_0BE@MPJEHACH@glEndVideoCaptureNV@		; `string'
PUBLIC	??_C@_0BG@IBGMLLEH@glGetVideoCaptureivNV@	; `string'
PUBLIC	??_C@_0BM@DMACHFJB@glGetVideoCaptureStreamivNV@	; `string'
PUBLIC	??_C@_0BM@LOFCOCEA@glGetVideoCaptureStreamfvNV@	; `string'
PUBLIC	??_C@_0BM@MEJCLBCA@glGetVideoCaptureStreamdvNV@	; `string'
PUBLIC	??_C@_0BB@HJMMNH@glVideoCaptureNV@		; `string'
PUBLIC	??_C@_0CC@HHIKMJIK@glVideoCaptureStreamParameteriv@ ; `string'
PUBLIC	??_C@_0CC@PFNKFOFL@glVideoCaptureStreamParameterfv@ ; `string'
PUBLIC	??_C@_0CC@IPBKANDL@glVideoCaptureStreamParameterdv@ ; `string'
PUBLIC	??_C@_0BE@ILDGLCPK@glViewportSwizzleNV@		; `string'
PUBLIC	??_C@_0BF@LMBJLBEI@glMultiTexCoord1bOES@	; `string'
PUBLIC	??_C@_0BG@DCAKDLNF@glMultiTexCoord1bvOES@	; `string'
PUBLIC	??_C@_0BF@DKINMDOG@glMultiTexCoord2bOES@	; `string'
PUBLIC	??_C@_0BG@DOCCBEI@glMultiTexCoord2bvOES@	; `string'
PUBLIC	??_C@_0BF@PBNBBAED@glMultiTexCoord3bOES@	; `string'
PUBLIC	??_C@_0BG@KFJFCKPM@glMultiTexCoord3bvOES@	; `string'
PUBLIC	??_C@_0BF@OMNECAPL@glMultiTexCoord4bOES@	; `string'
PUBLIC	??_C@_0BG@GADCBEHC@glMultiTexCoord4bvOES@	; `string'
PUBLIC	??_C@_0BA@KKHOJOBB@glTexCoord1bOES@		; `string'
PUBLIC	??_C@_0BB@CAKLLFKK@glTexCoord1bvOES@		; `string'
PUBLIC	??_C@_0BA@CMOKOMLP@glTexCoord2bOES@		; `string'
PUBLIC	??_C@_0BB@BBEDKPDH@glTexCoord2bvOES@		; `string'
PUBLIC	??_C@_0BA@OHLGDPBK@glTexCoord3bOES@		; `string'
PUBLIC	??_C@_0BB@LHDEKEID@glTexCoord3bvOES@		; `string'
PUBLIC	??_C@_0BA@PKLDAPKC@glTexCoord4bOES@		; `string'
PUBLIC	??_C@_0BB@HCJDJKAN@glTexCoord4bvOES@		; `string'
PUBLIC	??_C@_0O@DHFHHJFB@glVertex2bOES@		; `string'
PUBLIC	??_C@_0P@FGOKNNNN@glVertex2bvOES@		; `string'
PUBLIC	??_C@_0O@PMALKKPE@glVertex3bOES@		; `string'
PUBLIC	??_C@_0P@PAJNNGGJ@glVertex3bvOES@		; `string'
PUBLIC	??_C@_0O@OBAOJKEM@glVertex4bOES@		; `string'
PUBLIC	??_C@_0P@DFDKOIOH@glVertex4bvOES@		; `string'
PUBLIC	??_C@_0BA@JJHDMMFG@glAlphaFuncxOES@		; `string'
PUBLIC	??_C@_0BB@CHNKKDGN@glClearColorxOES@		; `string'
PUBLIC	??_C@_0BB@LMKIPPCH@glClearDepthxOES@		; `string'
PUBLIC	??_C@_0BA@EDNPMHOP@glClipPlanexOES@		; `string'
PUBLIC	??_C@_0N@HLIHICCG@glColor4xOES@			; `string'
PUBLIC	??_C@_0BB@MPAAKCA@glDepthRangexOES@		; `string'
PUBLIC	??_C@_09PPPGJAGN@glFogxOES@			; `string'
PUBLIC	??_C@_0L@HJENAALD@glFogxvOES@			; `string'
PUBLIC	??_C@_0O@DMHBFGCB@glFrustumxOES@		; `string'
PUBLIC	??_C@_0BD@NOHDIKOM@glGetClipPlanexOES@		; `string'
PUBLIC	??_C@_0P@GNNHPNPE@glGetFixedvOES@		; `string'
PUBLIC	??_C@_0BB@EICCOENI@glGetTexEnvxvOES@		; `string'
PUBLIC	??_C@_0BH@EGBGGALC@glGetTexParameterxvOES@	; `string'
PUBLIC	??_C@_0BB@LCDBFMKH@glLightModelxOES@		; `string'
PUBLIC	??_C@_0BC@CLBOMNB@glLightModelxvOES@		; `string'
PUBLIC	??_C@_0M@OJLOCOBH@glLightxOES@			; `string'
PUBLIC	??_C@_0N@MJILNACP@glLightxvOES@			; `string'
PUBLIC	??_C@_0BA@DMMGMBAA@glLineWidthxOES@		; `string'
PUBLIC	??_C@_0BB@CCPMNNHD@glLoadMatrixxOES@		; `string'
PUBLIC	??_C@_0P@MJEMONHI@glMaterialxOES@		; `string'
PUBLIC	??_C@_0BA@BEKGFOCF@glMaterialxvOES@		; `string'
PUBLIC	??_C@_0BB@GELGGNOO@glMultMatrixxOES@		; `string'
PUBLIC	??_C@_0BF@MGIEKPNI@glMultiTexCoord4xOES@	; `string'
PUBLIC	??_C@_0O@CJFIKEFM@glNormal3xOES@		; `string'
PUBLIC	??_C@_0M@LHDJINCI@glOrthoxOES@			; `string'
PUBLIC	??_C@_0BG@FOPFDKBL@glPointParameterxvOES@	; `string'
PUBLIC	??_C@_0BA@OPAMFCJK@glPointSizexOES@		; `string'
PUBLIC	??_C@_0BE@ELBLIPBD@glPolygonOffsetxOES@		; `string'
PUBLIC	??_C@_0N@LCGPIFBO@glRotatexOES@			; `string'
PUBLIC	??_C@_0M@FAJPICEG@glScalexOES@			; `string'
PUBLIC	??_C@_0N@JABMPDJJ@glTexEnvxOES@			; `string'
PUBLIC	??_C@_0O@MDPCNMNF@glTexEnvxvOES@		; `string'
PUBLIC	??_C@_0BD@IJGBCMIE@glTexParameterxOES@		; `string'
PUBLIC	??_C@_0BE@KAONMNND@glTexParameterxvOES@		; `string'
PUBLIC	??_C@_0BA@JDAJBJEJ@glTranslatexOES@		; `string'
PUBLIC	??_C@_0BA@KHALDHHF@glGetLightxvOES@		; `string'
PUBLIC	??_C@_0BD@IJAKBDCG@glGetMaterialxvOES@		; `string'
PUBLIC	??_C@_0BF@EFINJCBM@glPointParameterxOES@	; `string'
PUBLIC	??_C@_0BF@EOPMCADK@glSampleCoveragexOES@	; `string'
PUBLIC	??_C@_0M@CPPEIPJO@glAccumxOES@			; `string'
PUBLIC	??_C@_0N@CANFAEJM@glBitmapxOES@			; `string'
PUBLIC	??_C@_0BB@KKPGOJHM@glBlendColorxOES@		; `string'
PUBLIC	??_C@_0BB@CNBFOBCG@glClearAccumxOES@		; `string'
PUBLIC	??_C@_0N@GGICLCJO@glColor3xOES@			; `string'
PUBLIC	??_C@_0O@FNGANHDH@glColor3xvOES@		; `string'
PUBLIC	??_C@_0O@JIMHOJLJ@glColor4xvOES@		; `string'
PUBLIC	??_C@_0BL@EDAHNLBG@glConvolutionParameterxOES@	; `string'
PUBLIC	??_C@_0BM@LOCGFJEM@glConvolutionParameterxvOES@	; `string'
PUBLIC	??_C@_0BB@LBMMICLD@glEvalCoord1xOES@		; `string'
PUBLIC	??_C@_0BC@BIGIMFHC@glEvalCoord1xvOES@		; `string'
PUBLIC	??_C@_0BB@DHFIPABN@glEvalCoord2xOES@		; `string'
PUBLIC	??_C@_0BC@CJIANPOP@glEvalCoord2xvOES@		; `string'
PUBLIC	??_C@_0BF@DFIFBLPH@glFeedbackBufferxOES@	; `string'
PUBLIC	??_C@_0BP@FMNKJAGC@glGetConvolutionParameterxvOES@ ; `string'
PUBLIC	??_C@_0BN@PDIECNJL@glGetHistogramParameterxvOES@ ; `string'
PUBLIC	??_C@_0P@CFPJDIA@glGetLightxOES@		; `string'
PUBLIC	??_C@_0O@KDGAIGNJ@glGetMapxvOES@		; `string'
PUBLIC	??_C@_0BC@LHHGEBPN@glGetMaterialxOES@		; `string'
PUBLIC	??_C@_0BA@FFNFLIPO@glGetPixelMapxv@		; `string'
PUBLIC	??_C@_0BB@GPIPACKB@glGetTexGenxvOES@		; `string'
PUBLIC	??_C@_0BM@NGIJHMJA@glGetTexLevelParameterxvOES@	; `string'
PUBLIC	??_C@_0M@PDGMCOMC@glIndexxOES@			; `string'
PUBLIC	??_C@_0N@DPCICEHE@glIndexxvOES@			; `string'
PUBLIC	??_C@_0BK@JDLAKOKN@glLoadTransposeMatrixxOES@	; `string'
PUBLIC	??_C@_0L@NLIMMLNJ@glMap1xOES@			; `string'
PUBLIC	??_C@_0L@FNBILJHH@glMap2xOES@			; `string'
PUBLIC	??_C@_0P@NABFHJJJ@glMapGrid1xOES@		; `string'
PUBLIC	??_C@_0P@FGIBALDH@glMapGrid2xOES@		; `string'
PUBLIC	??_C@_0BK@EHOGBOCF@glMultTransposeMatrixxOES@	; `string'
PUBLIC	??_C@_0BF@JGEJDOGL@glMultiTexCoord1xOES@	; `string'
PUBLIC	??_C@_0BG@JAEHBKCI@glMultiTexCoord1xvOES@	; `string'
PUBLIC	??_C@_0BF@BANNEMMF@glMultiTexCoord2xOES@	; `string'
PUBLIC	??_C@_0BG@KBKPAALF@glMultiTexCoord2xvOES@	; `string'
PUBLIC	??_C@_0BF@NLIBJPGA@glMultiTexCoord3xOES@	; `string'
PUBLIC	??_C@_0BG@HNIALAB@glMultiTexCoord3xvOES@	; `string'
PUBLIC	??_C@_0BG@MCHPDFIP@glMultiTexCoord4xvOES@	; `string'
PUBLIC	??_C@_0P@CIEFKOLN@glNormal3xvOES@		; `string'
PUBLIC	??_C@_0BC@NNEINCMN@glPassThroughxOES@		; `string'
PUBLIC	??_C@_0M@ICBJLICJ@glPixelMapx@			; `string'
PUBLIC	??_C@_0O@MBPBEIPF@glPixelStorex@		; `string'
PUBLIC	??_C@_0BE@LKFMIKPM@glPixelTransferxOES@		; `string'
PUBLIC	??_C@_0BA@HMHFOEFE@glPixelZoomxOES@		; `string'
PUBLIC	??_C@_0BJ@FNMFJENO@glPrioritizeTexturesxOES@	; `string'
PUBLIC	??_C@_0BB@DNDNLIAC@glRasterPos2xOES@		; `string'
PUBLIC	??_C@_0BC@KEICLHFC@glRasterPos2xvOES@		; `string'
PUBLIC	??_C@_0BB@PGGBGLKH@glRasterPos3xOES@		; `string'
PUBLIC	??_C@_0BC@CPFLMOG@glRasterPos3xvOES@		; `string'
PUBLIC	??_C@_0BB@OLGEFLBP@glRasterPos4xOES@		; `string'
PUBLIC	??_C@_0BC@MHFCICGI@glRasterPos4xvOES@		; `string'
PUBLIC	??_C@_0L@CFBMFFAP@glRectxOES@			; `string'
PUBLIC	??_C@_0M@NKCLOKAC@glRectxvOES@			; `string'
PUBLIC	??_C@_0BA@IACOBBDC@glTexCoord1xOES@		; `string'
PUBLIC	??_C@_0BB@ICOGJEFH@glTexCoord1xvOES@		; `string'
PUBLIC	??_C@_0BA@GLKGDJM@glTexCoord2xOES@		; `string'
PUBLIC	??_C@_0BB@LDAOIOMK@glTexCoord2xvOES@		; `string'
PUBLIC	??_C@_0BA@MNOGLADJ@glTexCoord3xOES@		; `string'
PUBLIC	??_C@_0BB@BFHJIFHO@glTexCoord3xvOES@		; `string'
PUBLIC	??_C@_0BA@NAODIAIB@glTexCoord4xOES@		; `string'
PUBLIC	??_C@_0BB@NANOLLPA@glTexCoord4xvOES@		; `string'
PUBLIC	??_C@_0N@DPLLCAOI@glTexGenxOES@			; `string'
PUBLIC	??_C@_0O@OEFPDKKM@glTexGenxvOES@		; `string'
PUBLIC	??_C@_0O@BNAHPGHC@glVertex2xOES@		; `string'
PUBLIC	??_C@_0P@PEKHPMCA@glVertex2xvOES@		; `string'
PUBLIC	??_C@_0O@NGFLCFNH@glVertex3xOES@		; `string'
PUBLIC	??_C@_0P@FCNAPHJE@glVertex3xvOES@		; `string'
PUBLIC	??_C@_0O@MLFOBFGP@glVertex4xOES@		; `string'
PUBLIC	??_C@_0P@JHHHMJBK@glVertex4xvOES@		; `string'
PUBLIC	??_C@_0BC@DEKNHIDE@glQueryMatrixxOES@		; `string'
PUBLIC	??_C@_0BB@GDHINGME@glClearDepthfOES@		; `string'
PUBLIC	??_C@_0BA@JMAPOOAM@glClipPlanefOES@		; `string'
PUBLIC	??_C@_0BB@NDCACDMD@glDepthRangefOES@		; `string'
PUBLIC	??_C@_0O@ODKBHPMC@glFrustumfOES@		; `string'
PUBLIC	??_C@_0BD@BKDKDAP@glGetClipPlanefOES@		; `string'
PUBLIC	??_C@_0M@GIOJKEML@glOrthofOES@			; `string'
PUBLIC	??_C@_0CB@HNEEEOLO@glFramebufferTextureMultiviewOV@ ; `string'
PUBLIC	??_C@_09NAIAGCNA@glHintPGI@			; `string'
PUBLIC	??_C@_0BE@LFANIKAN@glDetailTexFuncSGIS@		; `string'
PUBLIC	??_C@_0BH@FDPGCHGM@glGetDetailTexFuncSGIS@	; `string'
PUBLIC	??_C@_0O@PHCIGNOB@glFogFuncSGIS@		; `string'
PUBLIC	??_C@_0BB@HMPIFFOM@glGetFogFuncSGIS@		; `string'
PUBLIC	??_C@_0BB@GOCFHHFO@glSampleMaskSGIS@		; `string'
PUBLIC	??_C@_0BE@FAEHPLE@glSamplePatternSGIS@		; `string'
PUBLIC	??_C@_0BM@IONCOMBH@glPixelTexGenParameteriSGIS@	; `string'
PUBLIC	??_C@_0BN@CBKEKNOO@glPixelTexGenParameterivSGIS@ ; `string'
PUBLIC	??_C@_0BM@HPIEFOMC@glPixelTexGenParameterfSGIS@	; `string'
PUBLIC	??_C@_0BN@NHOMNNAH@glPixelTexGenParameterfvSGIS@ ; `string'
PUBLIC	??_C@_0CA@PNJAFMOI@glGetPixelTexGenParameterivSGIS@ ; `string'
PUBLIC	??_C@_0CA@LNICMAB@glGetPixelTexGenParameterfvSGIS@ ; `string'
PUBLIC	??_C@_0BG@KCKGCIAP@glPointParameterfSGIS@	; `string'
PUBLIC	??_C@_0BH@DCOEEBHM@glPointParameterfvSGIS@	; `string'
PUBLIC	??_C@_0BF@GDCPJFAC@glSharpenTexFuncSGIS@	; `string'
PUBLIC	??_C@_0BI@FJHMDPGB@glGetSharpenTexFuncSGIS@	; `string'
PUBLIC	??_C@_0BB@OAIGGLGK@glTexImage4DSGIS@		; `string'
PUBLIC	??_C@_0BE@GJPODHKF@glTexSubImage4DSGIS@		; `string'
PUBLIC	??_C@_0BH@OLFDEOID@glTextureColorMaskSGIS@	; `string'
PUBLIC	??_C@_0BH@MGKANCAJ@glGetTexFilterFuncSGIS@	; `string'
PUBLIC	??_C@_0BE@CAFLHPGI@glTexFilterFuncSGIS@		; `string'
PUBLIC	??_C@_0BC@JLDLCJGI@glAsyncMarkerSGIX@		; `string'
PUBLIC	??_C@_0BC@GMEFMJNI@glFinishAsyncSGIX@		; `string'
PUBLIC	??_C@_0BA@IDNACLCK@glPollAsyncSGIX@		; `string'
PUBLIC	??_C@_0BG@PKLAHGMH@glGenAsyncMarkersSGIX@	; `string'
PUBLIC	??_C@_0BJ@NPIHNJJD@glDeleteAsyncMarkersSGIX@	; `string'
PUBLIC	??_C@_0BE@CDEIKBGM@glIsAsyncMarkerSGIX@		; `string'
PUBLIC	??_C@_0BC@FBIKHJIB@glFlushRasterSGIX@		; `string'
PUBLIC	??_C@_0BM@BFMPPABB@glFragmentColorMaterialSGIX@	; `string'
PUBLIC	??_C@_0BF@HJPMANHA@glFragmentLightfSGIX@	; `string'
PUBLIC	??_C@_0BG@BNCEEBNO@glFragmentLightfvSGIX@	; `string'
PUBLIC	??_C@_0BF@IIKKLPKF@glFragmentLightiSGIX@	; `string'
PUBLIC	??_C@_0BG@OLGMDBDH@glFragmentLightivSGIX@	; `string'
PUBLIC	??_C@_0BK@HNJEAKMJ@glFragmentLightModelfSGIX@	; `string'
PUBLIC	??_C@_0BL@KPJNCCPB@glFragmentLightModelfvSGIX@	; `string'
PUBLIC	??_C@_0BK@IMMCLIBM@glFragmentLightModeliSGIX@	; `string'
PUBLIC	??_C@_0BL@FJNFFCBI@glFragmentLightModelivSGIX@	; `string'
PUBLIC	??_C@_0BI@HAHPOJNG@glFragmentMaterialfSGIX@	; `string'
PUBLIC	??_C@_0BJ@CCJIMEOH@glFragmentMaterialfvSGIX@	; `string'
PUBLIC	??_C@_0BI@IBCJFLAD@glFragmentMaterialiSGIX@	; `string'
PUBLIC	??_C@_0BJ@NENALEAO@glFragmentMaterialivSGIX@	; `string'
PUBLIC	??_C@_0BJ@MJKFCCJG@glGetFragmentLightfvSGIX@	; `string'
PUBLIC	??_C@_0BJ@DPONFCHP@glGetFragmentLightivSGIX@	; `string'
PUBLIC	??_C@_0BM@IIHOJDJJ@glGetFragmentMaterialfvSGIX@	; `string'
PUBLIC	??_C@_0BM@HODGODHA@glGetFragmentMaterialivSGIX@	; `string'
PUBLIC	??_C@_0BA@POBMLHOD@glLightEnviSGIX@		; `string'
PUBLIC	??_C@_0BA@PPOHIBEA@glFrameZoomSGIX@		; `string'
PUBLIC	??_C@_0BF@NAMGNGLD@glIglooInterfaceSGIX@	; `string'
PUBLIC	??_C@_0BF@LKPHDMAG@glGetInstrumentsSGIX@	; `string'
PUBLIC	??_C@_0BI@KIKHPMBL@glInstrumentsBufferSGIX@	; `string'
PUBLIC	??_C@_0BG@CFFFCPOG@glPollInstrumentsSGIX@	; `string'
PUBLIC	??_C@_0BG@IHDFMCGL@glReadInstrumentsSGIX@	; `string'
PUBLIC	??_C@_0BH@JIOLDBKI@glStartInstrumentsSGIX@	; `string'
PUBLIC	??_C@_0BG@FLIGOOEE@glStopInstrumentsSGIX@	; `string'
PUBLIC	??_C@_0BJ@KNMPNMNG@glGetListParameterfvSGIX@	; `string'
PUBLIC	??_C@_0BJ@FLIHKMDP@glGetListParameterivSGIX@	; `string'
PUBLIC	??_C@_0BF@HIKKINGJ@glListParameterfSGIX@	; `string'
PUBLIC	??_C@_0BG@HJEOLPJO@glListParameterfvSGIX@	; `string'
PUBLIC	??_C@_0BF@IJPMDPLM@glListParameteriSGIX@	; `string'
PUBLIC	??_C@_0BG@IPAGMPHH@glListParameterivSGIX@	; `string'
PUBLIC	??_C@_0BC@GLPIMAMJ@glPixelTexGenSGIX@		; `string'
PUBLIC	??_C@_0BH@PFLEKFEA@glDeformationMap3dSGIX@	; `string'
PUBLIC	??_C@_0BH@LIHMAEEL@glDeformationMap3fSGIX@	; `string'
PUBLIC	??_C@_0N@GCHKMCJI@glDeformSGIX@			; `string'
PUBLIC	??_C@_0CB@HFELNDHH@glLoadIdentityDeformationMapSGI@ ; `string'
PUBLIC	??_C@_0BF@DCBEEABF@glReferencePlaneSGIX@	; `string'
PUBLIC	??_C@_0BH@KJOIMICJ@glSpriteParameterfSGIX@	; `string'
PUBLIC	??_C@_0BI@PEDLMEL@glSpriteParameterfvSGIX@	; `string'
PUBLIC	??_C@_0BH@FILOHKPM@glSpriteParameteriSGIX@	; `string'
PUBLIC	??_C@_0BI@PJALMMKC@glSpriteParameterivSGIX@	; `string'
PUBLIC	??_C@_0BG@LHGDBPGN@glTagSampleBufferSGIX@	; `string'
PUBLIC	??_C@_0BA@FEEAPDAG@glColorTableSGI@		; `string'
PUBLIC	??_C@_0BL@KMHIPHHM@glColorTableParameterfvSGI@	; `string'
PUBLIC	??_C@_0BL@FNCOEFKJ@glColorTableParameterivSGI@	; `string'
PUBLIC	??_C@_0BE@HLHMNBPN@glCopyColorTableSGI@		; `string'
PUBLIC	??_C@_0BD@MJOMLOAF@glGetColorTableSGI@		; `string'
PUBLIC	??_C@_0BO@OIMLMNLF@glGetColorTableParameterfvSGI@ ; `string'
PUBLIC	??_C@_0BO@BJJNHPGA@glGetColorTableParameterivSGI@ ; `string'
PUBLIC	??_C@_0BE@OGKLOACC@glFinishTextureSUNX@		; `string'
PUBLIC	??_C@_0BI@CJNOMBOF@glGlobalAlphaFactorbSUN@	; `string'
PUBLIC	??_C@_0BI@HEFOHPNH@glGlobalAlphaFactorsSUN@	; `string'
PUBLIC	??_C@_0BI@FOAOPAPE@glGlobalAlphaFactoriSUN@	; `string'
PUBLIC	??_C@_0BI@NMFOGHCF@glGlobalAlphaFactorfSUN@	; `string'
PUBLIC	??_C@_0BI@KGJODEEF@glGlobalAlphaFactordSUN@	; `string'
PUBLIC	??_C@_0BJ@JDJBKOF@glGlobalAlphaFactorubSUN@	; `string'
PUBLIC	??_C@_0BJ@FELJKENH@glGlobalAlphaFactorusSUN@	; `string'
PUBLIC	??_C@_0BJ@HOOJCLPE@glGlobalAlphaFactoruiSUN@	; `string'
PUBLIC	??_C@_0BE@MBFJPMLA@glDrawMeshArraysSUN@		; `string'
PUBLIC	??_C@_0BH@NMNJPCLI@glReplacementCodeuiSUN@	; `string'
PUBLIC	??_C@_0BH@PGIJHNJL@glReplacementCodeusSUN@	; `string'
PUBLIC	??_C@_0BH@KLAJMDKJ@glReplacementCodeubSUN@	; `string'
PUBLIC	??_C@_0BI@JHKFDDPO@glReplacementCodeuivSUN@	; `string'
PUBLIC	??_C@_0BI@DFOIBCAD@glReplacementCodeusvSUN@	; `string'
PUBLIC	??_C@_0BI@PNGCMDDN@glReplacementCodeubvSUN@	; `string'
PUBLIC	??_C@_0BM@DAGNLGCG@glReplacementCodePointerSUN@	; `string'
PUBLIC	??_C@_0BG@KONKEIEL@glColor4ubVertex2fSUN@	; `string'
PUBLIC	??_C@_0BH@LDGDJDOC@glColor4ubVertex2fvSUN@	; `string'
PUBLIC	??_C@_0BG@GFIGJLOO@glColor4ubVertex3fSUN@	; `string'
PUBLIC	??_C@_0BH@BFBEJIFG@glColor4ubVertex3fvSUN@	; `string'
PUBLIC	??_C@_0BF@JCNDCOHC@glColor3fVertex3fSUN@	; `string'
PUBLIC	??_C@_0BG@OMFKBCIM@glColor3fVertex3fvSUN@	; `string'
PUBLIC	??_C@_0BG@MHFIDHBN@glNormal3fVertex3fSUN@	; `string'
PUBLIC	??_C@_0BH@DBACOFFM@glNormal3fVertex3fvSUN@	; `string'
PUBLIC	??_C@_0BN@CGOOBIPH@glColor4fNormal3fVertex3fSUN@ ; `string'
PUBLIC	??_C@_0BO@HBDMFIBF@glColor4fNormal3fVertex3fvSUN@ ; `string'
PUBLIC	??_C@_0BI@KMFJNDHD@glTexCoord2fVertex3fSUN@	; `string'
PUBLIC	??_C@_0BJ@JLGDKIOH@glTexCoord2fVertex3fvSUN@	; `string'
PUBLIC	??_C@_0BI@EJJOKIHN@glTexCoord4fVertex4fSUN@	; `string'
PUBLIC	??_C@_0BJ@HMDOECJL@glTexCoord4fVertex4fvSUN@	; `string'
PUBLIC	??_C@_0CA@IJNAOAJK@glTexCoord2fColor4ubVertex3fSUN@ ; `string'
PUBLIC	??_C@_0CB@ECJAHLAI@glTexCoord2fColor4ubVertex3fvSU@ ; `string'
PUBLIC	??_C@_0BP@KHFKHMLD@glTexCoord2fColor3fVertex3fSUN@ ; `string'
PUBLIC	??_C@_0CA@MGJPI@glTexCoord2fColor3fVertex3fvSUN@ ; `string'
PUBLIC	??_C@_0CA@CLAOEMGJ@glTexCoord2fNormal3fVertex3fSUN@ ; `string'
PUBLIC	??_C@_0CB@GGIGAGAC@glTexCoord2fNormal3fVertex3fvSU@ ; `string'
PUBLIC	??_C@_0CH@HENGNFCG@glTexCoord2fColor4fNormal3fVert@ ; `string'
PUBLIC	??_C@_0CI@IALKICJK@glTexCoord2fColor4fNormal3fVert@ ; `string'
PUBLIC	??_C@_0CH@PILCDFAH@glTexCoord4fColor4fNormal3fVert@ ; `string'
PUBLIC	??_C@_0CI@MMFPPGCE@glTexCoord4fColor4fNormal3fVert@ ; `string'
PUBLIC	??_C@_0BP@OOKKBMNP@glReplacementCodeuiVertex3fSUN@ ; `string'
PUBLIC	??_C@_0CA@EEEBLEOL@glReplacementCodeuiVertex3fvSUN@ ; `string'
PUBLIC	??_C@_0CH@PPFCJNKF@glReplacementCodeuiColor4ubVert@ ; `string'
PUBLIC	??_C@_0CI@PEIANEEI@glReplacementCodeuiColor4ubVert@ ; `string'
PUBLIC	??_C@_0CG@PJGGNDPD@glReplacementCodeuiColor3fVerte@ ; `string'
PUBLIC	??_C@_0CH@HGIOBEMH@glReplacementCodeuiColor3fVerte@ ; `string'
PUBLIC	??_C@_0CH@FNIMDBFG@glReplacementCodeuiNormal3fVert@ ; `string'
PUBLIC	??_C@_0CI@NAJGKJEC@glReplacementCodeuiNormal3fVert@ ; `string'
PUBLIC	??_C@_0CO@BIDDACDA@glReplacementCodeuiColor4fNorma@ ; `string'
PUBLIC	??_C@_0CP@HEACNCBM@glReplacementCodeuiColor4fNorma@ ; `string'
PUBLIC	??_C@_0CJ@FGLHHKFM@glReplacementCodeuiTexCoord2fVe@ ; `string'
PUBLIC	??_C@_0CK@DAEIHLBH@glReplacementCodeuiTexCoord2fVe@ ; `string'
PUBLIC	??_C@_0DB@PHKBJICA@glReplacementCodeuiTexCoord2fNo@ ; `string'
PUBLIC	??_C@_0DC@GJFKFAOC@glReplacementCodeuiTexCoord2fNo@ ; `string'
PUBLIC	??_C@_0DI@LCBPLFND@glReplacementCodeuiTexCoord2fCo@ ; `string'
PUBLIC	??_C@_0DJ@ENKLENGJ@glReplacementCodeuiTexCoord2fCo@ ; `string'
PUBLIC	??_C@_0BE@HEMCDCNJ@GL_3DFX_multisample@		; `string'
PUBLIC	??_C@_0BA@LKKHOHFH@GL_3DFX_tbuffer@		; `string'
PUBLIC	??_C@_0CB@KLJAICC@GL_3DFX_texture_compression_FXT@ ; `string'
PUBLIC	??_C@_0BL@EFAIOBHA@GL_AMD_blend_minmax_factor@	; `string'
PUBLIC	??_C@_0BK@EHJKMCDM@GL_AMD_conservative_depth@	; `string'
PUBLIC	??_C@_0BE@KNLIPKJP@GL_AMD_debug_output@		; `string'
PUBLIC	??_C@_0BM@EDNNFHPA@GL_AMD_depth_clamp_separate@	; `string'
PUBLIC	??_C@_0BK@MMEDHLHD@GL_AMD_draw_buffers_blend@	; `string'
PUBLIC	??_C@_0CI@MBPFAOBA@GL_AMD_framebuffer_multisample_@ ; `string'
PUBLIC	??_C@_0CE@ELDJFDJM@GL_AMD_framebuffer_sample_posit@ ; `string'
PUBLIC	??_C@_0BC@NKIOBNDB@GL_AMD_gcn_shader@		; `string'
PUBLIC	??_C@_0BN@OAEPJMPI@GL_AMD_gpu_shader_half_float@ ; `string'
PUBLIC	??_C@_0BI@BLDLGCPB@GL_AMD_gpu_shader_int16@	; `string'
PUBLIC	??_C@_0BI@CMECBGPG@GL_AMD_gpu_shader_int64@	; `string'
PUBLIC	??_C@_0BM@FMJHGKLI@GL_AMD_interleaved_elements@	; `string'
PUBLIC	??_C@_0BL@PGLIDKCF@GL_AMD_multi_draw_indirect@	; `string'
PUBLIC	??_C@_0BH@NLIAOGBG@GL_AMD_name_gen_delete@	; `string'
PUBLIC	??_C@_0BN@LFJMAOGF@GL_AMD_occlusion_query_event@ ; `string'
PUBLIC	??_C@_0BL@LIFGNDBF@GL_AMD_performance_monitor@	; `string'
PUBLIC	??_C@_0BF@OBCHLGLA@GL_AMD_pinned_memory@	; `string'
PUBLIC	??_C@_0BL@MCHKGHDO@GL_AMD_query_buffer_object@	; `string'
PUBLIC	??_C@_0BI@IMBOAKEN@GL_AMD_sample_positions@	; `string'
PUBLIC	??_C@_0CE@PBNJNIGF@GL_AMD_seamless_cubemap_per_tex@ ; `string'
PUBLIC	??_C@_0CB@PDNEIGOD@GL_AMD_shader_atomic_counter_op@ ; `string'
PUBLIC	??_C@_0BF@OMGNEMCP@GL_AMD_shader_ballot@	; `string'
PUBLIC	??_C@_0CI@PCGLBCAB@GL_AMD_shader_explicit_vertex_p@ ; `string'
PUBLIC	??_C@_0CK@JFAJKLLO@GL_AMD_shader_gpu_shader_half_f@ ; `string'
PUBLIC	??_C@_0CD@MCJDLLHJ@GL_AMD_shader_image_load_store_@ ; `string'
PUBLIC	??_C@_0BN@NIMADLIB@GL_AMD_shader_stencil_export@ ; `string'
PUBLIC	??_C@_0BN@HMKFCOCC@GL_AMD_shader_trinary_minmax@ ; `string'
PUBLIC	??_C@_0BG@DLCNHKJA@GL_AMD_sparse_texture@	; `string'
PUBLIC	??_C@_0CC@NMJBEMDB@GL_AMD_stencil_operation_extend@ ; `string'
PUBLIC	??_C@_0BP@CPAGMGDG@GL_AMD_texture_gather_bias_lod@ ; `string'
PUBLIC	??_C@_0BI@MIJDMHEC@GL_AMD_texture_texture4@	; `string'
PUBLIC	??_C@_0CL@CJBAIOJF@GL_AMD_transform_feedback3_line@ ; `string'
PUBLIC	??_C@_0BL@BFDIEOMC@GL_AMD_transform_feedback4@	; `string'
PUBLIC	??_C@_0BL@JOHGBPIP@GL_AMD_vertex_shader_layer@	; `string'
PUBLIC	??_C@_0CB@JNGJKAIL@GL_AMD_vertex_shader_tessellato@ ; `string'
PUBLIC	??_C@_0CE@CFBMOIJC@GL_AMD_vertex_shader_viewport_i@ ; `string'
PUBLIC	??_C@_0BL@KBHOLKKO@GL_APPLE_aux_depth_stencil@	; `string'
PUBLIC	??_C@_0BI@FCEBBNGN@GL_APPLE_client_storage@	; `string'
PUBLIC	??_C@_0BH@CBAJMICC@GL_APPLE_element_array@	; `string'
PUBLIC	??_C@_0P@NMNHHHAB@GL_APPLE_fence@		; `string'
PUBLIC	??_C@_0BG@MLHOCLGG@GL_APPLE_float_pixels@	; `string'
PUBLIC	??_C@_0BM@CIPCMPNH@GL_APPLE_flush_buffer_range@	; `string'
PUBLIC	??_C@_0BK@KOMLKFPF@GL_APPLE_object_purgeable@	; `string'
PUBLIC	??_C@_0BB@BCCJLPEF@GL_APPLE_rgb_422@		; `string'
PUBLIC	??_C@_0BD@FINGDMIO@GL_APPLE_row_bytes@		; `string'
PUBLIC	??_C@_0BJ@DGHEHAAE@GL_APPLE_specular_vector@	; `string'
PUBLIC	??_C@_0BH@JNFBFMBL@GL_APPLE_texture_range@	; `string'
PUBLIC	??_C@_0BI@OKOIOKAB@GL_APPLE_transform_hint@	; `string'
PUBLIC	??_C@_0BN@JPPPAANH@GL_APPLE_vertex_array_object@ ; `string'
PUBLIC	??_C@_0BM@DFNIEIEJ@GL_APPLE_vertex_array_range@	; `string'
PUBLIC	??_C@_0CD@HOINNAAO@GL_APPLE_vertex_program_evaluat@ ; `string'
PUBLIC	??_C@_0BD@ELEIACHH@GL_APPLE_ycbcr_422@		; `string'
PUBLIC	??_C@_0BJ@EKCAAKBG@GL_ARB_ES2_compatibility@	; `string'
PUBLIC	??_C@_0BL@EMMAHNAP@GL_ARB_ES3_1_compatibility@	; `string'
PUBLIC	??_C@_0BL@GFAIMJPN@GL_ARB_ES3_2_compatibility@	; `string'
PUBLIC	??_C@_0BJ@OEEIJLIH@GL_ARB_ES3_compatibility@	; `string'
PUBLIC	??_C@_0BI@PPKMFHJJ@GL_ARB_arrays_of_arrays@	; `string'
PUBLIC	??_C@_0BF@LBGBLLJA@GL_ARB_base_instance@	; `string'
PUBLIC	??_C@_0BI@FNELAAPJ@GL_ARB_bindless_texture@	; `string'
PUBLIC	??_C@_0BL@HJCIPJMC@GL_ARB_blend_func_extended@	; `string'
PUBLIC	??_C@_0BG@FDMKKDFD@GL_ARB_buffer_storage@	; `string'
PUBLIC	??_C@_0BA@FEEMKBCF@GL_ARB_cl_event@		; `string'
PUBLIC	??_C@_0BL@DOOAPCEA@GL_ARB_clear_buffer_object@	; `string'
PUBLIC	??_C@_0BF@HDHNHFHJ@GL_ARB_clear_texture@	; `string'
PUBLIC	??_C@_0BE@NFGEKHNE@GL_ARB_clip_control@		; `string'
PUBLIC	??_C@_0BK@NPDELCAH@GL_ARB_color_buffer_float@	; `string'
PUBLIC	??_C@_0BF@CJMIIMBG@GL_ARB_compatibility@	; `string'
PUBLIC	??_C@_0CI@CIAMCDD@GL_ARB_compressed_texture_pixel@ ; `string'
PUBLIC	??_C@_0BG@CCENKDIE@GL_ARB_compute_shader@	; `string'
PUBLIC	??_C@_0CD@DFOMJNFO@GL_ARB_compute_variable_group_s@ ; `string'
PUBLIC	??_C@_0CD@LLGIPNHI@GL_ARB_conditional_render_inver@ ; `string'
PUBLIC	??_C@_0BK@MEMKJFPL@GL_ARB_conservative_depth@	; `string'
PUBLIC	??_C@_0BD@IGEHEAFM@GL_ARB_copy_buffer@		; `string'
PUBLIC	??_C@_0BC@IMNLOGMO@GL_ARB_copy_image@		; `string'
PUBLIC	??_C@_0BF@KGJLDEOM@GL_ARB_cull_distance@	; `string'
PUBLIC	??_C@_0BE@OHIPHHMJ@GL_ARB_debug_output@		; `string'
PUBLIC	??_C@_0BK@JKFHPKJF@GL_ARB_depth_buffer_float@	; `string'
PUBLIC	??_C@_0BD@JJEOHKFC@GL_ARB_depth_clamp@		; `string'
PUBLIC	??_C@_0BF@OKLDDGBF@GL_ARB_depth_texture@	; `string'
PUBLIC	??_C@_0BK@FDDJMLN@GL_ARB_derivative_control@	; `string'
PUBLIC	??_C@_0BL@PDNNCIDH@GL_ARB_direct_state_access@	; `string'
PUBLIC	??_C@_0BE@PIDMLBFI@GL_ARB_draw_buffers@		; `string'
PUBLIC	??_C@_0BK@EPBDCMLE@GL_ARB_draw_buffers_blend@	; `string'
PUBLIC	??_C@_0CB@BLEOOCCF@GL_ARB_draw_elements_base_verte@ ; `string'
PUBLIC	??_C@_0BF@OIHOMOBN@GL_ARB_draw_indirect@	; `string'
PUBLIC	??_C@_0BG@PNHOPBOL@GL_ARB_draw_instanced@	; `string'
PUBLIC	??_C@_0BI@LFEBAIDE@GL_ARB_enhanced_layouts@	; `string'
PUBLIC	??_C@_0CA@KNDMFIPG@GL_ARB_explicit_attrib_location@ ; `string'
PUBLIC	??_C@_0CB@FHPCHNPI@GL_ARB_explicit_uniform_locatio@ ; `string'
PUBLIC	??_C@_0CC@FMGHNLMA@GL_ARB_fragment_coord_conventio@ ; `string'
PUBLIC	??_C@_0BP@JOPGEIBH@GL_ARB_fragment_layer_viewport@ ; `string'
PUBLIC	??_C@_0BI@LELAEDDA@GL_ARB_fragment_program@	; `string'
PUBLIC	??_C@_0BP@CFLKPHCH@GL_ARB_fragment_program_shadow@ ; `string'
PUBLIC	??_C@_0BH@MOFIMEJB@GL_ARB_fragment_shader@	; `string'
PUBLIC	??_C@_0CB@MHNHALLG@GL_ARB_fragment_shader_interloc@ ; `string'
PUBLIC	??_C@_0CC@CGMKCMOO@GL_ARB_framebuffer_no_attachmen@ ; `string'
PUBLIC	??_C@_0BK@EJHLNENJ@GL_ARB_framebuffer_object@	; `string'
PUBLIC	??_C@_0BI@EPKNGDDL@GL_ARB_framebuffer_sRGB@	; `string'
PUBLIC	??_C@_0BI@DHMGIOF@GL_ARB_geometry_shader4@	; `string'
PUBLIC	??_C@_0BK@HNPMALLK@GL_ARB_get_program_binary@	; `string'
PUBLIC	??_C@_0BN@IAACIKEI@GL_ARB_get_texture_sub_image@ ; `string'
PUBLIC	??_C@_0BA@DOLDGDCB@GL_ARB_gl_spirv@		; `string'
PUBLIC	??_C@_0BD@PDEHIDCA@GL_ARB_gpu_shader5@		; `string'
PUBLIC	??_C@_0BH@JHCDBEBL@GL_ARB_gpu_shader_fp64@	; `string'
PUBLIC	??_C@_0BI@CNMHMGOB@GL_ARB_gpu_shader_int64@	; `string'
PUBLIC	??_C@_0BI@DMCPNBMK@GL_ARB_half_float_pixel@	; `string'
PUBLIC	??_C@_0BJ@CFLNBBBE@GL_ARB_half_float_vertex@	; `string'
PUBLIC	??_C@_0P@GDHEIIHD@GL_ARB_imaging@		; `string'
PUBLIC	??_C@_0BL@KOLCPNBO@GL_ARB_indirect_parameters@	; `string'
PUBLIC	??_C@_0BI@GEEEIEIJ@GL_ARB_instanced_arrays@	; `string'
PUBLIC	??_C@_0BM@CAEGIJIO@GL_ARB_internalformat_query@	; `string'
PUBLIC	??_C@_0BN@OHFALMNP@GL_ARB_internalformat_query2@ ; `string'
PUBLIC	??_C@_0BK@HKMBDNBJ@GL_ARB_invalidate_subdata@	; `string'
PUBLIC	??_C@_0BM@NDAFEKMA@GL_ARB_map_buffer_alignment@	; `string'
PUBLIC	??_C@_0BI@KIPAKECP@GL_ARB_map_buffer_range@	; `string'
PUBLIC	??_C@_0BG@CILLCDJH@GL_ARB_matrix_palette@	; `string'
PUBLIC	??_C@_0BC@HHGOLJHF@GL_ARB_multi_bind@		; `string'
PUBLIC	??_C@_0BL@PDDLDNGB@GL_ARB_multi_draw_indirect@	; `string'
PUBLIC	??_C@_0BD@PNEOICHK@GL_ARB_multisample@		; `string'
PUBLIC	??_C@_0BE@MEMOPMEA@GL_ARB_multitexture@		; `string'
PUBLIC	??_C@_0BH@NKOBMOPI@GL_ARB_occlusion_query@	; `string'
PUBLIC	??_C@_0BI@FOMMMPJB@GL_ARB_occlusion_query2@	; `string'
PUBLIC	??_C@_0BP@NIOBFMIN@GL_ARB_parallel_shader_compile@ ; `string'
PUBLIC	??_C@_0CB@HBLEHCJL@GL_ARB_pipeline_statistics_quer@ ; `string'
PUBLIC	??_C@_0BL@CHKAOFBM@GL_ARB_pixel_buffer_object@	; `string'
PUBLIC	??_C@_0BI@KJOBMOPB@GL_ARB_point_parameters@	; `string'
PUBLIC	??_C@_0BE@BANNBDJA@GL_ARB_point_sprite@		; `string'
PUBLIC	??_C@_0BM@FIFAJGJE@GL_ARB_polygon_offset_clamp@	; `string'
PUBLIC	??_C@_0BL@PCKOEGBE@GL_ARB_post_depth_coverage@	; `string'
PUBLIC	??_C@_0BP@DBPLPPLA@GL_ARB_program_interface_query@ ; `string'
PUBLIC	??_C@_0BI@NPHNNGHO@GL_ARB_provoking_vertex@	; `string'
PUBLIC	??_C@_0BL@MHPJGAHK@GL_ARB_query_buffer_object@	; `string'
PUBLIC	??_C@_0CF@FPMNBHKM@GL_ARB_robust_buffer_access_beh@ ; `string'
PUBLIC	??_C@_0BC@EOBKJDCM@GL_ARB_robustness@		; `string'
PUBLIC	??_C@_0BM@CEFADLOB@GL_ARB_robustness_isolation@	; `string'
PUBLIC	??_C@_0BI@PPFNMEHA@GL_ARB_sample_locations@	; `string'
PUBLIC	??_C@_0BG@OGBJIDCC@GL_ARB_sample_shading@	; `string'
PUBLIC	??_C@_0BH@CHCPNBIE@GL_ARB_sampler_objects@	; `string'
PUBLIC	??_C@_0BJ@HMEOFOCO@GL_ARB_seamless_cube_map@	; `string'
PUBLIC	??_C@_0CE@JBFBOCKL@GL_ARB_seamless_cubemap_per_tex@ ; `string'
PUBLIC	??_C@_0BP@CCMMHIFB@GL_ARB_separate_shader_objects@ ; `string'
PUBLIC	??_C@_0CB@CMBKMJLH@GL_ARB_shader_atomic_counter_op@ ; `string'
PUBLIC	??_C@_0BO@IIINIEKI@GL_ARB_shader_atomic_counters@ ; `string'
PUBLIC	??_C@_0BF@GOCPIPGD@GL_ARB_shader_ballot@	; `string'
PUBLIC	??_C@_0BL@OPPDFHHK@GL_ARB_shader_bit_encoding@	; `string'
PUBLIC	??_C@_0BE@FNKIALHB@GL_ARB_shader_clock@		; `string'
PUBLIC	??_C@_0BO@LPBAPNPP@GL_ARB_shader_draw_parameters@ ; `string'
PUBLIC	??_C@_0BJ@DOADEEII@GL_ARB_shader_group_vote@	; `string'
PUBLIC	??_C@_0BP@JHNJKEFP@GL_ARB_shader_image_load_store@ ; `string'
PUBLIC	??_C@_0BJ@JOHPBGOA@GL_ARB_shader_image_size@	; `string'
PUBLIC	??_C@_0BG@OLLFAEMA@GL_ARB_shader_objects@	; `string'
PUBLIC	??_C@_0BI@JIOIMFNJ@GL_ARB_shader_precision@	; `string'
PUBLIC	??_C@_0BN@NCLBCBKA@GL_ARB_shader_stencil_export@ ; `string'
PUBLIC	??_C@_0CE@HBCJMOIO@GL_ARB_shader_storage_buffer_ob@ ; `string'
PUBLIC	??_C@_0BJ@EAMBOGJL@GL_ARB_shader_subroutine@	; `string'
PUBLIC	??_C@_0CE@OONEBAFK@GL_ARB_shader_texture_image_sam@ ; `string'
PUBLIC	??_C@_0BK@JGFNKCEO@GL_ARB_shader_texture_lod@	; `string'
PUBLIC	??_C@_0CD@GFLKLCBB@GL_ARB_shader_viewport_layer_ar@ ; `string'
PUBLIC	??_C@_0BM@IABMMANC@GL_ARB_shading_language_100@	; `string'
PUBLIC	??_C@_0CA@HPJCJBNO@GL_ARB_shading_language_420pack@ ; `string'
PUBLIC	??_C@_0CA@DOHJAPBD@GL_ARB_shading_language_include@ ; `string'
PUBLIC	??_C@_0CA@DMILIGJJ@GL_ARB_shading_language_packing@ ; `string'
PUBLIC	??_C@_0O@LPGJHGJB@GL_ARB_shadow@		; `string'
PUBLIC	??_C@_0BG@FOMJHFAK@GL_ARB_shadow_ambient@	; `string'
PUBLIC	??_C@_0BF@MCPOLAFD@GL_ARB_sparse_buffer@	; `string'
PUBLIC	??_C@_0BG@EEMFDFOI@GL_ARB_sparse_texture@	; `string'
PUBLIC	??_C@_0BH@EDOFPLAO@GL_ARB_sparse_texture2@	; `string'
PUBLIC	??_C@_0BM@EOEDFKDE@GL_ARB_sparse_texture_clamp@	; `string'
PUBLIC	??_C@_0BI@ELHBHDFI@GL_ARB_spirv_extensions@	; `string'
PUBLIC	??_C@_0BJ@PHEHMICE@GL_ARB_stencil_texturing@	; `string'
PUBLIC	??_C@_0M@OGKHMI@GL_ARB_sync@			; `string'
PUBLIC	??_C@_0BL@MJOBOBBG@GL_ARB_tessellation_shader@	; `string'
PUBLIC	??_C@_0BH@FNOGDEPL@GL_ARB_texture_barrier@	; `string'
PUBLIC	??_C@_0BM@CBHOGGCB@GL_ARB_texture_border_clamp@	; `string'
PUBLIC	??_C@_0BN@IPJPHCKH@GL_ARB_texture_buffer_object@ ; `string'
PUBLIC	??_C@_0CD@GKFGJBEP@GL_ARB_texture_buffer_object_rg@ ; `string'
PUBLIC	??_C@_0BM@IPNAGCND@GL_ARB_texture_buffer_range@	; `string'
PUBLIC	??_C@_0BL@PEFPCGDJ@GL_ARB_texture_compression@	; `string'
PUBLIC	??_C@_0CA@FGGFKBFK@GL_ARB_texture_compression_bptc@ ; `string'
PUBLIC	??_C@_0CA@PLELFJPO@GL_ARB_texture_compression_rgtc@ ; `string'
PUBLIC	??_C@_0BI@GGDPEJMJ@GL_ARB_texture_cube_map@	; `string'
PUBLIC	??_C@_0BO@GEOPNHJA@GL_ARB_texture_cube_map_array@ ; `string'
PUBLIC	??_C@_0BH@NLEFBDKH@GL_ARB_texture_env_add@	; `string'
PUBLIC	??_C@_0BL@MKOBGLKK@GL_ARB_texture_env_combine@	; `string'
PUBLIC	??_C@_0BM@PEOEMMED@GL_ARB_texture_env_crossbar@	; `string'
PUBLIC	??_C@_0BI@LPMFLNGJ@GL_ARB_texture_env_dot3@	; `string'
PUBLIC	??_C@_0CC@HOPEEMOD@GL_ARB_texture_filter_anisotrop@ ; `string'
PUBLIC	??_C@_0BN@MGHOIDFB@GL_ARB_texture_filter_minmax@ ; `string'
PUBLIC	??_C@_0BF@IMLAOOOI@GL_ARB_texture_float@	; `string'
PUBLIC	??_C@_0BG@NOGBPJOE@GL_ARB_texture_gather@	; `string'
PUBLIC	??_C@_0CE@HPKFBBOA@GL_ARB_texture_mirror_clamp_to_@ ; `string'
PUBLIC	??_C@_0BP@ELHJKLAO@GL_ARB_texture_mirrored_repeat@ ; `string'
PUBLIC	??_C@_0BL@JLKLCCCH@GL_ARB_texture_multisample@	; `string'
PUBLIC	??_C@_0CA@IICOLDCN@GL_ARB_texture_non_power_of_two@ ; `string'
PUBLIC	??_C@_0BM@ILGJDCPP@GL_ARB_texture_query_levels@	; `string'
PUBLIC	??_C@_0BJ@IHKMCACP@GL_ARB_texture_query_lod@	; `string'
PUBLIC	??_C@_0BJ@NKHMPMDJ@GL_ARB_texture_rectangle@	; `string'
PUBLIC	??_C@_0BC@DGGKEDEG@GL_ARB_texture_rg@		; `string'
PUBLIC	??_C@_0BK@GLCDDEKH@GL_ARB_texture_rgb10_a2ui@	; `string'
PUBLIC	??_C@_0BI@HCPOFBOF@GL_ARB_texture_stencil8@	; `string'
PUBLIC	??_C@_0BH@KEOKNPHF@GL_ARB_texture_storage@	; `string'
PUBLIC	??_C@_0CD@EKHGLAOK@GL_ARB_texture_storage_multisam@ ; `string'
PUBLIC	??_C@_0BH@PIGGFCEL@GL_ARB_texture_swizzle@	; `string'
PUBLIC	??_C@_0BE@HCMLPJMK@GL_ARB_texture_view@		; `string'
PUBLIC	??_C@_0BD@HBOIOKNA@GL_ARB_timer_query@		; `string'
PUBLIC	??_C@_0BL@EGOBOOAA@GL_ARB_transform_feedback2@	; `string'
PUBLIC	??_C@_0BL@FPPKNPEB@GL_ARB_transform_feedback3@	; `string'
PUBLIC	??_C@_0CE@HBNDFFCP@GL_ARB_transform_feedback_insta@ ; `string'
PUBLIC	??_C@_0CJ@IBFLJHOL@GL_ARB_transform_feedback_overf@ ; `string'
PUBLIC	??_C@_0BI@OLAKMOK@GL_ARB_transpose_matrix@	; `string'
PUBLIC	??_C@_0BN@GLDJDGLC@GL_ARB_uniform_buffer_object@ ; `string'
PUBLIC	??_C@_0BJ@JBPDEAAE@GL_ARB_vertex_array_bgra@	; `string'
PUBLIC	??_C@_0BL@PNJKGHIL@GL_ARB_vertex_array_object@	; `string'
PUBLIC	??_C@_0BL@KMJMBFGI@GL_ARB_vertex_attrib_64bit@	; `string'
PUBLIC	??_C@_0BN@BGEDEMFB@GL_ARB_vertex_attrib_binding@ ; `string'
PUBLIC	??_C@_0BE@HEPDDKDL@GL_ARB_vertex_blend@		; `string'
PUBLIC	??_C@_0BM@OOMEFFAE@GL_ARB_vertex_buffer_object@	; `string'
PUBLIC	??_C@_0BG@LDHOGOBF@GL_ARB_vertex_program@	; `string'
PUBLIC	??_C@_0BF@GNLBPIJF@GL_ARB_vertex_shader@	; `string'
PUBLIC	??_C@_0CD@MKMCLBCO@GL_ARB_vertex_type_10f_11f_11f_@ ; `string'
PUBLIC	??_C@_0CC@GKEHOMBK@GL_ARB_vertex_type_2_10_10_10_r@ ; `string'
PUBLIC	??_C@_0BG@NIIIOCNH@GL_ARB_viewport_array@	; `string'
PUBLIC	??_C@_0BC@KMCGGFBD@GL_ARB_window_pos@		; `string'
PUBLIC	??_C@_0BE@HFFJHOEC@GL_ATI_draw_buffers@		; `string'
PUBLIC	??_C@_0BF@ECDIFKJP@GL_ATI_element_array@	; `string'
PUBLIC	??_C@_0BG@HDIOEPEI@GL_ATI_envmap_bumpmap@	; `string'
PUBLIC	??_C@_0BH@KOFDLMOM@GL_ATI_fragment_shader@	; `string'
PUBLIC	??_C@_0BJ@JJAIEKEE@GL_ATI_map_object_buffer@	; `string'
PUBLIC	??_C@_0P@FHGLGEEJ@GL_ATI_meminfo@		; `string'
PUBLIC	??_C@_0BK@CPGAJKKO@GL_ATI_pixel_format_float@	; `string'
PUBLIC	??_C@_0BE@JBMJFJLH@GL_ATI_pn_triangles@		; `string'
PUBLIC	??_C@_0BI@MNCDOEAG@GL_ATI_separate_stencil@	; `string'
PUBLIC	??_C@_0BM@FPCKLJJL@GL_ATI_text_fragment_shader@	; `string'
PUBLIC	??_C@_0BM@EMDOGOG@GL_ATI_texture_env_combine3@	; `string'
PUBLIC	??_C@_0BF@HBFPHCFN@GL_ATI_texture_float@	; `string'
PUBLIC	??_C@_0BL@IHPJBFNP@GL_ATI_texture_mirror_once@	; `string'
PUBLIC	??_C@_0BL@JAGLJOLB@GL_ATI_vertex_array_object@	; `string'
PUBLIC	??_C@_0CC@PHCKILMI@GL_ATI_vertex_attrib_array_obje@ ; `string'
PUBLIC	??_C@_0BG@LPKIIILM@GL_ATI_vertex_streams@	; `string'
PUBLIC	??_C@_0BC@BMDKDJNI@GL_EXT_422_pixels@		; `string'
PUBLIC	??_C@_0BJ@MMFDDFIC@GL_EXT_EGL_image_storage@	; `string'
PUBLIC	??_C@_0BA@EJANOJCK@GL_EXT_EGL_sync@		; `string'
PUBLIC	??_C@_0M@JPEEPBL@GL_EXT_abgr@			; `string'
PUBLIC	??_C@_0M@CIIOFPA@GL_EXT_bgra@			; `string'
PUBLIC	??_C@_0BI@FJEJKAHN@GL_EXT_bindable_uniform@	; `string'
PUBLIC	??_C@_0BD@LMOCEJB@GL_EXT_blend_color@		; `string'
PUBLIC	??_C@_0BP@PPPKEOIM@GL_EXT_blend_equation_separate@ ; `string'
PUBLIC	??_C@_0BL@OHIMOMCA@GL_EXT_blend_func_separate@	; `string'
PUBLIC	??_C@_0BG@NIFIPAMG@GL_EXT_blend_logic_op@	; `string'
PUBLIC	??_C@_0BE@CICKIAIK@GL_EXT_blend_minmax@		; `string'
PUBLIC	??_C@_0BG@ILCIGDKH@GL_EXT_blend_subtract@	; `string'
PUBLIC	??_C@_0BI@KLBNPAMK@GL_EXT_clip_volume_hint@	; `string'
PUBLIC	??_C@_0N@JKCDOJMM@GL_EXT_cmyka@			; `string'
PUBLIC	??_C@_0BG@HJLBPDAK@GL_EXT_color_subtable@	; `string'
PUBLIC	??_C@_0BN@LBNKGIPJ@GL_EXT_compiled_vertex_array@ ; `string'
PUBLIC	??_C@_0BD@DBIGFMIC@GL_EXT_convolution@		; `string'
PUBLIC	??_C@_0BI@LOIOLJBM@GL_EXT_coordinate_frame@	; `string'
PUBLIC	??_C@_0BE@DFBNEHNH@GL_EXT_copy_texture@		; `string'
PUBLIC	??_C@_0BD@DJENAAJK@GL_EXT_cull_vertex@		; `string'
PUBLIC	??_C@_0BD@KKBHLOEM@GL_EXT_debug_label@		; `string'
PUBLIC	??_C@_0BE@ELFANBPL@GL_EXT_debug_marker@		; `string'
PUBLIC	??_C@_0BJ@FCDHADKB@GL_EXT_depth_bounds_test@	; `string'
PUBLIC	??_C@_0BL@KMPCDGGG@GL_EXT_direct_state_access@	; `string'
PUBLIC	??_C@_0BF@EAKOOCD@GL_EXT_draw_buffers2@		; `string'
PUBLIC	??_C@_0BG@LGPGBHPD@GL_EXT_draw_instanced@	; `string'
PUBLIC	??_C@_0BL@BBECEKLJ@GL_EXT_draw_range_elements@	; `string'
PUBLIC	??_C@_0BH@MMIDCGAG@GL_EXT_external_buffer@	; `string'
PUBLIC	??_C@_0BB@KKBCECGP@GL_EXT_fog_coord@		; `string'
PUBLIC	??_C@_0BI@HCGEDMJI@GL_EXT_framebuffer_blit@	; `string'
PUBLIC	??_C@_0BP@MBELPLHD@GL_EXT_framebuffer_multisample@ ; `string'
PUBLIC	??_C@_0CL@EFPJBGDJ@GL_EXT_framebuffer_multisample_@ ; `string'
PUBLIC	??_C@_0BK@GDONINOA@GL_EXT_framebuffer_object@	; `string'
PUBLIC	??_C@_0BI@IENPPHKH@GL_EXT_framebuffer_sRGB@	; `string'
PUBLIC	??_C@_0BI@MIAOPMHJ@GL_EXT_geometry_shader4@	; `string'
PUBLIC	??_C@_0BO@JOJLOPAH@GL_EXT_gpu_program_parameters@ ; `string'
PUBLIC	??_C@_0BD@MHBCPECK@GL_EXT_gpu_shader4@		; `string'
PUBLIC	??_C@_0BB@NIOJPLHJ@GL_EXT_histogram@		; `string'
PUBLIC	??_C@_0BL@LBKCKHHF@GL_EXT_index_array_formats@	; `string'
PUBLIC	??_C@_0BC@DODOKKOA@GL_EXT_index_func@		; `string'
PUBLIC	??_C@_0BG@KIAGJAFD@GL_EXT_index_material@	; `string'
PUBLIC	??_C@_0BF@HBHKOKKI@GL_EXT_index_texture@	; `string'
PUBLIC	??_C@_0BF@COJMPNOE@GL_EXT_light_texture@	; `string'
PUBLIC	??_C@_0BF@HFAFEHHN@GL_EXT_memory_object@	; `string'
PUBLIC	??_C@_0BI@ENNONAPO@GL_EXT_memory_object_fd@	; `string'
PUBLIC	??_C@_0BL@HPLHPOFM@GL_EXT_memory_object_win32@	; `string'
PUBLIC	??_C@_0BG@CJEJOJBO@GL_EXT_misc_attribute@	; `string'
PUBLIC	??_C@_0BJ@BEDGNCEH@GL_EXT_multi_draw_arrays@	; `string'
PUBLIC	??_C@_0BD@NAAAMEDB@GL_EXT_multisample@		; `string'
PUBLIC	??_C@_0CO@OKOJDJGC@GL_EXT_multiview_tessellation_g@ ; `string'
PUBLIC	??_C@_0CF@GPALEFCJ@GL_EXT_multiview_texture_multis@ ; `string'
PUBLIC	??_C@_0BN@LPIOKJLP@GL_EXT_multiview_timer_query@ ; `string'
PUBLIC	??_C@_0BM@EBAGAGKL@GL_EXT_packed_depth_stencil@	; `string'
PUBLIC	??_C@_0BE@BBEIBKND@GL_EXT_packed_float@		; `string'
PUBLIC	??_C@_0BF@INPHAL@GL_EXT_packed_pixels@		; `string'
PUBLIC	??_C@_0BI@OJEGBCEK@GL_EXT_paletted_texture@	; `string'
PUBLIC	??_C@_0BL@HIIPPLEN@GL_EXT_pixel_buffer_object@	; `string'
PUBLIC	??_C@_0BH@GFMFFLC@GL_EXT_pixel_transform@	; `string'
PUBLIC	??_C@_0CD@HMHELBCP@GL_EXT_pixel_transform_color_ta@ ; `string'
PUBLIC	??_C@_0BI@GCJDFKGN@GL_EXT_point_parameters@	; `string'
PUBLIC	??_C@_0BG@GEKEEJAM@GL_EXT_polygon_offset@	; `string'
PUBLIC	??_C@_0BM@EEGDNIOI@GL_EXT_polygon_offset_clamp@	; `string'
PUBLIC	??_C@_0BL@KNIBFIEF@GL_EXT_post_depth_coverage@	; `string'
PUBLIC	??_C@_0BI@BEAPECOC@GL_EXT_provoking_vertex@	; `string'
PUBLIC	??_C@_0BK@GLODIHMN@GL_EXT_raster_multisample@	; `string'
PUBLIC	??_C@_0BG@MLFGMAPO@GL_EXT_rescale_normal@	; `string'
PUBLIC	??_C@_0BH@DLNOEEKJ@GL_EXT_secondary_color@	; `string'
PUBLIC	??_C@_0BB@LJFONNPO@GL_EXT_semaphore@		; `string'
PUBLIC	??_C@_0BE@NJLKJPAH@GL_EXT_semaphore_fd@		; `string'
PUBLIC	??_C@_0BH@PIJMEABM@GL_EXT_semaphore_win32@	; `string'
PUBLIC	??_C@_0BP@KOANOKOE@GL_EXT_separate_shader_objects@ ; `string'
PUBLIC	??_C@_0BP@CMBLOBPA@GL_EXT_separate_specular_color@ ; `string'
PUBLIC	??_C@_0CA@LNGLFGJK@GL_EXT_shader_framebuffer_fetch@ ; `string'
PUBLIC	??_C@_0CN@GKMNEMKO@GL_EXT_shader_framebuffer_fetch@ ; `string'
PUBLIC	??_C@_0CD@DEHDKDKM@GL_EXT_shader_image_load_format@ ; `string'
PUBLIC	??_C@_0BP@BLBIDGOK@GL_EXT_shader_image_load_store@ ; `string'
PUBLIC	??_C@_0BK@HEKIMGCC@GL_EXT_shader_integer_mix@	; `string'
PUBLIC	??_C@_0CA@PMFKFHLB@GL_EXT_shader_samples_identical@ ; `string'
PUBLIC	??_C@_0BE@GGNPMCKJ@GL_EXT_shadow_funcs@		; `string'
PUBLIC	??_C@_0BO@IIBPGOJH@GL_EXT_shared_texture_palette@ ; `string'
PUBLIC	??_C@_0BH@FAMCOLLO@GL_EXT_sparse_texture2@	; `string'
PUBLIC	??_C@_0BJ@DIMHMNPE@GL_EXT_stencil_clear_tag@	; `string'
PUBLIC	??_C@_0BI@CPMDBHLG@GL_EXT_stencil_two_side@	; `string'
PUBLIC	??_C@_0BE@LFGLIENC@GL_EXT_stencil_wrap@		; `string'
PUBLIC	??_C@_0BC@CLMEPFHP@GL_EXT_subtexture@		; `string'
PUBLIC	??_C@_0P@ECGABOAK@GL_EXT_texture@		; `string'
PUBLIC	??_C@_0BB@LCNIEGEB@GL_EXT_texture3D@		; `string'
PUBLIC	??_C@_0BF@NFIKFJJJ@GL_EXT_texture_array@	; `string'
PUBLIC	??_C@_0BN@NGDAHMPO@GL_EXT_texture_buffer_object@ ; `string'
PUBLIC	??_C@_0CA@LKHHKJFA@GL_EXT_texture_compression_latc@ ; `string'
PUBLIC	??_C@_0CA@EAMMNPGP@GL_EXT_texture_compression_rgtc@ ; `string'
PUBLIC	??_C@_0CA@DJMDGOCK@GL_EXT_texture_compression_s3tc@ ; `string'
PUBLIC	??_C@_0BI@KNENNNFF@GL_EXT_texture_cube_map@	; `string'
PUBLIC	??_C@_0BH@MIGCADBH@GL_EXT_texture_env_add@	; `string'
PUBLIC	??_C@_0BL@JFMOHFPL@GL_EXT_texture_env_combine@	; `string'
PUBLIC	??_C@_0BI@HELHCJPF@GL_EXT_texture_env_dot3@	; `string'
PUBLIC	??_C@_0CC@BCHFGKCK@GL_EXT_texture_filter_anisotrop@ ; `string'
PUBLIC	??_C@_0BN@JPNBINAI@GL_EXT_texture_filter_minmax@ ; `string'
PUBLIC	??_C@_0BH@BKFJHEI@GL_EXT_texture_integer@	; `string'
PUBLIC	??_C@_0BI@KEEAJGDF@GL_EXT_texture_lod_bias@	; `string'
PUBLIC	??_C@_0BM@EKJOCDLJ@GL_EXT_texture_mirror_clamp@	; `string'
PUBLIC	??_C@_0BG@FPPPAJDP@GL_EXT_texture_object@	; `string'
PUBLIC	??_C@_0BO@MGIKHAJP@GL_EXT_texture_perturb_normal@ ; `string'
PUBLIC	??_C@_0BE@OFNKIPHM@GL_EXT_texture_sRGB@		; `string'
PUBLIC	??_C@_0BH@GMDPHHEO@GL_EXT_texture_sRGB_R8@	; `string'
PUBLIC	??_C@_0BI@NJDKMAHG@GL_EXT_texture_sRGB_RG8@	; `string'
PUBLIC	??_C@_0BL@KHIPMLAD@GL_EXT_texture_sRGB_decode@	; `string'
PUBLIC	??_C@_0BK@PKMFBACM@GL_EXT_texture_shadow_lod@	; `string'
PUBLIC	??_C@_0BP@HHNAOEFE@GL_EXT_texture_shared_exponent@ ; `string'
PUBLIC	??_C@_0BF@KMDJMFLE@GL_EXT_texture_snorm@	; `string'
PUBLIC	??_C@_0BH@LHMNMPMF@GL_EXT_texture_storage@	; `string'
PUBLIC	??_C@_0BH@OLEBECPL@GL_EXT_texture_swizzle@	; `string'
PUBLIC	??_C@_0BD@FMKGKMJL@GL_EXT_timer_query@		; `string'
PUBLIC	??_C@_0BK@GKBBHBBG@GL_EXT_transform_feedback@	; `string'
PUBLIC	??_C@_0BE@PFGKPDCP@GL_EXT_vertex_array@		; `string'
PUBLIC	??_C@_0BJ@GIIBONPP@GL_EXT_vertex_array_bgra@	; `string'
PUBLIC	??_C@_0BL@PDLDALDJ@GL_EXT_vertex_attrib_64bit@	; `string'
PUBLIC	??_C@_0BF@OBIDKHLA@GL_EXT_vertex_shader@	; `string'
PUBLIC	??_C@_0BI@FHAFAFPN@GL_EXT_vertex_weighting@	; `string'
PUBLIC	??_C@_0BJ@KGHCCHFC@GL_EXT_win32_keyed_mutex@	; `string'
PUBLIC	??_C@_0BJ@HKAGNECI@GL_EXT_window_rectangles@	; `string'
PUBLIC	??_C@_0BH@KPBHOHAF@GL_EXT_x11_sync_object@	; `string'
PUBLIC	??_C@_0BM@IIPBBPMG@GL_GREMEDY_frame_terminator@	; `string'
PUBLIC	??_C@_0BJ@MCEHFJIH@GL_GREMEDY_string_marker@	; `string'
PUBLIC	??_C@_0BP@NPGEDPGJ@GL_HP_convolution_border_modes@ ; `string'
PUBLIC	??_C@_0BG@DEGPKEAF@GL_HP_image_transform@	; `string'
PUBLIC	??_C@_0BF@FBOKPIHP@GL_HP_occlusion_test@	; `string'
PUBLIC	??_C@_0BH@CDOAECOM@GL_HP_texture_lighting@	; `string'
PUBLIC	??_C@_0BD@HFOGPCCH@GL_IBM_cull_vertex@		; `string'
PUBLIC	??_C@_0BN@JOBNCFH@GL_IBM_multimode_draw_arrays@	; `string'
PUBLIC	??_C@_0BG@OFHNGGEN@GL_IBM_rasterpos_clip@	; `string'
PUBLIC	??_C@_0BD@IHLAMDEK@GL_IBM_static_data@		; `string'
PUBLIC	??_C@_0BP@JFEILOCJ@GL_IBM_texture_mirrored_repeat@ ; `string'
PUBLIC	??_C@_0BK@MBNOECMK@GL_IBM_vertex_array_lists@	; `string'
PUBLIC	??_C@_0BM@IBLPOJLK@GL_INGR_blend_func_separate@	; `string'
PUBLIC	??_C@_0BE@LBGOEBKG@GL_INGR_color_clamp@		; `string'
PUBLIC	??_C@_0BH@JHPNMIIP@GL_INGR_interlace_read@	; `string'
PUBLIC	??_C@_0BK@PMOOLEJA@GL_INTEL_blackhole_render@	; `string'
PUBLIC	??_C@_0CE@BPLKKEKN@GL_INTEL_conservative_rasteriza@ ; `string'
PUBLIC	??_C@_0CC@LEDLFNEA@GL_INTEL_fragment_shader_orderi@ ; `string'
PUBLIC	??_C@_0BK@GOFHDBAL@GL_INTEL_framebuffer_CMAA@	; `string'
PUBLIC	??_C@_0BF@FDAEHEHG@GL_INTEL_map_texture@	; `string'
PUBLIC	??_C@_0BJ@LDMGHMAI@GL_INTEL_parallel_arrays@	; `string'
PUBLIC	??_C@_0BL@ONHEKAPC@GL_INTEL_performance_query@	; `string'
PUBLIC	??_C@_0BP@LAOJMLJD@GL_KHR_blend_equation_advanced@ ; `string'
PUBLIC	??_C@_0CI@BKIMHFLF@GL_KHR_blend_equation_advanced_@ ; `string'
PUBLIC	??_C@_0BN@FNDGKECA@GL_KHR_context_flush_control@ ; `string'
PUBLIC	??_C@_0N@EMKBAJC@GL_KHR_debug@			; `string'
PUBLIC	??_C@_0BA@DGNMOCLG@GL_KHR_no_error@		; `string'
PUBLIC	??_C@_0BP@DNJJFOHK@GL_KHR_parallel_shader_compile@ ; `string'
PUBLIC	??_C@_0CF@CMDIPHFF@GL_KHR_robust_buffer_access_beh@ ; `string'
PUBLIC	??_C@_0BC@CJJHKOBH@GL_KHR_robustness@		; `string'
PUBLIC	??_C@_0BH@DPOJKGDP@GL_KHR_shader_subgroup@	; `string'
PUBLIC	??_C@_0CE@GOHKANGN@GL_KHR_texture_compression_astc@ ; `string'
PUBLIC	??_C@_0CE@OBBIJKDK@GL_KHR_texture_compression_astc@ ; `string'
PUBLIC	??_C@_0CK@HFHBHIBP@GL_KHR_texture_compression_astc@ ; `string'
PUBLIC	??_C@_0BH@NGEPILKE@GL_MESAX_texture_stack@	; `string'
PUBLIC	??_C@_0BL@ICBENKBG@GL_MESA_framebuffer_flip_x@	; `string'
PUBLIC	??_C@_0BL@JLAPOLFH@GL_MESA_framebuffer_flip_y@	; `string'
PUBLIC	??_C@_0BM@LHHKBGCC@GL_MESA_framebuffer_swap_xy@	; `string'
PUBLIC	??_C@_0BE@KBNHNMI@GL_MESA_pack_invert@		; `string'
PUBLIC	??_C@_0BP@CJJPBIMK@GL_MESA_program_binary_formats@ ; `string'
PUBLIC	??_C@_0BH@BJFHALJP@GL_MESA_resize_buffers@	; `string'
PUBLIC	??_C@_0CB@NHNKMEHA@GL_MESA_shader_integer_function@ ; `string'
PUBLIC	??_C@_0BK@DOPFGNC@GL_MESA_tile_raster_order@	; `string'
PUBLIC	??_C@_0BD@GECBEGOD@GL_MESA_window_pos@		; `string'
PUBLIC	??_C@_0BG@FJHFIHCP@GL_MESA_ycbcr_texture@	; `string'
PUBLIC	??_C@_0DC@LGECAAME@GL_NVX_blend_equation_advanced_@ ; `string'
PUBLIC	??_C@_0BK@KKCPFBIB@GL_NVX_conditional_render@	; `string'
PUBLIC	??_C@_0BH@PLDKIMGD@GL_NVX_gpu_memory_info@	; `string'
PUBLIC	??_C@_0BG@LIOCEGD@GL_NVX_gpu_multicast2@	; `string'
PUBLIC	??_C@_0BM@OGOBCLGJ@GL_NVX_linked_gpu_multicast@	; `string'
PUBLIC	??_C@_0BG@OKPMJDPO@GL_NVX_progress_fence@	; `string'
PUBLIC	??_C@_0CH@BCGAPLPH@GL_NV_alpha_to_coverage_dither_@ ; `string'
PUBLIC	??_C@_0CD@PLNLDNIA@GL_NV_bindless_multi_draw_indir@ ; `string'
PUBLIC	??_C@_0CJ@BKKBMEAG@GL_NV_bindless_multi_draw_indir@ ; `string'
PUBLIC	??_C@_0BH@CMMMAADP@GL_NV_bindless_texture@	; `string'
PUBLIC	??_C@_0BO@CKBJMIKO@GL_NV_blend_equation_advanced@ ; `string'
PUBLIC	??_C@_0CH@JDPOFKCP@GL_NV_blend_equation_advanced_c@ ; `string'
PUBLIC	??_C@_0BK@KGHFBKDE@GL_NV_blend_minmax_factor@	; `string'
PUBLIC	??_C@_0BD@BLFKGBAP@GL_NV_blend_square@		; `string'
PUBLIC	??_C@_0BL@LAJPDOAL@GL_NV_clip_space_w_scaling@	; `string'
PUBLIC	??_C@_0BD@IGNGHEKN@GL_NV_command_list@		; `string'
PUBLIC	??_C@_0BH@BBLILMGF@GL_NV_compute_program5@	; `string'
PUBLIC	??_C@_0CB@MLDJDDFJ@GL_NV_compute_shader_derivative@ ; `string'
PUBLIC	??_C@_0BJ@JHPMACKB@GL_NV_conditional_render@	; `string'
PUBLIC	??_C@_0BK@BLLAEBE@GL_NV_conservative_raster@	; `string'
PUBLIC	??_C@_0CB@JPIFCGOB@GL_NV_conservative_raster_dilat@ ; `string'
PUBLIC	??_C@_0CD@ONHGEGCL@GL_NV_conservative_raster_pre_s@ ; `string'
PUBLIC	??_C@_0CN@BILLGIMK@GL_NV_conservative_raster_pre_s@ ; `string'
PUBLIC	??_C@_0CK@EPAMDMFF@GL_NV_conservative_raster_under@ ; `string'
PUBLIC	??_C@_0BK@IGFAMMKB@GL_NV_copy_depth_to_color@	; `string'
PUBLIC	??_C@_0BB@JCABNKHL@GL_NV_copy_image@		; `string'
PUBLIC	??_C@_0BF@CEMDMNFF@GL_NV_deep_texture3D@	; `string'
PUBLIC	??_C@_0BJ@HPHPLNK@GL_NV_depth_buffer_float@	; `string'
PUBLIC	??_C@_0BC@CCFLOHGN@GL_NV_depth_clamp@		; `string'
PUBLIC	??_C@_0BD@PMJGGINL@GL_NV_draw_texture@		; `string'
PUBLIC	??_C@_0BI@KLBEDMIG@GL_NV_draw_vulkan_image@	; `string'
PUBLIC	??_C@_0BB@CCCLGBFE@GL_NV_evaluators@		; `string'
PUBLIC	??_C@_0BL@DEECKFDI@GL_NV_explicit_multisample@	; `string'
PUBLIC	??_C@_0M@CIFPEFJ@GL_NV_fence@			; `string'
PUBLIC	??_C@_0BF@HINJJEKN@GL_NV_fill_rectangle@	; `string'
PUBLIC	??_C@_0BD@JIMCHLAF@GL_NV_float_buffer@		; `string'
PUBLIC	??_C@_0BD@LAKIKKLE@GL_NV_fog_distance@		; `string'
PUBLIC	??_C@_0CB@PBLCOHGE@GL_NV_fragment_coverage_to_colo@ ; `string'
PUBLIC	??_C@_0BH@MFDHEDPG@GL_NV_fragment_program@	; `string'
PUBLIC	??_C@_0BI@LJGLDEBL@GL_NV_fragment_program2@	; `string'
PUBLIC	??_C@_0BI@OPDBJDJN@GL_NV_fragment_program4@	; `string'
PUBLIC	??_C@_0BO@NEKDOJJG@GL_NV_fragment_program_option@ ; `string'
PUBLIC	??_C@_0CC@LDMNKALP@GL_NV_fragment_shader_barycentr@ ; `string'
PUBLIC	??_C@_0CA@IBMFHLGM@GL_NV_fragment_shader_interlock@ ; `string'
PUBLIC	??_C@_0CA@OEFMOHFK@GL_NV_framebuffer_mixed_samples@ ; `string'
PUBLIC	??_C@_0CH@JNDGDHFA@GL_NV_framebuffer_multisample_c@ ; `string'
PUBLIC	??_C@_0BI@OIGDMHOE@GL_NV_geometry_program4@	; `string'
PUBLIC	??_C@_0BH@HCPLGICD@GL_NV_geometry_shader4@	; `string'
PUBLIC	??_C@_0CC@NOHELHJI@GL_NV_geometry_shader_passthrou@ ; `string'
PUBLIC	??_C@_0BE@NMKPGKIK@GL_NV_gpu_multicast@		; `string'
PUBLIC	??_C@_0BD@MGPEHICC@GL_NV_gpu_program4@		; `string'
PUBLIC	??_C@_0BD@NPOPEJGD@GL_NV_gpu_program5@		; `string'
PUBLIC	??_C@_0CA@KLFOEKPC@GL_NV_gpu_program5_mem_extended@ ; `string'
PUBLIC	??_C@_0BC@EIFCBOBP@GL_NV_gpu_shader5@		; `string'
PUBLIC	??_C@_0BB@DLDLEMJK@GL_NV_half_float@		; `string'
PUBLIC	??_C@_0CC@JDEMGGLH@GL_NV_internalformat_sample_que@ ; `string'
PUBLIC	??_C@_0BJ@LEONBEFL@GL_NV_light_max_exponent@	; `string'
PUBLIC	??_C@_0BI@LCEGLOMJ@GL_NV_memory_attachment@	; `string'
PUBLIC	??_C@_0BL@GGMLLNHN@GL_NV_memory_object_sparse@	; `string'
PUBLIC	??_C@_0BC@IICJGM@GL_NV_mesh_shader@		; `string'
PUBLIC	??_C@_0BL@GPGMPJDG@GL_NV_multisample_coverage@	; `string'
PUBLIC	??_C@_0BO@CFHIAJML@GL_NV_multisample_filter_hint@ ; `string'
PUBLIC	??_C@_0BG@OMGEIBLM@GL_NV_occlusion_query@	; `string'
PUBLIC	??_C@_0BL@FNNDLGCL@GL_NV_packed_depth_stencil@	; `string'
PUBLIC	??_C@_0BO@BBOEIKNL@GL_NV_parameter_buffer_object@ ; `string'
PUBLIC	??_C@_0BP@PMGALLKH@GL_NV_parameter_buffer_object2@ ; `string'
PUBLIC	??_C@_0BF@NDCNPPLL@GL_NV_path_rendering@	; `string'
PUBLIC	??_C@_0CB@FFIJHPNJ@GL_NV_path_rendering_shared_edg@ ; `string'
PUBLIC	??_C@_0BH@OCDMKOAK@GL_NV_pixel_data_range@	; `string'
PUBLIC	??_C@_0BD@KGAACLDA@GL_NV_point_sprite@		; `string'
PUBLIC	??_C@_0BE@FOMHCOKE@GL_NV_present_video@		; `string'
PUBLIC	??_C@_0BI@PBNGCPPL@GL_NV_primitive_restart@	; `string'
PUBLIC	??_C@_0BN@KBMDKFHJ@GL_NV_primitive_shading_rate@ ; `string'
PUBLIC	??_C@_0BF@NHADGPIF@GL_NV_query_resource@	; `string'
PUBLIC	??_C@_0BJ@JHCBONAG@GL_NV_query_resource_tag@	; `string'
PUBLIC	??_C@_0BJ@LJODJOAI@GL_NV_register_combiners@	; `string'
PUBLIC	??_C@_0BK@ODBCDPNN@GL_NV_register_combiners2@	; `string'
PUBLIC	??_C@_0CD@ILDOPFGE@GL_NV_representative_fragment_t@ ; `string'
PUBLIC	??_C@_0CE@FOBHKPIL@GL_NV_robustness_video_memory_p@ ; `string'
PUBLIC	??_C@_0BH@IONKMELG@GL_NV_sample_locations@	; `string'
PUBLIC	??_C@_0CE@DEABOHFP@GL_NV_sample_mask_override_cove@ ; `string'
PUBLIC	??_C@_0BI@HDKCCHJB@GL_NV_scissor_exclusive@	; `string'
PUBLIC	??_C@_0BN@GKIBPFOE@GL_NV_shader_atomic_counters@ ; `string'
PUBLIC	??_C@_0BK@INPEFALF@GL_NV_shader_atomic_float@	; `string'
PUBLIC	??_C@_0BM@GJBFOMCI@GL_NV_shader_atomic_float64@	; `string'
PUBLIC	??_C@_0CA@JACPCAKB@GL_NV_shader_atomic_fp16_vector@ ; `string'
PUBLIC	??_C@_0BK@BIPABGKO@GL_NV_shader_atomic_int64@	; `string'
PUBLIC	??_C@_0BJ@NKIPKBCI@GL_NV_shader_buffer_load@	; `string'
PUBLIC	??_C@_0BK@DACBAGJF@GL_NV_shader_buffer_store@	; `string'
PUBLIC	??_C@_0CD@CNLBHGJA@GL_NV_shader_storage_buffer_obj@ ; `string'
PUBLIC	??_C@_0CC@PCBMMOMO@GL_NV_shader_subgroup_partition@ ; `string'
PUBLIC	??_C@_0BP@BBOJDDOA@GL_NV_shader_texture_footprint@ ; `string'
PUBLIC	??_C@_0BK@IBKJLDNG@GL_NV_shader_thread_group@	; `string'
PUBLIC	??_C@_0BM@BHGNJEBN@GL_NV_shader_thread_shuffle@	; `string'
PUBLIC	??_C@_0BJ@PBHAGHLE@GL_NV_shading_rate_image@	; `string'
PUBLIC	??_C@_0BM@IGAKOJAB@GL_NV_stereo_view_rendering@	; `string'
PUBLIC	??_C@_0BM@PJBMHOC@GL_NV_tessellation_program5@	; `string'
PUBLIC	??_C@_0BE@JNJEBIKN@GL_NV_texgen_emboss@		; `string'
PUBLIC	??_C@_0BI@IEIPMLHJ@GL_NV_texgen_reflection@	; `string'
PUBLIC	??_C@_0BG@GLGDHLLP@GL_NV_texture_barrier@	; `string'
PUBLIC	??_C@_0BO@KAKHKEJP@GL_NV_texture_compression_vtc@ ; `string'
PUBLIC	??_C@_0BL@INAFKGJG@GL_NV_texture_env_combine4@	; `string'
PUBLIC	??_C@_0BM@PKADNNLC@GL_NV_texture_expand_normal@	; `string'
PUBLIC	??_C@_0BK@HNFFNOCH@GL_NV_texture_multisample@	; `string'
PUBLIC	??_C@_0BI@KIAKBMLM@GL_NV_texture_rectangle@	; `string'
PUBLIC	??_C@_0CD@IJHHALLB@GL_NV_texture_rectangle_compres@ ; `string'
PUBLIC	??_C@_0BF@OCMAFBB@GL_NV_texture_shader@		; `string'
PUBLIC	??_C@_0BG@IHMOFIIG@GL_NV_texture_shader2@	; `string'
PUBLIC	??_C@_0BG@JONFGJMH@GL_NV_texture_shader3@	; `string'
PUBLIC	??_C@_0BJ@KIPHKJBO@GL_NV_timeline_semaphore@	; `string'
PUBLIC	??_C@_0BJ@NNCHCJGA@GL_NV_transform_feedback@	; `string'
PUBLIC	??_C@_0BK@KABPBCAA@GL_NV_transform_feedback2@	; `string'
PUBLIC	??_C@_0CE@BFBFCDGO@GL_NV_uniform_buffer_unified_me@ ; `string'
PUBLIC	??_C@_0BE@BKAPOLJH@GL_NV_vdpau_interop@		; `string'
PUBLIC	??_C@_0BF@IDABFNHN@GL_NV_vdpau_interop2@	; `string'
PUBLIC	??_C@_0BJ@BAACMKFK@GL_NV_vertex_array_range@	; `string'
PUBLIC	??_C@_0BK@GGNOOOFB@GL_NV_vertex_array_range2@	; `string'
PUBLIC	??_C@_0CC@JDEBDKAE@GL_NV_vertex_attrib_integer_64b@ ; `string'
PUBLIC	??_C@_0CD@MJBDICNG@GL_NV_vertex_buffer_unified_mem@ ; `string'
PUBLIC	??_C@_0BF@DFHLNMLP@GL_NV_vertex_program@	; `string'
PUBLIC	??_C@_0BI@MNHCGKEE@GL_NV_vertex_program1_1@	; `string'
PUBLIC	??_C@_0BG@LGJLIBLA@GL_NV_vertex_program2@	; `string'
PUBLIC	??_C@_0BN@GDAFGLIP@GL_NV_vertex_program2_option@ ; `string'
PUBLIC	??_C@_0BG@KPIALAPB@GL_NV_vertex_program3@	; `string'
PUBLIC	??_C@_0BG@OAMBCGDG@GL_NV_vertex_program4@	; `string'
PUBLIC	??_C@_0BE@MNGNEBEC@GL_NV_video_capture@		; `string'
PUBLIC	??_C@_0BG@MDJKNEKA@GL_NV_viewport_array2@	; `string'
PUBLIC	??_C@_0BH@KIIPEHLA@GL_NV_viewport_swizzle@	; `string'
PUBLIC	??_C@_0BI@NHHEDEOP@GL_OES_byte_coordinates@	; `string'
PUBLIC	??_C@_0CD@DGCCJINL@GL_OES_compressed_paletted_text@ ; `string'
PUBLIC	??_C@_0BD@OFIMJHDA@GL_OES_fixed_point@		; `string'
PUBLIC	??_C@_0BE@FGGBOOAI@GL_OES_query_matrix@		; `string'
PUBLIC	??_C@_0BD@CHNKPBKI@GL_OES_read_format@		; `string'
PUBLIC	??_C@_0BI@PHJBAGMB@GL_OES_single_precision@	; `string'
PUBLIC	??_C@_0BB@KIEELBPO@GL_OML_interlace@		; `string'
PUBLIC	??_C@_0BA@JFICFOLJ@GL_OML_resample@		; `string'
PUBLIC	??_C@_0BB@FDFMMDGJ@GL_OML_subsample@		; `string'
PUBLIC	??_C@_0BB@KNKGAOKC@GL_OVR_multiview@		; `string'
PUBLIC	??_C@_0BC@NFAFDALL@GL_OVR_multiview2@		; `string'
PUBLIC	??_C@_0BC@JLEDMIGB@GL_PGI_misc_hints@		; `string'
PUBLIC	??_C@_0BE@MMGKEFE@GL_PGI_vertex_hints@		; `string'
PUBLIC	??_C@_0BL@FCLACNMJ@GL_REND_screen_coordinates@	; `string'
PUBLIC	??_C@_0L@LMFIOPIG@GL_S3_s3tc@			; `string'
PUBLIC	??_C@_0BH@PAHCODJ@GL_SGIS_detail_texture@	; `string'
PUBLIC	??_C@_0BF@GPGNHNMN@GL_SGIS_fog_function@	; `string'
PUBLIC	??_C@_0BI@MOOJOJFP@GL_SGIS_generate_mipmap@	; `string'
PUBLIC	??_C@_0BE@DFFPCJFF@GL_SGIS_multisample@		; `string'
PUBLIC	??_C@_0BG@DMJAHLAK@GL_SGIS_pixel_texture@	; `string'
PUBLIC	??_C@_0BK@ENABMDEB@GL_SGIS_point_line_texgen@	; `string'
PUBLIC	??_C@_0BJ@GONNHMCB@GL_SGIS_point_parameters@	; `string'
PUBLIC	??_C@_0BI@FOOBIIJK@GL_SGIS_sharpen_texture@	; `string'
PUBLIC	??_C@_0BC@IBDHHBNP@GL_SGIS_texture4D@		; `string'
PUBLIC	??_C@_0BN@LHADNLCK@GL_SGIS_texture_border_clamp@ ; `string'
PUBLIC	??_C@_0BL@MCNCLCJA@GL_SGIS_texture_color_mask@	; `string'
PUBLIC	??_C@_0BL@JOCOPCOL@GL_SGIS_texture_edge_clamp@	; `string'
PUBLIC	??_C@_0BI@ECFJGEJI@GL_SGIS_texture_filter4@	; `string'
PUBLIC	??_C@_0BE@OINMPKHO@GL_SGIS_texture_lod@		; `string'
PUBLIC	??_C@_0BH@DCBOJIEA@GL_SGIS_texture_select@	; `string'
PUBLIC	??_C@_0O@LIMJCCBB@GL_SGIX_async@		; `string'
PUBLIC	??_C@_0BI@HLJGOPMC@GL_SGIX_async_histogram@	; `string'
PUBLIC	??_C@_0BE@NAMBIHMO@GL_SGIX_async_pixel@		; `string'
PUBLIC	??_C@_0BL@EIBFJLIA@GL_SGIX_blend_alpha_minmax@	; `string'
PUBLIC	??_C@_0BO@DCMIKEBB@GL_SGIX_calligraphic_fragment@ ; `string'
PUBLIC	??_C@_0BA@PPJLFMN@GL_SGIX_clipmap@		; `string'
PUBLIC	??_C@_0BN@JKOOPNJD@GL_SGIX_convolution_accuracy@ ; `string'
PUBLIC	??_C@_0BO@FCNOGMIO@GL_SGIX_depth_pass_instrument@ ; `string'
PUBLIC	??_C@_0BG@ODHAJHLE@GL_SGIX_depth_texture@	; `string'
PUBLIC	??_C@_0BF@NDINOOPD@GL_SGIX_flush_raster@	; `string'
PUBLIC	??_C@_0BD@KPKPFAII@GL_SGIX_fog_offset@		; `string'
PUBLIC	??_C@_0BK@FJJJALCN@GL_SGIX_fragment_lighting@	; `string'
PUBLIC	??_C@_0BC@PCFJKPCF@GL_SGIX_framezoom@		; `string'
PUBLIC	??_C@_0BI@LHAAEKNC@GL_SGIX_igloo_interface@	; `string'
PUBLIC	??_C@_0BE@JJMLEEGD@GL_SGIX_instruments@		; `string'
PUBLIC	??_C@_0BC@JOHNGALL@GL_SGIX_interlace@		; `string'
PUBLIC	??_C@_0BH@BKBFADJM@GL_SGIX_ir_instrument1@	; `string'
PUBLIC	??_C@_0BG@ICADFLAC@GL_SGIX_list_priority@	; `string'
PUBLIC	??_C@_0BG@GGELFALH@GL_SGIX_pixel_texture@	; `string'
PUBLIC	??_C@_0BE@DGCCNBBN@GL_SGIX_pixel_tiles@		; `string'
PUBLIC	??_C@_0BH@PNEACOBI@GL_SGIX_polynomial_ffd@	; `string'
PUBLIC	??_C@_0BI@LDFBLACJ@GL_SGIX_reference_plane@	; `string'
PUBLIC	??_C@_0BB@KPBJONBD@GL_SGIX_resample@		; `string'
PUBLIC	??_C@_0BH@DAJFKGFO@GL_SGIX_scalebias_hint@	; `string'
PUBLIC	??_C@_0P@KFBBLMBN@GL_SGIX_shadow@		; `string'
PUBLIC	??_C@_0BH@PPBBCFNF@GL_SGIX_shadow_ambient@	; `string'
PUBLIC	??_C@_0P@PHDJDFCG@GL_SGIX_sprite@		; `string'
PUBLIC	??_C@_0BC@GFGFBCCM@GL_SGIX_subsample@		; `string'
PUBLIC	??_C@_0BK@DEFLGOMM@GL_SGIX_tag_sample_buffer@	; `string'
PUBLIC	??_C@_0BI@FJKNJEME@GL_SGIX_texture_add_env@	; `string'
PUBLIC	??_C@_0CB@DEFOJPBA@GL_SGIX_texture_coordinate_clam@ ; `string'
PUBLIC	??_C@_0BJ@CPJCLFF@GL_SGIX_texture_lod_bias@	; `string'
PUBLIC	??_C@_0BN@KIBAKNBJ@GL_SGIX_texture_multi_buffer@ ; `string'
PUBLIC	??_C@_0BL@CPBAAPMN@GL_SGIX_texture_scale_bias@	; `string'
PUBLIC	??_C@_0BH@HAEKGGE@GL_SGIX_vertex_preclip@	; `string'
PUBLIC	??_C@_0O@PBGOBAHG@GL_SGIX_ycrcb@		; `string'
PUBLIC	??_C@_0BI@MDMPKKOA@GL_SGIX_ycrcb_subsample@	; `string'
PUBLIC	??_C@_0P@MFHBOAPP@GL_SGIX_ycrcba@		; `string'
PUBLIC	??_C@_0BE@GJNJGEBC@GL_SGI_color_matrix@		; `string'
PUBLIC	??_C@_0BD@GKNOIPPL@GL_SGI_color_table@		; `string'
PUBLIC	??_C@_0BL@OJFHNLAL@GL_SGI_texture_color_table@	; `string'
PUBLIC	??_C@_0BG@EJHFCACO@GL_SUNX_constant_data@	; `string'
PUBLIC	??_C@_0CA@PKECLOJO@GL_SUN_convolution_border_modes@ ; `string'
PUBLIC	??_C@_0BE@IJMMGMJE@GL_SUN_global_alpha@		; `string'
PUBLIC	??_C@_0BC@PNDFDGDE@GL_SUN_mesh_array@		; `string'
PUBLIC	??_C@_0BD@EKCHDFKA@GL_SUN_slice_accum@		; `string'
PUBLIC	??_C@_0BF@JCOGPNNJ@GL_SUN_triangle_list@	; `string'
PUBLIC	??_C@_0O@FOOLPMFL@GL_SUN_vertex@		; `string'
PUBLIC	??_C@_0BF@CGJHJCNI@GL_WIN_phong_shading@	; `string'
PUBLIC	??_C@_0BE@IHNEDPNH@GL_WIN_specular_fog@		; `string'
PUBLIC	??_C@_0O@ENGHJHNB@OpenGL?5ES?9CM?5@		; `string'
PUBLIC	??_C@_0O@EMKFPNOG@OpenGL?5ES?9CL?5@		; `string'
PUBLIC	??_C@_0L@JLFHOCGA@OpenGL?5ES?5@			; `string'
PUBLIC	??_C@_05KBEOJPB@?$CFd?4?$CFd@			; `string'
PUBLIC	GLAD_GL_EXT_multisample
PUBLIC	GLAD_GL_NV_shader_buffer_load
PUBLIC	GLAD_GL_ARB_vertex_array_object
PUBLIC	GLAD_GL_EXT_debug_marker
PUBLIC	GLAD_GL_ARB_vertex_attrib_binding
PUBLIC	GLAD_GL_AMD_sample_positions
PUBLIC	GLAD_GL_EXT_framebuffer_multisample
PUBLIC	glad_glTextureImage2DEXT
PUBLIC	GLAD_GL_NV_conditional_render
PUBLIC	GLAD_GL_NV_gpu_multicast
PUBLIC	glad_glGetIntegerv
PUBLIC	GLAD_GL_SGIX_igloo_interface
PUBLIC	GLAD_GL_SUN_vertex
PUBLIC	GLAD_GL_VERSION_4_6
PUBLIC	GLAD_GL_ARB_gpu_shader_int64
PUBLIC	GLAD_GL_ARB_draw_instanced
PUBLIC	GLAD_GL_ARB_vertex_buffer_object
PUBLIC	GLAD_GL_VERSION_1_5
PUBLIC	GLAD_GL_NV_occlusion_query
PUBLIC	GLAD_GL_ARB_base_instance
PUBLIC	GLAD_GL_ARB_shading_language_include
PUBLIC	GLAD_GL_EXT_blend_minmax
PUBLIC	GLAD_GL_EXT_direct_state_access
PUBLIC	glad_glGetProgramInfoLog
PUBLIC	GLAD_GL_EXT_semaphore
PUBLIC	GLAD_GL_ARB_compute_shader
PUBLIC	GLAD_GL_ARB_texture_multisample
PUBLIC	GLAD_GL_ARB_vertex_program
PUBLIC	glad_glCompileShader
PUBLIC	GLAD_GL_SGIX_reference_plane
PUBLIC	GLAD_GL_NVX_linked_gpu_multicast
PUBLIC	GLAD_GL_EXT_semaphore_fd
PUBLIC	GLAD_GL_EXT_texture_integer
PUBLIC	glad_glGetProgramiv
PUBLIC	GLAD_GL_GREMEDY_string_marker
PUBLIC	GLAD_GL_ARB_invalidate_subdata
PUBLIC	GLAD_GL_NV_evaluators
PUBLIC	GLAD_GL_EXT_light_texture
PUBLIC	GLAD_GL_APPLE_object_purgeable
PUBLIC	glad_glUniform1i
PUBLIC	GLAD_GL_SGIX_tag_sample_buffer
PUBLIC	GLAD_GL_EXT_window_rectangles
PUBLIC	GLAD_GL_VERSION_4_3
PUBLIC	GLAD_GL_NV_gpu_program5
PUBLIC	GLAD_GL_VERSION_3_3
PUBLIC	GLAD_GL_EXT_polygon_offset_clamp
PUBLIC	GLAD_GL_ARB_robustness
PUBLIC	GLAD_GL_EXT_shader_image_load_store
PUBLIC	GLAD_GL_MESA_resize_buffers
PUBLIC	GLAD_GL_NV_texture_multisample
PUBLIC	GLAD_GL_VERSION_1_1
PUBLIC	glad_glShaderSource
PUBLIC	GLAD_GL_AMD_framebuffer_multisample_advanced
PUBLIC	GLAD_GL_VERSION_3_2
PUBLIC	GLAD_GL_NV_bindless_multi_draw_indirect
PUBLIC	GLAD_GL_ARB_sampler_objects
PUBLIC	glad_glVertexAttribPointer
PUBLIC	GLAD_GL_SGI_color_table
PUBLIC	GLAD_GL_APPLE_flush_buffer_range
PUBLIC	GLAD_GL_OES_fixed_point
PUBLIC	GLAD_GL_ARB_debug_output
PUBLIC	GLAD_GL_ATI_vertex_streams
PUBLIC	GLAD_GL_VERSION_4_4
PUBLIC	GLAD_GL_AMD_occlusion_query_event
PUBLIC	GLAD_GL_NV_gpu_program4
PUBLIC	GLAD_GL_VERSION_2_1
PUBLIC	GLAD_GL_EXT_copy_texture
PUBLIC	GLAD_GL_NV_query_resource_tag
PUBLIC	GLAD_GL_ARB_clear_buffer_object
PUBLIC	GLAD_GL_EXT_stencil_clear_tag
PUBLIC	GLAD_GL_ARB_texture_storage_multisample
PUBLIC	GLAD_GL_EXT_convolution
PUBLIC	GLAD_GL_EXT_blend_equation_separate
PUBLIC	GLAD_GL_AMD_debug_output
PUBLIC	GLAD_GL_ARB_texture_view
PUBLIC	GLAD_GL_APPLE_element_array
PUBLIC	GLAD_GL_AMD_interleaved_elements
PUBLIC	GLAD_GL_EXT_texture_buffer_object
PUBLIC	GLAD_GL_KHR_parallel_shader_compile
PUBLIC	GLAD_GL_ARB_get_program_binary
PUBLIC	GLAD_GL_ARB_map_buffer_range
PUBLIC	GLAD_GL_NV_fence
PUBLIC	GLAD_GL_EXT_polygon_offset
PUBLIC	GLAD_GL_ARB_direct_state_access
PUBLIC	GLAD_GL_NV_framebuffer_mixed_samples
PUBLIC	glad_glEnable
PUBLIC	GLAD_GL_ARB_geometry_shader4
PUBLIC	GLAD_GL_NV_conservative_raster_dilate
PUBLIC	GLAD_GL_AMD_multi_draw_indirect
PUBLIC	GLAD_GL_ARB_timer_query
PUBLIC	GLAD_GL_SUNX_constant_data
PUBLIC	GLAD_GL_EXT_blend_color
PUBLIC	GLAD_GL_EXT_texture_storage
PUBLIC	GLAD_GL_AMD_performance_monitor
PUBLIC	GLAD_GL_NV_fragment_coverage_to_color
PUBLIC	GLAD_GL_NV_scissor_exclusive
PUBLIC	GLAD_GL_NV_transform_feedback2
PUBLIC	GLAD_GL_SGIS_texture_color_mask
PUBLIC	GLAD_GL_ARB_vertex_attrib_64bit
PUBLIC	GLAD_GL_PGI_misc_hints
PUBLIC	GLAD_GL_HP_image_transform
PUBLIC	GLAD_GL_SGIX_pixel_texture
PUBLIC	GLAD_GL_EXT_vertex_weighting
PUBLIC	GLAD_GL_OVR_multiview
PUBLIC	GLAD_GL_EXT_win32_keyed_mutex
PUBLIC	GLAD_GL_ARB_copy_buffer
PUBLIC	GLAD_GL_AMD_sparse_texture
PUBLIC	GLAD_GL_ARB_matrix_palette
PUBLIC	GLAD_GL_ARB_transform_feedback_instanced
PUBLIC	glad_glDrawArrays
PUBLIC	GLAD_GL_ARB_transform_feedback2
PUBLIC	glad_glDeleteProgram
PUBLIC	GLAD_GL_APPLE_fence
PUBLIC	GLAD_GL_ARB_texture_buffer_object
PUBLIC	GLAD_GL_EXT_texture_array
PUBLIC	GLAD_GL_NV_clip_space_w_scaling
PUBLIC	GLAD_GL_ATI_fragment_shader
PUBLIC	glad_glGenVertexArrays
PUBLIC	glad_glObjectLabel
PUBLIC	GLAD_GL_ARB_internalformat_query2
PUBLIC	GLAD_GL_VERSION_4_0
PUBLIC	GLAD_GL_SGIS_sharpen_texture
PUBLIC	GLAD_GL_ARB_shader_storage_buffer_object
PUBLIC	GLAD_GL_SGIX_instruments
PUBLIC	GLAD_GL_EXT_raster_multisample
PUBLIC	GLAD_GL_INTEL_map_texture
PUBLIC	GLAD_GL_EXT_framebuffer_object
PUBLIC	GLAD_GL_ATI_envmap_bumpmap
PUBLIC	GLAD_GL_EXT_debug_label
PUBLIC	glad_glBufferData
PUBLIC	GLAD_GL_ARB_framebuffer_no_attachments
PUBLIC	GLAD_GL_NV_parameter_buffer_object
PUBLIC	glad_glTexParameteri
PUBLIC	GLAD_GL_ARB_cl_event
PUBLIC	GLAD_GL_SGIX_flush_raster
PUBLIC	GLAD_GL_ATI_separate_stencil
PUBLIC	GLAD_GL_NV_timeline_semaphore
PUBLIC	GLAD_GL_OES_byte_coordinates
PUBLIC	GLAD_GL_ARB_imaging
PUBLIC	GLAD_GL_NV_blend_equation_advanced
PUBLIC	GLAD_GL_ATI_pn_triangles
PUBLIC	GLAD_GL_ARB_indirect_parameters
PUBLIC	GLAD_GL_NV_vdpau_interop
PUBLIC	GLAD_GL_NV_memory_attachment
PUBLIC	GLAD_GL_ARB_provoking_vertex
PUBLIC	GLAD_GL_NV_vertex_program4
PUBLIC	GLAD_GL_EXT_bindable_uniform
PUBLIC	GLAD_GL_ARB_copy_image
PUBLIC	GLAD_GL_EXT_index_material
PUBLIC	GLAD_GL_NV_vertex_attrib_integer_64bit
PUBLIC	GLAD_GL_ARB_shader_objects
PUBLIC	GLAD_GL_SGIX_list_priority
PUBLIC	glad_glDrawBuffer
PUBLIC	GLAD_GL_EXT_timer_query
PUBLIC	GLAD_GL_NV_conservative_raster_pre_snap_triangles
PUBLIC	glad_glCreateTextures
PUBLIC	GLAD_GL_SGIX_framezoom
PUBLIC	GLAD_GL_NV_vertex_program
PUBLIC	GLAD_GL_AMD_vertex_shader_tessellator
PUBLIC	GLAD_GL_NV_video_capture
PUBLIC	GLAD_GL_KHR_blend_equation_advanced
PUBLIC	glad_glCreateShader
PUBLIC	GLAD_GL_NV_bindless_texture
PUBLIC	GLAD_GL_EXT_depth_bounds_test
PUBLIC	GLAD_GL_VERSION_3_1
PUBLIC	GLAD_GL_KHR_debug
PUBLIC	glad_glTextureParameteri
PUBLIC	GLAD_GL_SGIX_fragment_lighting
PUBLIC	GLAD_GL_EXT_stencil_two_side
PUBLIC	GLAD_GL_ARB_transpose_matrix
PUBLIC	GLAD_GL_NV_copy_image
PUBLIC	GLAD_GL_3DFX_tbuffer
PUBLIC	GLAD_GL_EXT_draw_range_elements
PUBLIC	GLAD_GL_ARB_transform_feedback3
PUBLIC	GLAD_GL_NV_conservative_raster
PUBLIC	glad_glCheckFramebufferStatus
PUBLIC	GLAD_GL_EXT_cull_vertex
PUBLIC	GLAD_GL_ARB_vertex_type_2_10_10_10_rev
PUBLIC	GLAD_GL_SGIS_detail_texture
PUBLIC	GLAD_GL_IBM_multimode_draw_arrays
PUBLIC	glad_glFinish
PUBLIC	GLAD_GL_VERSION_1_4
PUBLIC	GLAD_GL_IBM_static_data
PUBLIC	GLAD_GL_EXT_fog_coord
PUBLIC	GLAD_GL_ARB_gpu_shader_fp64
PUBLIC	GLAD_GL_VERSION_2_0
PUBLIC	GLAD_GL_NV_shading_rate_image
PUBLIC	GLAD_GL_ARB_parallel_shader_compile
PUBLIC	GLAD_GL_INTEL_parallel_arrays
PUBLIC	GLAD_GL_ARB_compute_variable_group_size
PUBLIC	GLAD_GL_AMD_stencil_operation_extended
PUBLIC	glad_glPolygonOffset
PUBLIC	glad_glClear
PUBLIC	GLAD_GL_SGIS_point_parameters
PUBLIC	GLAD_GL_AMD_gpu_shader_int64
PUBLIC	GLAD_GL_INTEL_framebuffer_CMAA
PUBLIC	GLAD_GL_NV_alpha_to_coverage_dither_control
PUBLIC	GLAD_GL_VERSION_1_0
PUBLIC	GLAD_GL_EXT_separate_shader_objects
PUBLIC	GLAD_GL_ATI_draw_buffers
PUBLIC	GLAD_GL_NV_draw_vulkan_image
PUBLIC	GLAD_GL_KHR_robustness
PUBLIC	GLAD_GL_ATI_vertex_array_object
PUBLIC	glad_glDisable
PUBLIC	GLAD_GL_ARB_tessellation_shader
PUBLIC	glad_glClearColor
PUBLIC	GLAD_GL_IBM_vertex_array_lists
PUBLIC	GLAD_GL_ARB_draw_elements_base_vertex
PUBLIC	GLAD_GL_ARB_clear_texture
PUBLIC	GLAD_GL_NV_geometry_program4
PUBLIC	glad_glGenTextures
PUBLIC	GLAD_GL_ARB_uniform_buffer_object
PUBLIC	GLAD_GL_VERSION_4_5
PUBLIC	GLAD_GL_NV_vdpau_interop2
PUBLIC	GLAD_GL_NV_fragment_program
PUBLIC	GLAD_GL_EXT_histogram
PUBLIC	GLAD_GL_ARB_texture_buffer_range
PUBLIC	GLAD_GL_ARB_texture_storage
PUBLIC	GLAD_GL_MESA_framebuffer_flip_y
PUBLIC	glad_glRenderbufferStorage
PUBLIC	GLAD_GL_ARB_shader_subroutine
PUBLIC	GLAD_GL_EXT_blend_func_separate
PUBLIC	GLAD_GL_ARB_program_interface_query
PUBLIC	GLAD_GL_NV_framebuffer_multisample_coverage
PUBLIC	glad_glGetShaderInfoLog
PUBLIC	GLAD_GL_ARB_window_pos
PUBLIC	GLAD_GL_ARB_sparse_buffer
PUBLIC	GLAD_GL_ARB_multisample
PUBLIC	GLAD_GL_NV_pixel_data_range
PUBLIC	GLAD_GL_EXT_geometry_shader4
PUBLIC	GLAD_GL_NV_path_rendering
PUBLIC	GLAD_GL_ARB_vertex_blend
PUBLIC	GLAD_GL_ARB_texture_barrier
PUBLIC	GLAD_GL_SGIX_async
PUBLIC	GLAD_GL_ARB_sample_shading
PUBLIC	GLAD_GL_ARB_sync
PUBLIC	GLAD_GL_EXT_multi_draw_arrays
PUBLIC	GLAD_GL_EXT_texture_perturb_normal
PUBLIC	GLAD_GL_ATI_map_object_buffer
PUBLIC	GLAD_GL_ARB_multi_draw_indirect
PUBLIC	glad_glBindVertexArray
PUBLIC	glad_glEnableVertexAttribArray
PUBLIC	GLAD_GL_NV_vertex_array_range
PUBLIC	GLAD_GL_EXT_texture_object
PUBLIC	GLAD_GL_NV_viewport_swizzle
PUBLIC	GLAD_GL_EXT_memory_object_fd
PUBLIC	GLAD_GL_MESA_window_pos
PUBLIC	glad_glGetShaderiv
PUBLIC	GLAD_GL_VERSION_1_3
PUBLIC	glad_glUniform2fv
PUBLIC	GLAD_GL_ARB_multitexture
PUBLIC	glad_glVertexAttribDivisor
PUBLIC	GLAD_GL_EXT_gpu_program_parameters
PUBLIC	glad_glCreateProgram
PUBLIC	GLAD_GL_NV_query_resource
PUBLIC	glad_glBindFramebuffer
PUBLIC	GLAD_GL_EXT_transform_feedback
PUBLIC	GLAD_GL_SUN_triangle_list
PUBLIC	GLAD_GL_NV_mesh_shader
PUBLIC	GLAD_GL_SGIS_fog_function
PUBLIC	GLAD_GL_EXT_framebuffer_blit
PUBLIC	GLAD_GL_ARB_fragment_program
PUBLIC	GLAD_GL_NV_command_list
PUBLIC	GLAD_GL_ARB_sparse_texture
PUBLIC	GLAD_GL_EXT_paletted_texture
PUBLIC	GLAD_GL_EXT_index_func
PUBLIC	GLAD_GL_SGIS_texture4D
PUBLIC	GLAD_GL_EXT_compiled_vertex_array
PUBLIC	GLAD_GL_ARB_framebuffer_object
PUBLIC	GLAD_GL_ARB_color_buffer_float
PUBLIC	GLAD_GL_EXT_shader_framebuffer_fetch_non_coherent
PUBLIC	GLAD_GL_APPLE_vertex_array_object
PUBLIC	GLAD_GL_ATI_element_array
PUBLIC	GLAD_GL_EXT_memory_object_win32
PUBLIC	GLAD_GL_ARB_shader_image_load_store
PUBLIC	GLAD_GL_ARB_ES3_1_compatibility
PUBLIC	GLAD_GL_NVX_gpu_multicast2
PUBLIC	glad_glUniformMatrix4fv
PUBLIC	GLAD_GL_ARB_vertex_shader
PUBLIC	glad_glUseProgram
PUBLIC	GLAD_GL_INGR_blend_func_separate
PUBLIC	GLAD_GL_VERSION_4_2
PUBLIC	GLAD_GL_ARB_instanced_arrays
PUBLIC	glad_glTexImage2D
PUBLIC	GLAD_GL_ARB_clip_control
PUBLIC	GLAD_GL_NV_internalformat_sample_query
PUBLIC	GLAD_GL_EXT_point_parameters
PUBLIC	GLAD_GL_ARB_separate_shader_objects
PUBLIC	GLAD_GL_EXT_external_buffer
PUBLIC	GLAD_GL_ARB_shader_atomic_counters
PUBLIC	GLAD_GL_NV_explicit_multisample
PUBLIC	GLAD_GL_ARB_ES2_compatibility
PUBLIC	GLAD_GL_EXT_EGL_image_storage
PUBLIC	GLAD_GL_OES_query_matrix
PUBLIC	glad_glGenBuffers
PUBLIC	GLAD_GL_NV_gpu_shader5
PUBLIC	GLAD_GL_AMD_name_gen_delete
PUBLIC	GLAD_GL_NV_point_sprite
PUBLIC	glad_glDrawElementsInstanced
PUBLIC	GLAD_GL_SGIS_pixel_texture
PUBLIC	glad_glBlendFunc
PUBLIC	GLAD_GL_NV_register_combiners2
PUBLIC	glad_glViewport
PUBLIC	GLVersion
PUBLIC	GLAD_GL_NV_depth_buffer_float
PUBLIC	GLAD_GL_EXT_provoking_vertex
PUBLIC	GLAD_GL_VERSION_4_1
PUBLIC	glad_glBindTexture
PUBLIC	glad_glActiveTexture
PUBLIC	GLAD_GL_NV_half_float
PUBLIC	GLAD_GL_NV_memory_object_sparse
PUBLIC	glad_glBindRenderbuffer
PUBLIC	GLAD_GL_ARB_gl_spirv
PUBLIC	glad_glCullFace
PUBLIC	GLAD_GL_EXT_x11_sync_object
PUBLIC	GLAD_GL_EXT_vertex_shader
PUBLIC	GLAD_GL_NV_present_video
PUBLIC	glad_glGetStringi
PUBLIC	glad_glDeleteShader
PUBLIC	GLAD_GL_OES_single_precision
PUBLIC	GLAD_GL_EXT_texture3D
PUBLIC	GLAD_GL_NV_transform_feedback
PUBLIC	GLAD_GL_ARB_occlusion_query
PUBLIC	glad_glGenFramebuffers
PUBLIC	GLAD_GL_ARB_multi_bind
PUBLIC	GLAD_GL_EXT_vertex_attrib_64bit
PUBLIC	GLAD_GL_EXT_memory_object
PUBLIC	GLAD_GL_EXT_draw_instanced
PUBLIC	GLAD_GL_SGIS_multisample
PUBLIC	GLAD_GL_VERSION_1_2
PUBLIC	GLAD_GL_EXT_gpu_shader4
PUBLIC	glad_glGetUniformLocation
PUBLIC	GLAD_GL_EXT_semaphore_win32
PUBLIC	GLAD_GL_ARB_sample_locations
PUBLIC	GLAD_GL_AMD_framebuffer_sample_positions
PUBLIC	GLAD_GL_ARB_internalformat_query
PUBLIC	GLAD_GL_APPLE_vertex_program_evaluators
PUBLIC	GLAD_GL_NVX_conditional_render
PUBLIC	GLAD_GL_EXT_draw_buffers2
PUBLIC	GLAD_GL_ARB_blend_func_extended
PUBLIC	GLAD_GL_NVX_progress_fence
PUBLIC	GLAD_GL_ARB_polygon_offset_clamp
PUBLIC	GLAD_GL_NV_vertex_buffer_unified_memory
PUBLIC	GLAD_GL_ARB_viewport_array
PUBLIC	GLAD_GL_EXT_pixel_transform
PUBLIC	glad_glGetString
PUBLIC	GLAD_GL_SGIX_polynomial_ffd
PUBLIC	GLAD_GL_NV_bindless_multi_draw_indirect_count
PUBLIC	glad_glBindBuffer
PUBLIC	GLAD_GL_ARB_ES3_2_compatibility
PUBLIC	glad_glFramebufferTexture2D
PUBLIC	GLAD_GL_NV_texture_barrier
PUBLIC	GLAD_GL_ARB_draw_indirect
PUBLIC	GLAD_GL_EXT_color_subtable
PUBLIC	GLAD_GL_EXT_coordinate_frame
PUBLIC	GLAD_GL_ARB_draw_buffers
PUBLIC	glad_glAttachShader
PUBLIC	GLAD_GL_ARB_texture_compression
PUBLIC	GLAD_GL_SGIS_texture_filter4
PUBLIC	GLAD_GL_ARB_bindless_texture
PUBLIC	glad_glUniform1f
PUBLIC	GLAD_GL_VERSION_3_0
PUBLIC	glad_glLinkProgram
PUBLIC	GLAD_GL_ATI_vertex_attrib_array_object
PUBLIC	GLAD_GL_EXT_vertex_array
PUBLIC	GLAD_GL_NV_sample_locations
PUBLIC	glad_glPolygonMode
PUBLIC	glad_glNamedBufferData
PUBLIC	GLAD_GL_EXT_subtexture
PUBLIC	GLAD_GL_ARB_point_parameters
PUBLIC	GLAD_GL_APPLE_texture_range
PUBLIC	GLAD_GL_SUN_global_alpha
PUBLIC	GLAD_GL_NV_primitive_restart
PUBLIC	GLAD_GL_GREMEDY_frame_terminator
PUBLIC	GLAD_GL_APPLE_vertex_array_range
PUBLIC	GLAD_GL_NV_register_combiners
PUBLIC	GLAD_GL_ARB_draw_buffers_blend
PUBLIC	glad_glUniform3fv
PUBLIC	GLAD_GL_AMD_draw_buffers_blend
PUBLIC	GLAD_GL_SUN_mesh_array
PUBLIC	GLAD_GL_NV_draw_texture
PUBLIC	GLAD_GL_EXT_secondary_color
PUBLIC	glad_glReadBuffer
PUBLIC	GLAD_GL_INTEL_performance_query
PUBLIC	GLAD_GL_ARB_buffer_storage
PUBLIC	GLAD_GL_SGIX_sprite
PUBLIC	GLAD_GL_ARB_get_texture_sub_image
PUBLIC	__isa_available_default
EXTRN	__imp_malloc:PROC
EXTRN	__imp___stdio_common_vsscanf:PROC
EXTRN	__imp_strstr:PROC
EXTRN	__imp_FreeLibrary:PROC
EXTRN	__imp_free:PROC
EXTRN	__imp_GetProcAddress:PROC
EXTRN	__imp_LoadLibraryW:PROC
EXTRN	__imp_strncmp:PROC
EXTRN	__security_check_cookie:PROC
GLAD_GL_EXT_multisample DD 01H DUP (?)
GLAD_GL_NV_shader_buffer_load DD 01H DUP (?)
GLAD_GL_ARB_vertex_array_object DD 01H DUP (?)
GLAD_GL_EXT_debug_marker DD 01H DUP (?)
GLAD_GL_ARB_vertex_attrib_binding DD 01H DUP (?)
GLAD_GL_AMD_sample_positions DD 01H DUP (?)
GLAD_GL_EXT_framebuffer_multisample DD 01H DUP (?)
	ALIGN	8

glad_glTextureImage2DEXT DQ 01H DUP (?)
GLAD_GL_NV_conditional_render DD 01H DUP (?)
GLAD_GL_NV_gpu_multicast DD 01H DUP (?)
glad_glGetIntegerv DQ 01H DUP (?)
GLAD_GL_SGIX_igloo_interface DD 01H DUP (?)
GLAD_GL_SUN_vertex DD 01H DUP (?)
GLAD_GL_VERSION_4_6 DD 01H DUP (?)
GLAD_GL_ARB_gpu_shader_int64 DD 01H DUP (?)
GLAD_GL_ARB_draw_instanced DD 01H DUP (?)
GLAD_GL_ARB_vertex_buffer_object DD 01H DUP (?)
GLAD_GL_VERSION_1_5 DD 01H DUP (?)
GLAD_GL_NV_occlusion_query DD 01H DUP (?)
GLAD_GL_ARB_base_instance DD 01H DUP (?)
GLAD_GL_ARB_shading_language_include DD 01H DUP (?)
GLAD_GL_EXT_blend_minmax DD 01H DUP (?)
GLAD_GL_EXT_direct_state_access DD 01H DUP (?)
glad_glGetProgramInfoLog DQ 01H DUP (?)
GLAD_GL_EXT_semaphore DD 01H DUP (?)
GLAD_GL_ARB_compute_shader DD 01H DUP (?)
GLAD_GL_ARB_texture_multisample DD 01H DUP (?)
GLAD_GL_ARB_vertex_program DD 01H DUP (?)
glad_glCompileShader DQ 01H DUP (?)
GLAD_GL_SGIX_reference_plane DD 01H DUP (?)
GLAD_GL_NVX_linked_gpu_multicast DD 01H DUP (?)
GLAD_GL_EXT_semaphore_fd DD 01H DUP (?)
GLAD_GL_EXT_texture_integer DD 01H DUP (?)
glad_glGetProgramiv DQ 01H DUP (?)
GLAD_GL_GREMEDY_string_marker DD 01H DUP (?)
GLAD_GL_ARB_invalidate_subdata DD 01H DUP (?)
GLAD_GL_NV_evaluators DD 01H DUP (?)
GLAD_GL_EXT_light_texture DD 01H DUP (?)
GLAD_GL_APPLE_object_purgeable DD 01H DUP (?)
	ALIGN	8

glad_glUniform1i DQ 01H DUP (?)
GLAD_GL_SGIX_tag_sample_buffer DD 01H DUP (?)
GLAD_GL_EXT_window_rectangles DD 01H DUP (?)
GLAD_GL_VERSION_4_3 DD 01H DUP (?)
GLAD_GL_NV_gpu_program5 DD 01H DUP (?)
GLAD_GL_VERSION_3_3 DD 01H DUP (?)
GLAD_GL_EXT_polygon_offset_clamp DD 01H DUP (?)
GLAD_GL_ARB_robustness DD 01H DUP (?)
GLAD_GL_EXT_shader_image_load_store DD 01H DUP (?)
GLAD_GL_MESA_resize_buffers DD 01H DUP (?)
GLAD_GL_NV_texture_multisample DD 01H DUP (?)
GLAD_GL_VERSION_1_1 DD 01H DUP (?)
	ALIGN	8

glad_glShaderSource DQ 01H DUP (?)
GLAD_GL_AMD_framebuffer_multisample_advanced DD 01H DUP (?)
GLAD_GL_VERSION_3_2 DD 01H DUP (?)
GLAD_GL_NV_bindless_multi_draw_indirect DD 01H DUP (?)
GLAD_GL_ARB_sampler_objects DD 01H DUP (?)
glad_glVertexAttribPointer DQ 01H DUP (?)
GLAD_GL_SGI_color_table DD 01H DUP (?)
GLAD_GL_APPLE_flush_buffer_range DD 01H DUP (?)
GLAD_GL_OES_fixed_point DD 01H DUP (?)
GLAD_GL_ARB_debug_output DD 01H DUP (?)
GLAD_GL_ATI_vertex_streams DD 01H DUP (?)
GLAD_GL_VERSION_4_4 DD 01H DUP (?)
GLAD_GL_AMD_occlusion_query_event DD 01H DUP (?)
GLAD_GL_NV_gpu_program4 DD 01H DUP (?)
GLAD_GL_VERSION_2_1 DD 01H DUP (?)
GLAD_GL_EXT_copy_texture DD 01H DUP (?)
GLAD_GL_NV_query_resource_tag DD 01H DUP (?)
GLAD_GL_ARB_clear_buffer_object DD 01H DUP (?)
GLAD_GL_EXT_stencil_clear_tag DD 01H DUP (?)
GLAD_GL_ARB_texture_storage_multisample DD 01H DUP (?)
GLAD_GL_EXT_convolution DD 01H DUP (?)
GLAD_GL_EXT_blend_equation_separate DD 01H DUP (?)
GLAD_GL_AMD_debug_output DD 01H DUP (?)
GLAD_GL_ARB_texture_view DD 01H DUP (?)
GLAD_GL_APPLE_element_array DD 01H DUP (?)
GLAD_GL_AMD_interleaved_elements DD 01H DUP (?)
GLAD_GL_EXT_texture_buffer_object DD 01H DUP (?)
GLAD_GL_KHR_parallel_shader_compile DD 01H DUP (?)
GLAD_GL_ARB_get_program_binary DD 01H DUP (?)
GLAD_GL_ARB_map_buffer_range DD 01H DUP (?)
GLAD_GL_NV_fence DD 01H DUP (?)
GLAD_GL_EXT_polygon_offset DD 01H DUP (?)
GLAD_GL_ARB_direct_state_access DD 01H DUP (?)
GLAD_GL_NV_framebuffer_mixed_samples DD 01H DUP (?)
glad_glEnable DQ 01H DUP (?)
GLAD_GL_ARB_geometry_shader4 DD 01H DUP (?)
GLAD_GL_NV_conservative_raster_dilate DD 01H DUP (?)
GLAD_GL_AMD_multi_draw_indirect DD 01H DUP (?)
GLAD_GL_ARB_timer_query DD 01H DUP (?)
GLAD_GL_SUNX_constant_data DD 01H DUP (?)
GLAD_GL_EXT_blend_color DD 01H DUP (?)
GLAD_GL_EXT_texture_storage DD 01H DUP (?)
GLAD_GL_AMD_performance_monitor DD 01H DUP (?)
GLAD_GL_NV_fragment_coverage_to_color DD 01H DUP (?)
GLAD_GL_NV_scissor_exclusive DD 01H DUP (?)
GLAD_GL_NV_transform_feedback2 DD 01H DUP (?)
GLAD_GL_SGIS_texture_color_mask DD 01H DUP (?)
GLAD_GL_ARB_vertex_attrib_64bit DD 01H DUP (?)
GLAD_GL_PGI_misc_hints DD 01H DUP (?)
GLAD_GL_HP_image_transform DD 01H DUP (?)
GLAD_GL_SGIX_pixel_texture DD 01H DUP (?)
GLAD_GL_EXT_vertex_weighting DD 01H DUP (?)
GLAD_GL_OVR_multiview DD 01H DUP (?)
GLAD_GL_EXT_win32_keyed_mutex DD 01H DUP (?)
GLAD_GL_ARB_copy_buffer DD 01H DUP (?)
GLAD_GL_AMD_sparse_texture DD 01H DUP (?)
GLAD_GL_ARB_matrix_palette DD 01H DUP (?)
GLAD_GL_ARB_transform_feedback_instanced DD 01H DUP (?)
	ALIGN	8

glad_glDrawArrays DQ 01H DUP (?)
GLAD_GL_ARB_transform_feedback2 DD 01H DUP (?)
	ALIGN	8

glad_glDeleteProgram DQ 01H DUP (?)
GLAD_GL_APPLE_fence DD 01H DUP (?)
GLAD_GL_ARB_texture_buffer_object DD 01H DUP (?)
GLAD_GL_EXT_texture_array DD 01H DUP (?)
GLAD_GL_NV_clip_space_w_scaling DD 01H DUP (?)
GLAD_GL_ATI_fragment_shader DD 01H DUP (?)
	ALIGN	8

glad_glGenVertexArrays DQ 01H DUP (?)
glad_glObjectLabel DQ 01H DUP (?)
GLAD_GL_ARB_internalformat_query2 DD 01H DUP (?)
GLAD_GL_VERSION_4_0 DD 01H DUP (?)
GLAD_GL_SGIS_sharpen_texture DD 01H DUP (?)
GLAD_GL_ARB_shader_storage_buffer_object DD 01H DUP (?)
GLAD_GL_SGIX_instruments DD 01H DUP (?)
GLAD_GL_EXT_raster_multisample DD 01H DUP (?)
GLAD_GL_INTEL_map_texture DD 01H DUP (?)
GLAD_GL_EXT_framebuffer_object DD 01H DUP (?)
GLAD_GL_ATI_envmap_bumpmap DD 01H DUP (?)
GLAD_GL_EXT_debug_label DD 01H DUP (?)
glad_glBufferData DQ 01H DUP (?)
GLAD_GL_ARB_framebuffer_no_attachments DD 01H DUP (?)
GLAD_GL_NV_parameter_buffer_object DD 01H DUP (?)
glad_glTexParameteri DQ 01H DUP (?)
GLAD_GL_ARB_cl_event DD 01H DUP (?)
GLAD_GL_SGIX_flush_raster DD 01H DUP (?)
GLAD_GL_ATI_separate_stencil DD 01H DUP (?)
GLAD_GL_NV_timeline_semaphore DD 01H DUP (?)
GLAD_GL_OES_byte_coordinates DD 01H DUP (?)
GLAD_GL_ARB_imaging DD 01H DUP (?)
GLAD_GL_NV_blend_equation_advanced DD 01H DUP (?)
GLAD_GL_ATI_pn_triangles DD 01H DUP (?)
GLAD_GL_ARB_indirect_parameters DD 01H DUP (?)
GLAD_GL_NV_vdpau_interop DD 01H DUP (?)
GLAD_GL_NV_memory_attachment DD 01H DUP (?)
GLAD_GL_ARB_provoking_vertex DD 01H DUP (?)
GLAD_GL_NV_vertex_program4 DD 01H DUP (?)
GLAD_GL_EXT_bindable_uniform DD 01H DUP (?)
GLAD_GL_ARB_copy_image DD 01H DUP (?)
GLAD_GL_EXT_index_material DD 01H DUP (?)
GLAD_GL_NV_vertex_attrib_integer_64bit DD 01H DUP (?)
GLAD_GL_ARB_shader_objects DD 01H DUP (?)
GLAD_GL_SGIX_list_priority DD 01H DUP (?)
	ALIGN	8

glad_glDrawBuffer DQ 01H DUP (?)
GLAD_GL_EXT_timer_query DD 01H DUP (?)
GLAD_GL_NV_conservative_raster_pre_snap_triangles DD 01H DUP (?)
glad_glCreateTextures DQ 01H DUP (?)
GLAD_GL_SGIX_framezoom DD 01H DUP (?)
GLAD_GL_NV_vertex_program DD 01H DUP (?)
GLAD_GL_AMD_vertex_shader_tessellator DD 01H DUP (?)
GLAD_GL_NV_video_capture DD 01H DUP (?)
GLAD_GL_KHR_blend_equation_advanced DD 01H DUP (?)
	ALIGN	8

glad_glCreateShader DQ 01H DUP (?)
GLAD_GL_NV_bindless_texture DD 01H DUP (?)
GLAD_GL_EXT_depth_bounds_test DD 01H DUP (?)
GLAD_GL_VERSION_3_1 DD 01H DUP (?)
GLAD_GL_KHR_debug DD 01H DUP (?)
glad_glTextureParameteri DQ 01H DUP (?)
GLAD_GL_SGIX_fragment_lighting DD 01H DUP (?)
GLAD_GL_EXT_stencil_two_side DD 01H DUP (?)
GLAD_GL_ARB_transpose_matrix DD 01H DUP (?)
GLAD_GL_NV_copy_image DD 01H DUP (?)
GLAD_GL_3DFX_tbuffer DD 01H DUP (?)
GLAD_GL_EXT_draw_range_elements DD 01H DUP (?)
GLAD_GL_ARB_transform_feedback3 DD 01H DUP (?)
GLAD_GL_NV_conservative_raster DD 01H DUP (?)
glad_glCheckFramebufferStatus DQ 01H DUP (?)
GLAD_GL_EXT_cull_vertex DD 01H DUP (?)
GLAD_GL_ARB_vertex_type_2_10_10_10_rev DD 01H DUP (?)
GLAD_GL_SGIS_detail_texture DD 01H DUP (?)
GLAD_GL_IBM_multimode_draw_arrays DD 01H DUP (?)
glad_glFinish DQ 01H DUP (?)
GLAD_GL_VERSION_1_4 DD 01H DUP (?)
GLAD_GL_IBM_static_data DD 01H DUP (?)
GLAD_GL_EXT_fog_coord DD 01H DUP (?)
GLAD_GL_ARB_gpu_shader_fp64 DD 01H DUP (?)
GLAD_GL_VERSION_2_0 DD 01H DUP (?)
GLAD_GL_NV_shading_rate_image DD 01H DUP (?)
GLAD_GL_ARB_parallel_shader_compile DD 01H DUP (?)
GLAD_GL_INTEL_parallel_arrays DD 01H DUP (?)
GLAD_GL_ARB_compute_variable_group_size DD 01H DUP (?)
GLAD_GL_AMD_stencil_operation_extended DD 01H DUP (?)
glad_glPolygonOffset DQ 01H DUP (?)
glad_glClear DQ	01H DUP (?)
GLAD_GL_SGIS_point_parameters DD 01H DUP (?)
GLAD_GL_AMD_gpu_shader_int64 DD 01H DUP (?)
GLAD_GL_INTEL_framebuffer_CMAA DD 01H DUP (?)
GLAD_GL_NV_alpha_to_coverage_dither_control DD 01H DUP (?)
GLAD_GL_VERSION_1_0 DD 01H DUP (?)
GLAD_GL_EXT_separate_shader_objects DD 01H DUP (?)
GLAD_GL_ATI_draw_buffers DD 01H DUP (?)
GLAD_GL_NV_draw_vulkan_image DD 01H DUP (?)
GLAD_GL_KHR_robustness DD 01H DUP (?)
GLAD_GL_ATI_vertex_array_object DD 01H DUP (?)
glad_glDisable DQ 01H DUP (?)
GLAD_GL_ARB_tessellation_shader DD 01H DUP (?)
	ALIGN	8

glad_glClearColor DQ 01H DUP (?)
GLAD_GL_IBM_vertex_array_lists DD 01H DUP (?)
GLAD_GL_ARB_draw_elements_base_vertex DD 01H DUP (?)
GLAD_GL_ARB_clear_texture DD 01H DUP (?)
GLAD_GL_NV_geometry_program4 DD 01H DUP (?)
glad_glGenTextures DQ 01H DUP (?)
GLAD_GL_ARB_uniform_buffer_object DD 01H DUP (?)
GLAD_GL_VERSION_4_5 DD 01H DUP (?)
GLAD_GL_NV_vdpau_interop2 DD 01H DUP (?)
GLAD_GL_NV_fragment_program DD 01H DUP (?)
GLAD_GL_EXT_histogram DD 01H DUP (?)
GLAD_GL_ARB_texture_buffer_range DD 01H DUP (?)
GLAD_GL_ARB_texture_storage DD 01H DUP (?)
GLAD_GL_MESA_framebuffer_flip_y DD 01H DUP (?)
glad_glRenderbufferStorage DQ 01H DUP (?)
GLAD_GL_ARB_shader_subroutine DD 01H DUP (?)
GLAD_GL_EXT_blend_func_separate DD 01H DUP (?)
GLAD_GL_ARB_program_interface_query DD 01H DUP (?)
GLAD_GL_NV_framebuffer_multisample_coverage DD 01H DUP (?)
glad_glGetShaderInfoLog DQ 01H DUP (?)
GLAD_GL_ARB_window_pos DD 01H DUP (?)
GLAD_GL_ARB_sparse_buffer DD 01H DUP (?)
GLAD_GL_ARB_multisample DD 01H DUP (?)
GLAD_GL_NV_pixel_data_range DD 01H DUP (?)
GLAD_GL_EXT_geometry_shader4 DD 01H DUP (?)
GLAD_GL_NV_path_rendering DD 01H DUP (?)
GLAD_GL_ARB_vertex_blend DD 01H DUP (?)
GLAD_GL_ARB_texture_barrier DD 01H DUP (?)
GLAD_GL_SGIX_async DD 01H DUP (?)
GLAD_GL_ARB_sample_shading DD 01H DUP (?)
GLAD_GL_ARB_sync DD 01H DUP (?)
GLAD_GL_EXT_multi_draw_arrays DD 01H DUP (?)
GLAD_GL_EXT_texture_perturb_normal DD 01H DUP (?)
GLAD_GL_ATI_map_object_buffer DD 01H DUP (?)
GLAD_GL_ARB_multi_draw_indirect DD 01H DUP (?)
	ALIGN	8

glad_glBindVertexArray DQ 01H DUP (?)
glad_glEnableVertexAttribArray DQ 01H DUP (?)
GLAD_GL_NV_vertex_array_range DD 01H DUP (?)
GLAD_GL_EXT_texture_object DD 01H DUP (?)
GLAD_GL_NV_viewport_swizzle DD 01H DUP (?)
GLAD_GL_EXT_memory_object_fd DD 01H DUP (?)
GLAD_GL_MESA_window_pos DD 01H DUP (?)
	ALIGN	8

glad_glGetShaderiv DQ 01H DUP (?)
GLAD_GL_VERSION_1_3 DD 01H DUP (?)
	ALIGN	8

glad_glUniform2fv DQ 01H DUP (?)
GLAD_GL_ARB_multitexture DD 01H DUP (?)
	ALIGN	8

glad_glVertexAttribDivisor DQ 01H DUP (?)
GLAD_GL_EXT_gpu_program_parameters DD 01H DUP (?)
	ALIGN	8

glad_glCreateProgram DQ 01H DUP (?)
GLAD_GL_NV_query_resource DD 01H DUP (?)
	ALIGN	8

glad_glBindFramebuffer DQ 01H DUP (?)
GLAD_GL_EXT_transform_feedback DD 01H DUP (?)
GLAD_GL_SUN_triangle_list DD 01H DUP (?)
GLAD_GL_NV_mesh_shader DD 01H DUP (?)
GLAD_GL_SGIS_fog_function DD 01H DUP (?)
GLAD_GL_EXT_framebuffer_blit DD 01H DUP (?)
GLAD_GL_ARB_fragment_program DD 01H DUP (?)
GLAD_GL_NV_command_list DD 01H DUP (?)
GLAD_GL_ARB_sparse_texture DD 01H DUP (?)
GLAD_GL_EXT_paletted_texture DD 01H DUP (?)
GLAD_GL_EXT_index_func DD 01H DUP (?)
GLAD_GL_SGIS_texture4D DD 01H DUP (?)
GLAD_GL_EXT_compiled_vertex_array DD 01H DUP (?)
GLAD_GL_ARB_framebuffer_object DD 01H DUP (?)
GLAD_GL_ARB_color_buffer_float DD 01H DUP (?)
GLAD_GL_EXT_shader_framebuffer_fetch_non_coherent DD 01H DUP (?)
GLAD_GL_APPLE_vertex_array_object DD 01H DUP (?)
GLAD_GL_ATI_element_array DD 01H DUP (?)
GLAD_GL_EXT_memory_object_win32 DD 01H DUP (?)
GLAD_GL_ARB_shader_image_load_store DD 01H DUP (?)
GLAD_GL_ARB_ES3_1_compatibility DD 01H DUP (?)
GLAD_GL_NVX_gpu_multicast2 DD 01H DUP (?)
	ALIGN	8

glad_glUniformMatrix4fv DQ 01H DUP (?)
GLAD_GL_ARB_vertex_shader DD 01H DUP (?)
	ALIGN	8

glad_glUseProgram DQ 01H DUP (?)
GLAD_GL_INGR_blend_func_separate DD 01H DUP (?)
GLAD_GL_VERSION_4_2 DD 01H DUP (?)
GLAD_GL_ARB_instanced_arrays DD 01H DUP (?)
	ALIGN	8

glad_glTexImage2D DQ 01H DUP (?)
GLAD_GL_ARB_clip_control DD 01H DUP (?)
GLAD_GL_NV_internalformat_sample_query DD 01H DUP (?)
GLAD_GL_EXT_point_parameters DD 01H DUP (?)
GLAD_GL_ARB_separate_shader_objects DD 01H DUP (?)
GLAD_GL_EXT_external_buffer DD 01H DUP (?)
GLAD_GL_ARB_shader_atomic_counters DD 01H DUP (?)
GLAD_GL_NV_explicit_multisample DD 01H DUP (?)
GLAD_GL_ARB_ES2_compatibility DD 01H DUP (?)
GLAD_GL_EXT_EGL_image_storage DD 01H DUP (?)
GLAD_GL_OES_query_matrix DD 01H DUP (?)
glad_glGenBuffers DQ 01H DUP (?)
GLAD_GL_NV_gpu_shader5 DD 01H DUP (?)
GLAD_GL_AMD_name_gen_delete DD 01H DUP (?)
GLAD_GL_NV_point_sprite DD 01H DUP (?)
	ALIGN	8

glad_glDrawElementsInstanced DQ 01H DUP (?)
GLAD_GL_SGIS_pixel_texture DD 01H DUP (?)
	ALIGN	8

glad_glBlendFunc DQ 01H DUP (?)
GLAD_GL_NV_register_combiners2 DD 01H DUP (?)
	ALIGN	8

glad_glViewport DQ 01H DUP (?)
GLVersion DQ	01H DUP (?)
GLAD_GL_NV_depth_buffer_float DD 01H DUP (?)
GLAD_GL_EXT_provoking_vertex DD 01H DUP (?)
GLAD_GL_VERSION_4_1 DD 01H DUP (?)
	ALIGN	8

glad_glBindTexture DQ 01H DUP (?)
glad_glActiveTexture DQ 01H DUP (?)
GLAD_GL_NV_half_float DD 01H DUP (?)
GLAD_GL_NV_memory_object_sparse DD 01H DUP (?)
glad_glBindRenderbuffer DQ 01H DUP (?)
GLAD_GL_ARB_gl_spirv DD 01H DUP (?)
	ALIGN	8

glad_glCullFace DQ 01H DUP (?)
GLAD_GL_EXT_x11_sync_object DD 01H DUP (?)
GLAD_GL_EXT_vertex_shader DD 01H DUP (?)
GLAD_GL_NV_present_video DD 01H DUP (?)
	ALIGN	8

glad_glGetStringi DQ 01H DUP (?)
glad_glDeleteShader DQ 01H DUP (?)
GLAD_GL_OES_single_precision DD 01H DUP (?)
GLAD_GL_EXT_texture3D DD 01H DUP (?)
GLAD_GL_NV_transform_feedback DD 01H DUP (?)
GLAD_GL_ARB_occlusion_query DD 01H DUP (?)
glad_glGenFramebuffers DQ 01H DUP (?)
GLAD_GL_ARB_multi_bind DD 01H DUP (?)
GLAD_GL_EXT_vertex_attrib_64bit DD 01H DUP (?)
GLAD_GL_EXT_memory_object DD 01H DUP (?)
GLAD_GL_EXT_draw_instanced DD 01H DUP (?)
GLAD_GL_SGIS_multisample DD 01H DUP (?)
GLAD_GL_VERSION_1_2 DD 01H DUP (?)
GLAD_GL_EXT_gpu_shader4 DD 01H DUP (?)
	ALIGN	8

glad_glGetUniformLocation DQ 01H DUP (?)
GLAD_GL_EXT_semaphore_win32 DD 01H DUP (?)
GLAD_GL_ARB_sample_locations DD 01H DUP (?)
GLAD_GL_AMD_framebuffer_sample_positions DD 01H DUP (?)
GLAD_GL_ARB_internalformat_query DD 01H DUP (?)
GLAD_GL_APPLE_vertex_program_evaluators DD 01H DUP (?)
GLAD_GL_NVX_conditional_render DD 01H DUP (?)
GLAD_GL_EXT_draw_buffers2 DD 01H DUP (?)
GLAD_GL_ARB_blend_func_extended DD 01H DUP (?)
GLAD_GL_NVX_progress_fence DD 01H DUP (?)
GLAD_GL_ARB_polygon_offset_clamp DD 01H DUP (?)
GLAD_GL_NV_vertex_buffer_unified_memory DD 01H DUP (?)
GLAD_GL_ARB_viewport_array DD 01H DUP (?)
GLAD_GL_EXT_pixel_transform DD 01H DUP (?)
	ALIGN	8

glad_glGetString DQ 01H DUP (?)
GLAD_GL_SGIX_polynomial_ffd DD 01H DUP (?)
GLAD_GL_NV_bindless_multi_draw_indirect_count DD 01H DUP (?)
glad_glBindBuffer DQ 01H DUP (?)
GLAD_GL_ARB_ES3_2_compatibility DD 01H DUP (?)
	ALIGN	8

glad_glFramebufferTexture2D DQ 01H DUP (?)
GLAD_GL_NV_texture_barrier DD 01H DUP (?)
GLAD_GL_ARB_draw_indirect DD 01H DUP (?)
GLAD_GL_EXT_color_subtable DD 01H DUP (?)
GLAD_GL_EXT_coordinate_frame DD 01H DUP (?)
GLAD_GL_ARB_draw_buffers DD 01H DUP (?)
	ALIGN	8

glad_glAttachShader DQ 01H DUP (?)
GLAD_GL_ARB_texture_compression DD 01H DUP (?)
GLAD_GL_SGIS_texture_filter4 DD 01H DUP (?)
GLAD_GL_ARB_bindless_texture DD 01H DUP (?)
	ALIGN	8

glad_glUniform1f DQ 01H DUP (?)
GLAD_GL_VERSION_3_0 DD 01H DUP (?)
	ALIGN	8

glad_glLinkProgram DQ 01H DUP (?)
GLAD_GL_ATI_vertex_attrib_array_object DD 01H DUP (?)
GLAD_GL_EXT_vertex_array DD 01H DUP (?)
GLAD_GL_NV_sample_locations DD 01H DUP (?)
	ALIGN	8

glad_glPolygonMode DQ 01H DUP (?)
glad_glNamedBufferData DQ 01H DUP (?)
GLAD_GL_EXT_subtexture DD 01H DUP (?)
GLAD_GL_ARB_point_parameters DD 01H DUP (?)
GLAD_GL_APPLE_texture_range DD 01H DUP (?)
GLAD_GL_SUN_global_alpha DD 01H DUP (?)
GLAD_GL_NV_primitive_restart DD 01H DUP (?)
GLAD_GL_GREMEDY_frame_terminator DD 01H DUP (?)
GLAD_GL_APPLE_vertex_array_range DD 01H DUP (?)
GLAD_GL_NV_register_combiners DD 01H DUP (?)
GLAD_GL_ARB_draw_buffers_blend DD 01H DUP (?)
	ALIGN	8

glad_glUniform3fv DQ 01H DUP (?)
GLAD_GL_AMD_draw_buffers_blend DD 01H DUP (?)
GLAD_GL_SUN_mesh_array DD 01H DUP (?)
GLAD_GL_NV_draw_texture DD 01H DUP (?)
GLAD_GL_EXT_secondary_color DD 01H DUP (?)
glad_glReadBuffer DQ 01H DUP (?)
GLAD_GL_INTEL_performance_query DD 01H DUP (?)
GLAD_GL_ARB_buffer_storage DD 01H DUP (?)
GLAD_GL_SGIX_sprite DD 01H DUP (?)
GLAD_GL_ARB_get_texture_sub_image DD 01H DUP (?)
_BSS	ENDS
;	COMDAT __isa_available_default
_BSS	SEGMENT
__isa_available_default DD 01H DUP (?)
_BSS	ENDS
;	COMDAT ??_C@_05KBEOJPB@?$CFd?4?$CFd@
CONST	SEGMENT
??_C@_05KBEOJPB@?$CFd?4?$CFd@ DB '%d.%d', 00H		; `string'
CONST	ENDS
;	COMDAT ??_C@_0L@JLFHOCGA@OpenGL?5ES?5@
CONST	SEGMENT
??_C@_0L@JLFHOCGA@OpenGL?5ES?5@ DB 'OpenGL ES ', 00H	; `string'
CONST	ENDS
;	COMDAT ??_C@_0O@EMKFPNOG@OpenGL?5ES?9CL?5@
CONST	SEGMENT
??_C@_0O@EMKFPNOG@OpenGL?5ES?9CL?5@ DB 'OpenGL ES-CL ', 00H ; `string'
CONST	ENDS
;	COMDAT ??_C@_0O@ENGHJHNB@OpenGL?5ES?9CM?5@
CONST	SEGMENT
??_C@_0O@ENGHJHNB@OpenGL?5ES?9CM?5@ DB 'OpenGL ES-CM ', 00H ; `string'
CONST	ENDS
;	COMDAT ??_C@_0BE@IHNEDPNH@GL_WIN_specular_fog@
CONST	SEGMENT
??_C@_0BE@IHNEDPNH@GL_WIN_specular_fog@ DB 'GL_WIN_specular_fog', 00H ; `string'
CONST	ENDS
;	COMDAT ??_C@_0BF@CGJHJCNI@GL_WIN_phong_shading@
CONST	SEGMENT
??_C@_0BF@CGJHJCNI@GL_WIN_phong_shading@ DB 'GL_WIN_phong_shading', 00H ; `string'
CONST	ENDS
;	COMDAT ??_C@_0O@FOOLPMFL@GL_SUN_vertex@
CONST	SEGMENT
??_C@_0O@FOOLPMFL@GL_SUN_vertex@ DB 'GL_SUN_vertex', 00H ; `string'
CONST	ENDS
;	COMDAT ??_C@_0BF@JCOGPNNJ@GL_SUN_triangle_list@
CONST	SEGMENT
??_C@_0BF@JCOGPNNJ@GL_SUN_triangle_list@ DB 'GL_SUN_triangle_list', 00H ; `string'
CONST	ENDS
;	COMDAT ??_C@_0BD@EKCHDFKA@GL_SUN_slice_accum@
CONST	SEGMENT
??_C@_0BD@EKCHDFKA@GL_SUN_slice_accum@ DB 'GL_SUN_slice_accum', 00H ; `string'
CONST	ENDS
;	COMDAT ??_C@_0BC@PNDFDGDE@GL_SUN_mesh_array@
CONST	SEGMENT
??_C@_0BC@PNDFDGDE@GL_SUN_mesh_array@ DB 'GL_SUN_mesh_array', 00H ; `string'
CONST	ENDS
;	COMDAT ??_C@_0BE@IJMMGMJE@GL_SUN_global_alpha@
CONST	SEGMENT
??_C@_0BE@IJMMGMJE@GL_SUN_global_alpha@ DB 'GL_SUN_global_alpha', 00H ; `string'
CONST	ENDS
;	COMDAT ??_C@_0CA@PKECLOJO@GL_SUN_convolution_border_modes@
CONST	SEGMENT
??_C@_0CA@PKECLOJO@GL_SUN_convolution_border_modes@ DB 'GL_SUN_convolutio'
	DB	'n_border_modes', 00H			; `string'
CONST	ENDS
;	COMDAT ??_C@_0BG@EJHFCACO@GL_SUNX_constant_data@
CONST	SEGMENT
??_C@_0BG@EJHFCACO@GL_SUNX_constant_data@ DB 'GL_SUNX_constant_data', 00H ; `string'
CONST	ENDS
;	COMDAT ??_C@_0BL@OJFHNLAL@GL_SGI_texture_color_table@
CONST	SEGMENT
??_C@_0BL@OJFHNLAL@GL_SGI_texture_color_table@ DB 'GL_SGI_texture_color_t'
	DB	'able', 00H					; `string'
CONST	ENDS
;	COMDAT ??_C@_0BD@GKNOIPPL@GL_SGI_color_table@
CONST	SEGMENT
??_C@_0BD@GKNOIPPL@GL_SGI_color_table@ DB 'GL_SGI_color_table', 00H ; `string'
CONST	ENDS
;	COMDAT ??_C@_0BE@GJNJGEBC@GL_SGI_color_matrix@
CONST	SEGMENT
??_C@_0BE@GJNJGEBC@GL_SGI_color_matrix@ DB 'GL_SGI_color_matrix', 00H ; `string'
CONST	ENDS
;	COMDAT ??_C@_0P@MFHBOAPP@GL_SGIX_ycrcba@
CONST	SEGMENT
??_C@_0P@MFHBOAPP@GL_SGIX_ycrcba@ DB 'GL_SGIX_ycrcba', 00H ; `string'
CONST	ENDS
;	COMDAT ??_C@_0BI@MDMPKKOA@GL_SGIX_ycrcb_subsample@
CONST	SEGMENT
??_C@_0BI@MDMPKKOA@GL_SGIX_ycrcb_subsample@ DB 'GL_SGIX_ycrcb_subsample', 00H ; `string'
CONST	ENDS
;	COMDAT ??_C@_0O@PBGOBAHG@GL_SGIX_ycrcb@
CONST	SEGMENT
??_C@_0O@PBGOBAHG@GL_SGIX_ycrcb@ DB 'GL_SGIX_ycrcb', 00H ; `string'
CONST	ENDS
;	COMDAT ??_C@_0BH@HAEKGGE@GL_SGIX_vertex_preclip@
CONST	SEGMENT
??_C@_0BH@HAEKGGE@GL_SGIX_vertex_preclip@ DB 'GL_SGIX_vertex_preclip', 00H ; `string'
CONST	ENDS
;	COMDAT ??_C@_0BL@CPBAAPMN@GL_SGIX_texture_scale_bias@
CONST	SEGMENT
??_C@_0BL@CPBAAPMN@GL_SGIX_texture_scale_bias@ DB 'GL_SGIX_texture_scale_'
	DB	'bias', 00H					; `string'
CONST	ENDS
;	COMDAT ??_C@_0BN@KIBAKNBJ@GL_SGIX_texture_multi_buffer@
CONST	SEGMENT
??_C@_0BN@KIBAKNBJ@GL_SGIX_texture_multi_buffer@ DB 'GL_SGIX_texture_mult'
	DB	'i_buffer', 00H				; `string'
CONST	ENDS
;	COMDAT ??_C@_0BJ@CPJCLFF@GL_SGIX_texture_lod_bias@
CONST	SEGMENT
??_C@_0BJ@CPJCLFF@GL_SGIX_texture_lod_bias@ DB 'GL_SGIX_texture_lod_bias', 00H ; `string'
CONST	ENDS
;	COMDAT ??_C@_0CB@DEFOJPBA@GL_SGIX_texture_coordinate_clam@
CONST	SEGMENT
??_C@_0CB@DEFOJPBA@GL_SGIX_texture_coordinate_clam@ DB 'GL_SGIX_texture_c'
	DB	'oordinate_clamp', 00H			; `string'
CONST	ENDS
;	COMDAT ??_C@_0BI@FJKNJEME@GL_SGIX_texture_add_env@
CONST	SEGMENT
??_C@_0BI@FJKNJEME@GL_SGIX_texture_add_env@ DB 'GL_SGIX_texture_add_env', 00H ; `string'
CONST	ENDS
;	COMDAT ??_C@_0BK@DEFLGOMM@GL_SGIX_tag_sample_buffer@
CONST	SEGMENT
??_C@_0BK@DEFLGOMM@GL_SGIX_tag_sample_buffer@ DB 'GL_SGIX_tag_sample_buff'
	DB	'er', 00H					; `string'
CONST	ENDS
;	COMDAT ??_C@_0BC@GFGFBCCM@GL_SGIX_subsample@
CONST	SEGMENT
??_C@_0BC@GFGFBCCM@GL_SGIX_subsample@ DB 'GL_SGIX_subsample', 00H ; `string'
CONST	ENDS
;	COMDAT ??_C@_0P@PHDJDFCG@GL_SGIX_sprite@
CONST	SEGMENT
??_C@_0P@PHDJDFCG@GL_SGIX_sprite@ DB 'GL_SGIX_sprite', 00H ; `string'
CONST	ENDS
;	COMDAT ??_C@_0BH@PPBBCFNF@GL_SGIX_shadow_ambient@
CONST	SEGMENT
??_C@_0BH@PPBBCFNF@GL_SGIX_shadow_ambient@ DB 'GL_SGIX_shadow_ambient', 00H ; `string'
CONST	ENDS
;	COMDAT ??_C@_0P@KFBBLMBN@GL_SGIX_shadow@
CONST	SEGMENT
??_C@_0P@KFBBLMBN@GL_SGIX_shadow@ DB 'GL_SGIX_shadow', 00H ; `string'
CONST	ENDS
;	COMDAT ??_C@_0BH@DAJFKGFO@GL_SGIX_scalebias_hint@
CONST	SEGMENT
??_C@_0BH@DAJFKGFO@GL_SGIX_scalebias_hint@ DB 'GL_SGIX_scalebias_hint', 00H ; `string'
CONST	ENDS
;	COMDAT ??_C@_0BB@KPBJONBD@GL_SGIX_resample@
CONST	SEGMENT
??_C@_0BB@KPBJONBD@GL_SGIX_resample@ DB 'GL_SGIX_resample', 00H ; `string'
CONST	ENDS
;	COMDAT ??_C@_0BI@LDFBLACJ@GL_SGIX_reference_plane@
CONST	SEGMENT
??_C@_0BI@LDFBLACJ@GL_SGIX_reference_plane@ DB 'GL_SGIX_reference_plane', 00H ; `string'
CONST	ENDS
;	COMDAT ??_C@_0BH@PNEACOBI@GL_SGIX_polynomial_ffd@
CONST	SEGMENT
??_C@_0BH@PNEACOBI@GL_SGIX_polynomial_ffd@ DB 'GL_SGIX_polynomial_ffd', 00H ; `string'
CONST	ENDS
;	COMDAT ??_C@_0BE@DGCCNBBN@GL_SGIX_pixel_tiles@
CONST	SEGMENT
??_C@_0BE@DGCCNBBN@GL_SGIX_pixel_tiles@ DB 'GL_SGIX_pixel_tiles', 00H ; `string'
CONST	ENDS
;	COMDAT ??_C@_0BG@GGELFALH@GL_SGIX_pixel_texture@
CONST	SEGMENT
??_C@_0BG@GGELFALH@GL_SGIX_pixel_texture@ DB 'GL_SGIX_pixel_texture', 00H ; `string'
CONST	ENDS
;	COMDAT ??_C@_0BG@ICADFLAC@GL_SGIX_list_priority@
CONST	SEGMENT
??_C@_0BG@ICADFLAC@GL_SGIX_list_priority@ DB 'GL_SGIX_list_priority', 00H ; `string'
CONST	ENDS
;	COMDAT ??_C@_0BH@BKBFADJM@GL_SGIX_ir_instrument1@
CONST	SEGMENT
??_C@_0BH@BKBFADJM@GL_SGIX_ir_instrument1@ DB 'GL_SGIX_ir_instrument1', 00H ; `string'
CONST	ENDS
;	COMDAT ??_C@_0BC@JOHNGALL@GL_SGIX_interlace@
CONST	SEGMENT
??_C@_0BC@JOHNGALL@GL_SGIX_interlace@ DB 'GL_SGIX_interlace', 00H ; `string'
CONST	ENDS
;	COMDAT ??_C@_0BE@JJMLEEGD@GL_SGIX_instruments@
CONST	SEGMENT
??_C@_0BE@JJMLEEGD@GL_SGIX_instruments@ DB 'GL_SGIX_instruments', 00H ; `string'
CONST	ENDS
;	COMDAT ??_C@_0BI@LHAAEKNC@GL_SGIX_igloo_interface@
CONST	SEGMENT
??_C@_0BI@LHAAEKNC@GL_SGIX_igloo_interface@ DB 'GL_SGIX_igloo_interface', 00H ; `string'
CONST	ENDS
;	COMDAT ??_C@_0BC@PCFJKPCF@GL_SGIX_framezoom@
CONST	SEGMENT
??_C@_0BC@PCFJKPCF@GL_SGIX_framezoom@ DB 'GL_SGIX_framezoom', 00H ; `string'
CONST	ENDS
;	COMDAT ??_C@_0BK@FJJJALCN@GL_SGIX_fragment_lighting@
CONST	SEGMENT
??_C@_0BK@FJJJALCN@GL_SGIX_fragment_lighting@ DB 'GL_SGIX_fragment_lighti'
	DB	'ng', 00H					; `string'
CONST	ENDS
;	COMDAT ??_C@_0BD@KPKPFAII@GL_SGIX_fog_offset@
CONST	SEGMENT
??_C@_0BD@KPKPFAII@GL_SGIX_fog_offset@ DB 'GL_SGIX_fog_offset', 00H ; `string'
CONST	ENDS
;	COMDAT ??_C@_0BF@NDINOOPD@GL_SGIX_flush_raster@
CONST	SEGMENT
??_C@_0BF@NDINOOPD@GL_SGIX_flush_raster@ DB 'GL_SGIX_flush_raster', 00H ; `string'
CONST	ENDS
;	COMDAT ??_C@_0BG@ODHAJHLE@GL_SGIX_depth_texture@
CONST	SEGMENT
??_C@_0BG@ODHAJHLE@GL_SGIX_depth_texture@ DB 'GL_SGIX_depth_texture', 00H ; `string'
CONST	ENDS
;	COMDAT ??_C@_0BO@FCNOGMIO@GL_SGIX_depth_pass_instrument@
CONST	SEGMENT
??_C@_0BO@FCNOGMIO@GL_SGIX_depth_pass_instrument@ DB 'GL_SGIX_depth_pass_'
	DB	'instrument', 00H				; `string'
CONST	ENDS
;	COMDAT ??_C@_0BN@JKOOPNJD@GL_SGIX_convolution_accuracy@
CONST	SEGMENT
??_C@_0BN@JKOOPNJD@GL_SGIX_convolution_accuracy@ DB 'GL_SGIX_convolution_'
	DB	'accuracy', 00H				; `string'
CONST	ENDS
;	COMDAT ??_C@_0BA@PPJLFMN@GL_SGIX_clipmap@
CONST	SEGMENT
??_C@_0BA@PPJLFMN@GL_SGIX_clipmap@ DB 'GL_SGIX_clipmap', 00H ; `string'
CONST	ENDS
;	COMDAT ??_C@_0BO@DCMIKEBB@GL_SGIX_calligraphic_fragment@
CONST	SEGMENT
??_C@_0BO@DCMIKEBB@GL_SGIX_calligraphic_fragment@ DB 'GL_SGIX_calligraphi'
	DB	'c_fragment', 00H				; `string'
CONST	ENDS
;	COMDAT ??_C@_0BL@EIBFJLIA@GL_SGIX_blend_alpha_minmax@
CONST	SEGMENT
??_C@_0BL@EIBFJLIA@GL_SGIX_blend_alpha_minmax@ DB 'GL_SGIX_blend_alpha_mi'
	DB	'nmax', 00H					; `string'
CONST	ENDS
;	COMDAT ??_C@_0BE@NAMBIHMO@GL_SGIX_async_pixel@
CONST	SEGMENT
??_C@_0BE@NAMBIHMO@GL_SGIX_async_pixel@ DB 'GL_SGIX_async_pixel', 00H ; `string'
CONST	ENDS
;	COMDAT ??_C@_0BI@HLJGOPMC@GL_SGIX_async_histogram@
CONST	SEGMENT
??_C@_0BI@HLJGOPMC@GL_SGIX_async_histogram@ DB 'GL_SGIX_async_histogram', 00H ; `string'
CONST	ENDS
;	COMDAT ??_C@_0O@LIMJCCBB@GL_SGIX_async@
CONST	SEGMENT
??_C@_0O@LIMJCCBB@GL_SGIX_async@ DB 'GL_SGIX_async', 00H ; `string'
CONST	ENDS
;	COMDAT ??_C@_0BH@DCBOJIEA@GL_SGIS_texture_select@
CONST	SEGMENT
??_C@_0BH@DCBOJIEA@GL_SGIS_texture_select@ DB 'GL_SGIS_texture_select', 00H ; `string'
CONST	ENDS
;	COMDAT ??_C@_0BE@OINMPKHO@GL_SGIS_texture_lod@
CONST	SEGMENT
??_C@_0BE@OINMPKHO@GL_SGIS_texture_lod@ DB 'GL_SGIS_texture_lod', 00H ; `string'
CONST	ENDS
;	COMDAT ??_C@_0BI@ECFJGEJI@GL_SGIS_texture_filter4@
CONST	SEGMENT
??_C@_0BI@ECFJGEJI@GL_SGIS_texture_filter4@ DB 'GL_SGIS_texture_filter4', 00H ; `string'
CONST	ENDS
;	COMDAT ??_C@_0BL@JOCOPCOL@GL_SGIS_texture_edge_clamp@
CONST	SEGMENT
??_C@_0BL@JOCOPCOL@GL_SGIS_texture_edge_clamp@ DB 'GL_SGIS_texture_edge_c'
	DB	'lamp', 00H					; `string'
CONST	ENDS
;	COMDAT ??_C@_0BL@MCNCLCJA@GL_SGIS_texture_color_mask@
CONST	SEGMENT
??_C@_0BL@MCNCLCJA@GL_SGIS_texture_color_mask@ DB 'GL_SGIS_texture_color_'
	DB	'mask', 00H					; `string'
CONST	ENDS
;	COMDAT ??_C@_0BN@LHADNLCK@GL_SGIS_texture_border_clamp@
CONST	SEGMENT
??_C@_0BN@LHADNLCK@GL_SGIS_texture_border_clamp@ DB 'GL_SGIS_texture_bord'
	DB	'er_clamp', 00H				; `string'
CONST	ENDS
;	COMDAT ??_C@_0BC@IBDHHBNP@GL_SGIS_texture4D@
CONST	SEGMENT
??_C@_0BC@IBDHHBNP@GL_SGIS_texture4D@ DB 'GL_SGIS_texture4D', 00H ; `string'
CONST	ENDS
;	COMDAT ??_C@_0BI@FOOBIIJK@GL_SGIS_sharpen_texture@
CONST	SEGMENT
??_C@_0BI@FOOBIIJK@GL_SGIS_sharpen_texture@ DB 'GL_SGIS_sharpen_texture', 00H ; `string'
CONST	ENDS
;	COMDAT ??_C@_0BJ@GONNHMCB@GL_SGIS_point_parameters@
CONST	SEGMENT
??_C@_0BJ@GONNHMCB@GL_SGIS_point_parameters@ DB 'GL_SGIS_point_parameters'
	DB	00H						; `string'
CONST	ENDS
;	COMDAT ??_C@_0BK@ENABMDEB@GL_SGIS_point_line_texgen@
CONST	SEGMENT
??_C@_0BK@ENABMDEB@GL_SGIS_point_line_texgen@ DB 'GL_SGIS_point_line_texg'
	DB	'en', 00H					; `string'
CONST	ENDS
;	COMDAT ??_C@_0BG@DMJAHLAK@GL_SGIS_pixel_texture@
CONST	SEGMENT
??_C@_0BG@DMJAHLAK@GL_SGIS_pixel_texture@ DB 'GL_SGIS_pixel_texture', 00H ; `string'
CONST	ENDS
;	COMDAT ??_C@_0BE@DFFPCJFF@GL_SGIS_multisample@
CONST	SEGMENT
??_C@_0BE@DFFPCJFF@GL_SGIS_multisample@ DB 'GL_SGIS_multisample', 00H ; `string'
CONST	ENDS
;	COMDAT ??_C@_0BI@MOOJOJFP@GL_SGIS_generate_mipmap@
CONST	SEGMENT
??_C@_0BI@MOOJOJFP@GL_SGIS_generate_mipmap@ DB 'GL_SGIS_generate_mipmap', 00H ; `string'
CONST	ENDS
;	COMDAT ??_C@_0BF@GPGNHNMN@GL_SGIS_fog_function@
CONST	SEGMENT
??_C@_0BF@GPGNHNMN@GL_SGIS_fog_function@ DB 'GL_SGIS_fog_function', 00H ; `string'
CONST	ENDS
;	COMDAT ??_C@_0BH@PAHCODJ@GL_SGIS_detail_texture@
CONST	SEGMENT
??_C@_0BH@PAHCODJ@GL_SGIS_detail_texture@ DB 'GL_SGIS_detail_texture', 00H ; `string'
CONST	ENDS
;	COMDAT ??_C@_0L@LMFIOPIG@GL_S3_s3tc@
CONST	SEGMENT
??_C@_0L@LMFIOPIG@GL_S3_s3tc@ DB 'GL_S3_s3tc', 00H	; `string'
CONST	ENDS
;	COMDAT ??_C@_0BL@FCLACNMJ@GL_REND_screen_coordinates@
CONST	SEGMENT
??_C@_0BL@FCLACNMJ@GL_REND_screen_coordinates@ DB 'GL_REND_screen_coordin'
	DB	'ates', 00H					; `string'
CONST	ENDS
;	COMDAT ??_C@_0BE@MMGKEFE@GL_PGI_vertex_hints@
CONST	SEGMENT
??_C@_0BE@MMGKEFE@GL_PGI_vertex_hints@ DB 'GL_PGI_vertex_hints', 00H ; `string'
CONST	ENDS
;	COMDAT ??_C@_0BC@JLEDMIGB@GL_PGI_misc_hints@
CONST	SEGMENT
??_C@_0BC@JLEDMIGB@GL_PGI_misc_hints@ DB 'GL_PGI_misc_hints', 00H ; `string'
CONST	ENDS
;	COMDAT ??_C@_0BC@NFAFDALL@GL_OVR_multiview2@
CONST	SEGMENT
??_C@_0BC@NFAFDALL@GL_OVR_multiview2@ DB 'GL_OVR_multiview2', 00H ; `string'
CONST	ENDS
;	COMDAT ??_C@_0BB@KNKGAOKC@GL_OVR_multiview@
CONST	SEGMENT
??_C@_0BB@KNKGAOKC@GL_OVR_multiview@ DB 'GL_OVR_multiview', 00H ; `string'
CONST	ENDS
;	COMDAT ??_C@_0BB@FDFMMDGJ@GL_OML_subsample@
CONST	SEGMENT
??_C@_0BB@FDFMMDGJ@GL_OML_subsample@ DB 'GL_OML_subsample', 00H ; `string'
CONST	ENDS
;	COMDAT ??_C@_0BA@JFICFOLJ@GL_OML_resample@
CONST	SEGMENT
??_C@_0BA@JFICFOLJ@GL_OML_resample@ DB 'GL_OML_resample', 00H ; `string'
CONST	ENDS
;	COMDAT ??_C@_0BB@KIEELBPO@GL_OML_interlace@
CONST	SEGMENT
??_C@_0BB@KIEELBPO@GL_OML_interlace@ DB 'GL_OML_interlace', 00H ; `string'
CONST	ENDS
;	COMDAT ??_C@_0BI@PHJBAGMB@GL_OES_single_precision@
CONST	SEGMENT
??_C@_0BI@PHJBAGMB@GL_OES_single_precision@ DB 'GL_OES_single_precision', 00H ; `string'
CONST	ENDS
;	COMDAT ??_C@_0BD@CHNKPBKI@GL_OES_read_format@
CONST	SEGMENT
??_C@_0BD@CHNKPBKI@GL_OES_read_format@ DB 'GL_OES_read_format', 00H ; `string'
CONST	ENDS
;	COMDAT ??_C@_0BE@FGGBOOAI@GL_OES_query_matrix@
CONST	SEGMENT
??_C@_0BE@FGGBOOAI@GL_OES_query_matrix@ DB 'GL_OES_query_matrix', 00H ; `string'
CONST	ENDS
;	COMDAT ??_C@_0BD@OFIMJHDA@GL_OES_fixed_point@
CONST	SEGMENT
??_C@_0BD@OFIMJHDA@GL_OES_fixed_point@ DB 'GL_OES_fixed_point', 00H ; `string'
CONST	ENDS
;	COMDAT ??_C@_0CD@DGCCJINL@GL_OES_compressed_paletted_text@
CONST	SEGMENT
??_C@_0CD@DGCCJINL@GL_OES_compressed_paletted_text@ DB 'GL_OES_compressed'
	DB	'_paletted_texture', 00H			; `string'
CONST	ENDS
;	COMDAT ??_C@_0BI@NHHEDEOP@GL_OES_byte_coordinates@
CONST	SEGMENT
??_C@_0BI@NHHEDEOP@GL_OES_byte_coordinates@ DB 'GL_OES_byte_coordinates', 00H ; `string'
CONST	ENDS
;	COMDAT ??_C@_0BH@KIIPEHLA@GL_NV_viewport_swizzle@
CONST	SEGMENT
??_C@_0BH@KIIPEHLA@GL_NV_viewport_swizzle@ DB 'GL_NV_viewport_swizzle', 00H ; `string'
CONST	ENDS
;	COMDAT ??_C@_0BG@MDJKNEKA@GL_NV_viewport_array2@
CONST	SEGMENT
??_C@_0BG@MDJKNEKA@GL_NV_viewport_array2@ DB 'GL_NV_viewport_array2', 00H ; `string'
CONST	ENDS
;	COMDAT ??_C@_0BE@MNGNEBEC@GL_NV_video_capture@
CONST	SEGMENT
??_C@_0BE@MNGNEBEC@GL_NV_video_capture@ DB 'GL_NV_video_capture', 00H ; `string'
CONST	ENDS
;	COMDAT ??_C@_0BG@OAMBCGDG@GL_NV_vertex_program4@
CONST	SEGMENT
??_C@_0BG@OAMBCGDG@GL_NV_vertex_program4@ DB 'GL_NV_vertex_program4', 00H ; `string'
CONST	ENDS
;	COMDAT ??_C@_0BG@KPIALAPB@GL_NV_vertex_program3@
CONST	SEGMENT
??_C@_0BG@KPIALAPB@GL_NV_vertex_program3@ DB 'GL_NV_vertex_program3', 00H ; `string'
CONST	ENDS
;	COMDAT ??_C@_0BN@GDAFGLIP@GL_NV_vertex_program2_option@
CONST	SEGMENT
??_C@_0BN@GDAFGLIP@GL_NV_vertex_program2_option@ DB 'GL_NV_vertex_program'
	DB	'2_option', 00H				; `string'
CONST	ENDS
;	COMDAT ??_C@_0BG@LGJLIBLA@GL_NV_vertex_program2@
CONST	SEGMENT
??_C@_0BG@LGJLIBLA@GL_NV_vertex_program2@ DB 'GL_NV_vertex_program2', 00H ; `string'
CONST	ENDS
;	COMDAT ??_C@_0BI@MNHCGKEE@GL_NV_vertex_program1_1@
CONST	SEGMENT
??_C@_0BI@MNHCGKEE@GL_NV_vertex_program1_1@ DB 'GL_NV_vertex_program1_1', 00H ; `string'
CONST	ENDS
;	COMDAT ??_C@_0BF@DFHLNMLP@GL_NV_vertex_program@
CONST	SEGMENT
??_C@_0BF@DFHLNMLP@GL_NV_vertex_program@ DB 'GL_NV_vertex_program', 00H ; `string'
CONST	ENDS
;	COMDAT ??_C@_0CD@MJBDICNG@GL_NV_vertex_buffer_unified_mem@
CONST	SEGMENT
??_C@_0CD@MJBDICNG@GL_NV_vertex_buffer_unified_mem@ DB 'GL_NV_vertex_buff'
	DB	'er_unified_memory', 00H			; `string'
CONST	ENDS
;	COMDAT ??_C@_0CC@JDEBDKAE@GL_NV_vertex_attrib_integer_64b@
CONST	SEGMENT
??_C@_0CC@JDEBDKAE@GL_NV_vertex_attrib_integer_64b@ DB 'GL_NV_vertex_attr'
	DB	'ib_integer_64bit', 00H			; `string'
CONST	ENDS
;	COMDAT ??_C@_0BK@GGNOOOFB@GL_NV_vertex_array_range2@
CONST	SEGMENT
??_C@_0BK@GGNOOOFB@GL_NV_vertex_array_range2@ DB 'GL_NV_vertex_array_rang'
	DB	'e2', 00H					; `string'
CONST	ENDS
;	COMDAT ??_C@_0BJ@BAACMKFK@GL_NV_vertex_array_range@
CONST	SEGMENT
??_C@_0BJ@BAACMKFK@GL_NV_vertex_array_range@ DB 'GL_NV_vertex_array_range'
	DB	00H						; `string'
CONST	ENDS
;	COMDAT ??_C@_0BF@IDABFNHN@GL_NV_vdpau_interop2@
CONST	SEGMENT
??_C@_0BF@IDABFNHN@GL_NV_vdpau_interop2@ DB 'GL_NV_vdpau_interop2', 00H ; `string'
CONST	ENDS
;	COMDAT ??_C@_0BE@BKAPOLJH@GL_NV_vdpau_interop@
CONST	SEGMENT
??_C@_0BE@BKAPOLJH@GL_NV_vdpau_interop@ DB 'GL_NV_vdpau_interop', 00H ; `string'
CONST	ENDS
;	COMDAT ??_C@_0CE@BFBFCDGO@GL_NV_uniform_buffer_unified_me@
CONST	SEGMENT
??_C@_0CE@BFBFCDGO@GL_NV_uniform_buffer_unified_me@ DB 'GL_NV_uniform_buf'
	DB	'fer_unified_memory', 00H			; `string'
CONST	ENDS
;	COMDAT ??_C@_0BK@KABPBCAA@GL_NV_transform_feedback2@
CONST	SEGMENT
??_C@_0BK@KABPBCAA@GL_NV_transform_feedback2@ DB 'GL_NV_transform_feedbac'
	DB	'k2', 00H					; `string'
CONST	ENDS
;	COMDAT ??_C@_0BJ@NNCHCJGA@GL_NV_transform_feedback@
CONST	SEGMENT
??_C@_0BJ@NNCHCJGA@GL_NV_transform_feedback@ DB 'GL_NV_transform_feedback'
	DB	00H						; `string'
CONST	ENDS
;	COMDAT ??_C@_0BJ@KIPHKJBO@GL_NV_timeline_semaphore@
CONST	SEGMENT
??_C@_0BJ@KIPHKJBO@GL_NV_timeline_semaphore@ DB 'GL_NV_timeline_semaphore'
	DB	00H						; `string'
CONST	ENDS
;	COMDAT ??_C@_0BG@JONFGJMH@GL_NV_texture_shader3@
CONST	SEGMENT
??_C@_0BG@JONFGJMH@GL_NV_texture_shader3@ DB 'GL_NV_texture_shader3', 00H ; `string'
CONST	ENDS
;	COMDAT ??_C@_0BG@IHMOFIIG@GL_NV_texture_shader2@
CONST	SEGMENT
??_C@_0BG@IHMOFIIG@GL_NV_texture_shader2@ DB 'GL_NV_texture_shader2', 00H ; `string'
CONST	ENDS
;	COMDAT ??_C@_0BF@OCMAFBB@GL_NV_texture_shader@
CONST	SEGMENT
??_C@_0BF@OCMAFBB@GL_NV_texture_shader@ DB 'GL_NV_texture_shader', 00H ; `string'
CONST	ENDS
;	COMDAT ??_C@_0CD@IJHHALLB@GL_NV_texture_rectangle_compres@
CONST	SEGMENT
??_C@_0CD@IJHHALLB@GL_NV_texture_rectangle_compres@ DB 'GL_NV_texture_rec'
	DB	'tangle_compressed', 00H			; `string'
CONST	ENDS
;	COMDAT ??_C@_0BI@KIAKBMLM@GL_NV_texture_rectangle@
CONST	SEGMENT
??_C@_0BI@KIAKBMLM@GL_NV_texture_rectangle@ DB 'GL_NV_texture_rectangle', 00H ; `string'
CONST	ENDS
;	COMDAT ??_C@_0BK@HNFFNOCH@GL_NV_texture_multisample@
CONST	SEGMENT
??_C@_0BK@HNFFNOCH@GL_NV_texture_multisample@ DB 'GL_NV_texture_multisamp'
	DB	'le', 00H					; `string'
CONST	ENDS
;	COMDAT ??_C@_0BM@PKADNNLC@GL_NV_texture_expand_normal@
CONST	SEGMENT
??_C@_0BM@PKADNNLC@GL_NV_texture_expand_normal@ DB 'GL_NV_texture_expand_'
	DB	'normal', 00H				; `string'
CONST	ENDS
;	COMDAT ??_C@_0BL@INAFKGJG@GL_NV_texture_env_combine4@
CONST	SEGMENT
??_C@_0BL@INAFKGJG@GL_NV_texture_env_combine4@ DB 'GL_NV_texture_env_comb'
	DB	'ine4', 00H					; `string'
CONST	ENDS
;	COMDAT ??_C@_0BO@KAKHKEJP@GL_NV_texture_compression_vtc@
CONST	SEGMENT
??_C@_0BO@KAKHKEJP@GL_NV_texture_compression_vtc@ DB 'GL_NV_texture_compr'
	DB	'ession_vtc', 00H				; `string'
CONST	ENDS
;	COMDAT ??_C@_0BG@GLGDHLLP@GL_NV_texture_barrier@
CONST	SEGMENT
??_C@_0BG@GLGDHLLP@GL_NV_texture_barrier@ DB 'GL_NV_texture_barrier', 00H ; `string'
CONST	ENDS
;	COMDAT ??_C@_0BI@IEIPMLHJ@GL_NV_texgen_reflection@
CONST	SEGMENT
??_C@_0BI@IEIPMLHJ@GL_NV_texgen_reflection@ DB 'GL_NV_texgen_reflection', 00H ; `string'
CONST	ENDS
;	COMDAT ??_C@_0BE@JNJEBIKN@GL_NV_texgen_emboss@
CONST	SEGMENT
??_C@_0BE@JNJEBIKN@GL_NV_texgen_emboss@ DB 'GL_NV_texgen_emboss', 00H ; `string'
CONST	ENDS
;	COMDAT ??_C@_0BM@PJBMHOC@GL_NV_tessellation_program5@
CONST	SEGMENT
??_C@_0BM@PJBMHOC@GL_NV_tessellation_program5@ DB 'GL_NV_tessellation_pro'
	DB	'gram5', 00H					; `string'
CONST	ENDS
;	COMDAT ??_C@_0BM@IGAKOJAB@GL_NV_stereo_view_rendering@
CONST	SEGMENT
??_C@_0BM@IGAKOJAB@GL_NV_stereo_view_rendering@ DB 'GL_NV_stereo_view_ren'
	DB	'dering', 00H				; `string'
CONST	ENDS
;	COMDAT ??_C@_0BJ@PBHAGHLE@GL_NV_shading_rate_image@
CONST	SEGMENT
??_C@_0BJ@PBHAGHLE@GL_NV_shading_rate_image@ DB 'GL_NV_shading_rate_image'
	DB	00H						; `string'
CONST	ENDS
;	COMDAT ??_C@_0BM@BHGNJEBN@GL_NV_shader_thread_shuffle@
CONST	SEGMENT
??_C@_0BM@BHGNJEBN@GL_NV_shader_thread_shuffle@ DB 'GL_NV_shader_thread_s'
	DB	'huffle', 00H				; `string'
CONST	ENDS
;	COMDAT ??_C@_0BK@IBKJLDNG@GL_NV_shader_thread_group@
CONST	SEGMENT
??_C@_0BK@IBKJLDNG@GL_NV_shader_thread_group@ DB 'GL_NV_shader_thread_gro'
	DB	'up', 00H					; `string'
CONST	ENDS
;	COMDAT ??_C@_0BP@BBOJDDOA@GL_NV_shader_texture_footprint@
CONST	SEGMENT
??_C@_0BP@BBOJDDOA@GL_NV_shader_texture_footprint@ DB 'GL_NV_shader_textu'
	DB	're_footprint', 00H				; `string'
CONST	ENDS
;	COMDAT ??_C@_0CC@PCBMMOMO@GL_NV_shader_subgroup_partition@
CONST	SEGMENT
??_C@_0CC@PCBMMOMO@GL_NV_shader_subgroup_partition@ DB 'GL_NV_shader_subg'
	DB	'roup_partitioned', 00H			; `string'
CONST	ENDS
;	COMDAT ??_C@_0CD@CNLBHGJA@GL_NV_shader_storage_buffer_obj@
CONST	SEGMENT
