; Listing generated by Microsoft (R) Optimizing Compiler Version 19.36.32538.0 

include listing.inc

INCLUDELIB OLDNAMES

PUBLIC	??_C@_0N@DOKAJOHF@opengl32?4dll@		; `string'
PUBLIC	??_C@_0CF@PMPPENEO@Failed?5to?5initialize?5OpenGL?5loa@ ; `string'
PUBLIC	??_C@_0BD@BIIFHGKK@imgui_impl_opengl3@		; `string'
PUBLIC	??_C@_0N@NPMABONB@?$CDversion?5130@		; `string'
PUBLIC	??_C@_0FD@CCPHEBOI@ERROR?3?5ImGui_ImplOpenGL3_Create@ ; `string'
PUBLIC	??_C@_03OFAPEBGM@?$CFs?6@			; `string'
PUBLIC	??_C@_0EP@EPOJCDAM@ERROR?3?5ImGui_ImplOpenGL3_Create@ ; `string'
PUBLIC	??_C@_0M@GIPNOCDP@?$CDversion?5?$CFd@		; `string'
PUBLIC	??_C@_0PF@HLCKEEPJ@uniform?5mat4?5ProjMtx?$DL?6attribute@ ; `string'
PUBLIC	??_C@_0NI@FNJCCLKC@uniform?5mat4?5ProjMtx?$DL?6in?5vec2?5P@ ; `string'
PUBLIC	??_C@_0BDB@OGMOMKDH@precision?5highp?5float?$DL?6layout?5?$CI@ ; `string'
PUBLIC	??_C@_0BBK@IIAKMGPG@layout?5?$CIlocation?5?$DN?50?$CJ?5in?5vec2?5P@ ; `string'
PUBLIC	??_C@_0MM@DPJDGIBF@?$CDifdef?5GL_ES?6?5?5?5?5precision?5medi@ ; `string'
PUBLIC	??_C@_0KA@HKFHPDID@uniform?5sampler2D?5Texture?$DL?6in?5v@ ; `string'
PUBLIC	??_C@_0MP@NIPCIBOH@precision?5mediump?5float?$DL?6unifor@ ; `string'
PUBLIC	??_C@_0LG@KGGNFOLP@in?5vec2?5Frag_UV?$DL?6in?5vec4?5Frag_C@ ; `string'
PUBLIC	??_C@_0O@FGFIIOKE@vertex?5shader@		; `string'
PUBLIC	??_C@_0BA@MDFBHBOK@fragment?5shader@		; `string'
PUBLIC	??_C@_0P@HEBBPOKI@shader?5program@		; `string'
PUBLIC	??_C@_07GKACAEDJ@Texture@			; `string'
PUBLIC	??_C@_07EDEMHDKD@ProjMtx@			; `string'
PUBLIC	??_C@_08GCJNLIKG@Position@			; `string'
PUBLIC	??_C@_02IGCIDAGE@UV@				; `string'
PUBLIC	imgl3wProcs
EXTRN	__imp_LoadLibraryA:PROC
imgl3wProcs DB	01d0H DUP (?)
_BSS	ENDS
;	COMDAT ??_C@_02IGCIDAGE@UV@
CONST	SEGMENT
??_C@_02IGCIDAGE@UV@ DB 'UV', 00H			; `string'
CONST	ENDS
;	COMDAT ??_C@_08GCJNLIKG@Position@
CONST	SEGMENT
??_C@_08GCJNLIKG@Position@ DB 'Position', 00H		; `string'
CONST	ENDS
;	COMDAT ??_C@_07EDEMHDKD@ProjMtx@
CONST	SEGMENT
??_C@_07EDEMHDKD@ProjMtx@ DB 'ProjMtx', 00H		; `string'
CONST	ENDS
;	COMDAT ??_C@_07GKACAEDJ@Texture@
CONST	SEGMENT
??_C@_07GKACAEDJ@Texture@ DB 'Texture', 00H		; `string'
CONST	ENDS
;	COMDAT ??_C@_0P@HEBBPOKI@shader?5program@
CONST	SEGMENT
??_C@_0P@HEBBPOKI@shader?5program@ DB 'shader program', 00H ; `string'
CONST	ENDS
;	COMDAT ??_C@_0BA@MDFBHBOK@fragment?5shader@
CONST	SEGMENT
??_C@_0BA@MDFBHBOK@fragment?5shader@ DB 'fragment shader', 00H ; `string'
CONST	ENDS
;	COMDAT ??_C@_0O@FGFIIOKE@vertex?5shader@
CONST	SEGMENT
??_C@_0O@FGFIIOKE@vertex?5shader@ DB 'vertex shader', 00H ; `string'
CONST	ENDS
;	COMDAT ??_C@_0LG@KGGNFOLP@in?5vec2?5Frag_UV?$DL?6in?5vec4?5Frag_C@
CONST	SEGMENT
??_C@_0LG@KGGNFOLP@in?5vec2?5Frag_UV?$DL?6in?5vec4?5Frag_C@ DB 'in vec2 F'
	DB	'rag_UV;', 0aH, 'in vec4 Frag_Color;', 0aH, 'uniform sampler2D'
	DB	' Texture;', 0aH, 'layout (location = 0) out vec4 Out_Color;', 0aH
	DB	'void main()', 0aH, '{', 0aH, '    Out_Color = Frag_Color * te'
	DB	'xture(Texture, Frag_UV.st);', 0aH, '}', 0aH, 00H ; `string'
CONST	ENDS
;	COMDAT ??_C@_0MP@NIPCIBOH@precision?5mediump?5float?$DL?6unifor@
CONST	SEGMENT
??_C@_0MP@NIPCIBOH@precision?5mediump?5float?$DL?6unifor@ DB 'precision m'
	DB	'ediump float;', 0aH, 'uniform sampler2D Texture;', 0aH, 'in v'
	DB	'ec2 Frag_UV;', 0aH, 'in vec4 Frag_Color;', 0aH, 'layout (loca'
	DB	'tion = 0) out vec4 Out_Color;', 0aH, 'void main()', 0aH, '{', 0aH
	DB	'    Out_Color = Frag_Color * texture(Texture, Frag_UV.st);', 0aH
	DB	'}', 0aH, 00H				; `string'
CONST	ENDS
;	COMDAT ??_C@_0KA@HKFHPDID@uniform?5sampler2D?5Texture?$DL?6in?5v@
CONST	SEGMENT
??_C@_0KA@HKFHPDID@uniform?5sampler2D?5Texture?$DL?6in?5v@ DB 'uniform sa'
	DB	'mpler2D Texture;', 0aH, 'in vec2 Frag_UV;', 0aH, 'in vec4 Fra'
	DB	'g_Color;', 0aH, 'out vec4 Out_Color;', 0aH, 'void main()', 0aH
	DB	'{', 0aH, '    Out_Color = Frag_Color * texture(Texture, Frag_'
	DB	'UV.st);', 0aH, '}', 0aH, 00H		; `string'
CONST	ENDS
;	COMDAT ??_C@_0MM@DPJDGIBF@?$CDifdef?5GL_ES?6?5?5?5?5precision?5medi@
CONST	SEGMENT
??_C@_0MM@DPJDGIBF@?$CDifdef?5GL_ES?6?5?5?5?5precision?5medi@ DB '#ifdef '
	DB	'GL_ES', 0aH, '    precision mediump float;', 0aH, '#endif', 0aH
	DB	'uniform sampler2D Texture;', 0aH, 'varying vec2 Frag_UV;', 0aH
	DB	'varying vec4 Frag_Color;', 0aH, 'void main()', 0aH, '{', 0aH, ' '
	DB	'   gl_FragColor = Frag_Color * texture2D(Texture, Frag_UV.st)'
	DB	';', 0aH, '}', 0aH, 00H			; `string'
CONST	ENDS
;	COMDAT ??_C@_0BBK@IIAKMGPG@layout?5?$CIlocation?5?$DN?50?$CJ?5in?5vec2?5P@
CONST	SEGMENT
??_C@_0BBK@IIAKMGPG@layout?5?$CIlocation?5?$DN?50?$CJ?5in?5vec2?5P@ DB 'l'
	DB	'ayout (location = 0) in vec2 Position;', 0aH, 'layout (locati'
	DB	'on = 1) in vec2 UV;', 0aH, 'layout (location = 2) in vec4 Col'
	DB	'or;', 0aH, 'uniform mat4 ProjMtx;', 0aH, 'out vec2 Frag_UV;', 0aH
	DB	'out vec4 Frag_Color;', 0aH, 'void main()', 0aH, '{', 0aH, '  '
	DB	'  Frag_UV = UV;', 0aH, '    Frag_Color = Color;', 0aH, '    g'
	DB	'l_Position = ProjMtx * vec4(Position.xy,0,1);', 0aH, '}', 0aH
	DB	00H						; `string'
CONST	ENDS
;	COMDAT ??_C@_0BDB@OGMOMKDH@precision?5highp?5float?$DL?6layout?5?$CI@
CONST	SEGMENT
??_C@_0BDB@OGMOMKDH@precision?5highp?5float?$DL?6layout?5?$CI@ DB 'precis'
	DB	'ion highp float;', 0aH, 'layout (location = 0) in vec2 Positi'
	DB	'on;', 0aH, 'layout (location = 1) in vec2 UV;', 0aH, 'layout '
	DB	'(location = 2) in vec4 Color;', 0aH, 'uniform mat4 ProjMtx;', 0aH
	DB	'out vec2 Frag_UV;', 0aH, 'out vec4 Frag_Color;', 0aH, 'void m'
	DB	'ain()', 0aH, '{', 0aH, '    Frag_UV = UV;', 0aH, '    Frag_Co'
	DB	'lor = Color;', 0aH, '    gl_Position = ProjMtx * vec4(Positio'
	DB	'n.xy,0,1);', 0aH, '}', 0aH, 00H		; `string'
CONST	ENDS
;	COMDAT ??_C@_0NI@FNJCCLKC@uniform?5mat4?5ProjMtx?$DL?6in?5vec2?5P@
CONST	SEGMENT
??_C@_0NI@FNJCCLKC@uniform?5mat4?5ProjMtx?$DL?6in?5vec2?5P@ DB 'uniform m'
	DB	'at4 ProjMtx;', 0aH, 'in vec2 Position;', 0aH, 'in vec2 UV;', 0aH
	DB	'in vec4 Color;', 0aH, 'out vec2 Frag_UV;', 0aH, 'out vec4 Fra'
	DB	'g_Color;', 0aH, 'void main()', 0aH, '{', 0aH, '    Frag_UV = '
	DB	'UV;', 0aH, '    Frag_Color = Color;', 0aH, '    gl_Position ='
	DB	' ProjMtx * vec4(Position.xy,0,1);', 0aH, '}', 0aH, 00H ; `string'
CONST	ENDS
;	COMDAT ??_C@_0PF@HLCKEEPJ@uniform?5mat4?5ProjMtx?$DL?6attribute@
CONST	SEGMENT
??_C@_0PF@HLCKEEPJ@uniform?5mat4?5ProjMtx?$DL?6attribute@ DB 'uniform mat'
	DB	'4 ProjMtx;', 0aH, 'attribute vec2 Position;', 0aH, 'attribute'
	DB	' vec2 UV;', 0aH, 'attribute vec4 Color;', 0aH, 'varying vec2 '
	DB	'Frag_UV;', 0aH, 'varying vec4 Frag_Color;', 0aH, 'void main()'
	DB	0aH, '{', 0aH, '    Frag_UV = UV;', 0aH, '    Frag_Color = Col'
	DB	'or;', 0aH, '    gl_Position = ProjMtx * vec4(Position.xy,0,1)'
	DB	';', 0aH, '}', 0aH, 00H			; `string'
CONST	ENDS
;	COMDAT ??_C@_0M@GIPNOCDP@?$CDversion?5?$CFd@
CONST	SEGMENT
??_C@_0M@GIPNOCDP@?$CDversion?5?$CFd@ DB '#version %d', 00H ; `string'
CONST	ENDS
;	COMDAT ??_C@_0EP@EPOJCDAM@ERROR?3?5ImGui_ImplOpenGL3_Create@
CONST	SEGMENT
??_C@_0EP@EPOJCDAM@ERROR?3?5ImGui_ImplOpenGL3_Create@ DB 'ERROR: ImGui_Im'
	DB	'plOpenGL3_CreateDeviceObjects: failed to link %s! With GLSL %'
	DB	's', 0aH, 00H				; `string'
CONST	ENDS
;	COMDAT ??_C@_03OFAPEBGM@?$CFs?6@
CONST	SEGMENT
??_C@_03OFAPEBGM@?$CFs?6@ DB '%s', 0aH, 00H		; `string'
CONST	ENDS
;	COMDAT ??_C@_0FD@CCPHEBOI@ERROR?3?5ImGui_ImplOpenGL3_Create@
CONST	SEGMENT
??_C@_0FD@CCPHEBOI@ERROR?3?5ImGui_ImplOpenGL3_Create@ DB 'ERROR: ImGui_Im'
	DB	'plOpenGL3_CreateDeviceObjects: failed to compile %s! With GLS'
	DB	'L: %s', 0aH, 00H				; `string'
CONST	ENDS
;	COMDAT ??_C@_0N@NPMABONB@?$CDversion?5130@
CONST	SEGMENT
??_C@_0N@NPMABONB@?$CDversion?5130@ DB '#version 130', 00H ; `string'
CONST	ENDS
;	COMDAT ??_C@_0BD@BIIFHGKK@imgui_impl_opengl3@
CONST	SEGMENT
??_C@_0BD@BIIFHGKK@imgui_impl_opengl3@ DB 'imgui_impl_opengl3', 00H ; `string'
CONST	ENDS
;	COMDAT ??_C@_0CF@PMPPENEO@Failed?5to?5initialize?5OpenGL?5loa@
CONST	SEGMENT
??_C@_0CF@PMPPENEO@Failed?5to?5initialize?5OpenGL?5loa@ DB 'Failed to ini'
	DB	'tialize OpenGL loader!', 0aH, 00H		; `string'
CONST	ENDS
;	COMDAT ??_C@_0N@DOKAJOHF@opengl32?4dll@
CONST	SEGMENT
??_C@_0N@DOKAJOHF@opengl32?4dll@ DB 'opengl32.dll', 00H	; `string'
	ORG $+1
proc_names DQ	FLAT:??_C@_0BA@KOBBIKOF@glActiveTexture@
	DQ	FLAT:??_C@_0P@LDMLEABL@glAttachShader@
	DQ	FLAT:??_C@_0N@BONEPPLO@glBindBuffer@
	DQ	FLAT:??_C@_0O@PDEILAPG@glBindSampler@
	DQ	FLAT:??_C@_0O@JKKCIBGC@glBindTexture@
	DQ	FLAT:??_C@_0BC@LHBAHFAN@glBindVertexArray@
	DQ	FLAT:??_C@_0BA@PFHILPAN@glBlendEquation@
	DQ	FLAT:??_C@_0BI@JNHDNJAG@glBlendEquationSeparate@
	DQ	FLAT:??_C@_0BE@LLLCIIOO@glBlendFuncSeparate@
	DQ	FLAT:??_C@_0N@JHHJMABP@glBufferData@
	DQ	FLAT:??_C@_0BA@GAJMDBBN@glBufferSubData@
	DQ	FLAT:??_C@_07IBAPPAHJ@glClear@
	DQ	FLAT:??_C@_0N@OGLMDNKC@glClearColor@
	DQ	FLAT:??_C@_0BA@DGIEGONF@glCompileShader@
	DQ	FLAT:??_C@_0BA@FLKLHNKP@glCreateProgram@
	DQ	FLAT:??_C@_0P@HGHBNC@glCreateShader@
	DQ	FLAT:??_C@_0BA@DMNLADIO@glDeleteBuffers@
	DQ	FLAT:??_C@_0BA@NKGCDOPO@glDeleteProgram@
	DQ	FLAT:??_C@_0P@HHCDONAG@glDeleteShader@
	DQ	FLAT:??_C@_0BB@KMPLFJIC@glDeleteTextures@
	DQ	FLAT:??_C@_0BF@BMPCJLEF@glDeleteVertexArrays@
	DQ	FLAT:??_C@_0P@DJFJFCJL@glDetachShader@
	DQ	FLAT:??_C@_09MHGMIMKN@glDisable@
	DQ	FLAT:??_C@_0BL@NKHLOFFF@glDisableVertexAttribArray@
	DQ	FLAT:??_C@_0P@MENFIFGE@glDrawElements@
	DQ	FLAT:??_C@_0BJ@LFMMIAHA@glDrawElementsBaseVertex@
	DQ	FLAT:??_C@_08OOEHEKOP@glEnable@
	DQ	FLAT:??_C@_0BK@EHBAHNHE@glEnableVertexAttribArray@
	DQ	FLAT:??_C@_07COFELLJA@glFlush@
	DQ	FLAT:??_C@_0N@LAOHBIBA@glGenBuffers@
	DQ	FLAT:??_C@_0O@LLMANLNK@glGenTextures@
	DQ	FLAT:??_C@_0BC@EPJLBJBJ@glGenVertexArrays@
	DQ	FLAT:??_C@_0BE@BEPGJDMM@glGetAttribLocation@
	DQ	FLAT:??_C@_0L@FPKAMKHB@glGetError@
	DQ	FLAT:??_C@_0O@DHHDCCLF@glGetIntegerv@
	DQ	FLAT:??_C@_0BE@DHGHAJFL@glGetProgramInfoLog@
	DQ	FLAT:??_C@_0P@FMMDFLCO@glGetProgramiv@
	DQ	FLAT:??_C@_0BD@GIABBCMO@glGetShaderInfoLog@
	DQ	FLAT:??_C@_0O@JBDFPDMG@glGetShaderiv@
	DQ	FLAT:??_C@_0M@OPOBFDCB@glGetString@
	DQ	FLAT:??_C@_0N@PILJCBOD@glGetStringi@
	DQ	FLAT:??_C@_0BF@KIOPGICP@glGetUniformLocation@
	DQ	FLAT:??_C@_0BK@DOJMENLD@glGetVertexAttribPointerv@
	DQ	FLAT:??_C@_0BE@HLCEAPNO@glGetVertexAttribiv@
	DQ	FLAT:??_C@_0M@INHMIHKC@glIsEnabled@
	DQ	FLAT:??_C@_0O@PIOEEBPO@glLinkProgram@
	DQ	FLAT:??_C@_0O@JCCIGLOF@glPixelStorei@
	DQ	FLAT:??_C@_0O@DKMNBFMB@glPolygonMode@
	DQ	FLAT:??_C@_0N@CKFNNHOO@glReadPixels@
	DQ	FLAT:??_C@_09ECGPAEPL@glScissor@
	DQ	FLAT:??_C@_0P@DFHCPFMO@glShaderSource@
	DQ	FLAT:??_C@_0N@JBIKHLCC@glTexImage2D@
	DQ	FLAT:??_C@_0BA@KDNJAKA@glTexParameteri@
	DQ	FLAT:??_C@_0M@EMBKBDCK@glUniform1i@
	DQ	FLAT:??_C@_0BD@LNHCBEKP@glUniformMatrix4fv@
	DQ	FLAT:??_C@_0N@ICBDHBI@glUseProgram@
	DQ	FLAT:??_C@_0BG@JPNNNPKG@glVertexAttribPointer@
	DQ	FLAT:??_C@_0L@KBLIPDFH@glViewport@
PUBLIC	??$IM_DELETE@UImGui_ImplOpenGL3_Data@@@@YAXPEAUImGui_ImplOpenGL3_Data@@@Z ; IM_DELETE<ImGui_ImplOpenGL3_Data>
PUBLIC	??A?$ImVector@UImDrawCmd@@@@QEBAAEBUImDrawCmd@@H@Z ; ImVector<ImDrawCmd>::operator[]
PUBLIC	?ImGui_ImplOpenGL3_DestroyDeviceObjects@@YAXXZ	; ImGui_ImplOpenGL3_DestroyDeviceObjects
PUBLIC	?ImGui_ImplOpenGL3_CreateDeviceObjects@@YA_NXZ	; ImGui_ImplOpenGL3_CreateDeviceObjects
PUBLIC	?ImGui_ImplOpenGL3_DestroyFontsTexture@@YAXXZ	; ImGui_ImplOpenGL3_DestroyFontsTexture
PUBLIC	?ImGui_ImplOpenGL3_CreateFontsTexture@@YA_NXZ	; ImGui_ImplOpenGL3_CreateFontsTexture
PUBLIC	?ImGui_ImplOpenGL3_RenderDrawData@@YAXPEAUImDrawData@@@Z ; ImGui_ImplOpenGL3_RenderDrawData
PUBLIC	?ImGui_ImplOpenGL3_NewFrame@@YAXXZ		; ImGui_ImplOpenGL3_NewFrame
PUBLIC	?ImGui_ImplOpenGL3_Shutdown@@YAXXZ		; ImGui_ImplOpenGL3_Shutdown
PUBLIC	?ImGui_ImplOpenGL3_Init@@YA_NPEBD@Z		; ImGui_ImplOpenGL3_Init
PUBLIC	??0ImGui_ImplOpenGL3_Data@@QEAA@XZ		; ImGui_ImplOpenGL3_Data::ImGui_ImplOpenGL3_Data
PUBLIC	imgl3wInit2
PUBLIC	imgl3wInit
PUBLIC	fprintf
PUBLIC	?SetTexID@ImFontAtlas@@QEAAXPEAX@Z		; ImFontAtlas::SetTexID
PUBLIC	?GetTexID@ImDrawCmd@@QEBAPEAXXZ			; ImDrawCmd::GetTexID
libgl	DQ	01H DUP (?)
version	DQ	01H DUP (?)
wgl_get_proc_address DQ 01H DUP (?)
_BSS	ENDS
;	COMDAT pdata
pdata	SEGMENT
$pdata$??$IM_DELETE@UImGui_ImplOpenGL3_Data@@@@YAXPEAUImGui_ImplOpenGL3_Data@@@Z DD imagerel $LN13@IM_DELETE
	DD	imagerel $LN13@IM_DELETE+38
	DD	imagerel $unwind$??$IM_DELETE@UImGui_ImplOpenGL3_Data@@@@YAXPEAUImGui_ImplOpenGL3_Data@@@Z
pdata	ENDS
;	COMDAT pdata
pdata	SEGMENT
$pdata$?ImGui_ImplOpenGL3_DestroyDeviceObjects@@YAXXZ DD imagerel $LN18@ImGui_Impl
	DD	imagerel $LN18@ImGui_Impl+195
	DD	imagerel $unwind$?ImGui_ImplOpenGL3_DestroyDeviceObjects@@YAXXZ
pdata	ENDS
;	COMDAT pdata
pdata	SEGMENT
$pdata$?ImGui_ImplOpenGL3_CreateDeviceObjects@@YA_NXZ DD imagerel $LN64@ImGui_Impl
	DD	imagerel $LN64@ImGui_Impl+965
	DD	imagerel $unwind$?ImGui_ImplOpenGL3_CreateDeviceObjects@@YA_NXZ
pdata	ENDS
;	COMDAT pdata
pdata	SEGMENT
$pdata$?CheckProgram@@YA_NIPEBD@Z DD imagerel ?CheckProgram@@YA_NIPEBD@Z
	DD	imagerel ?CheckProgram@@YA_NIPEBD@Z+351
	DD	imagerel $unwind$?CheckProgram@@YA_NIPEBD@Z
pdata	ENDS
;	COMDAT pdata
pdata	SEGMENT
$pdata$?CheckShader@@YA_NIPEBD@Z DD imagerel ?CheckShader@@YA_NIPEBD@Z
	DD	imagerel ?CheckShader@@YA_NIPEBD@Z+350
	DD	imagerel $unwind$?CheckShader@@YA_NIPEBD@Z
pdata	ENDS
;	COMDAT pdata
pdata	SEGMENT
$pdata$?ImGui_ImplOpenGL3_DestroyFontsTexture@@YAXXZ DD imagerel $LN9@ImGui_Impl
	DD	imagerel $LN9@ImGui_Impl+79
	DD	imagerel $unwind$?ImGui_ImplOpenGL3_DestroyFontsTexture@@YAXXZ
pdata	ENDS
;	COMDAT pdata
pdata	SEGMENT
$pdata$?ImGui_ImplOpenGL3_CreateFontsTexture@@YA_NXZ DD imagerel $LN42@ImGui_Impl
	DD	imagerel $LN42@ImGui_Impl+461
	DD	imagerel $unwind$?ImGui_ImplOpenGL3_CreateFontsTexture@@YA_NXZ
pdata	ENDS
;	COMDAT pdata
pdata	SEGMENT
$pdata$?ImGui_ImplOpenGL3_RenderDrawData@@YAXPEAUImDrawData@@@Z DD imagerel $LN60@ImGui_Impl
	DD	imagerel $LN60@ImGui_Impl+1497
	DD	imagerel $unwind$?ImGui_ImplOpenGL3_RenderDrawData@@YAXPEAUImDrawData@@@Z
pdata	ENDS
;	COMDAT pdata
pdata	SEGMENT
$pdata$?ImGui_ImplOpenGL3_SetupRenderState@@YAXPEAUImDrawData@@HHI@Z DD imagerel ?ImGui_ImplOpenGL3_SetupRenderState@@YAXPEAUImDrawData@@HHI@Z
	DD	imagerel ?ImGui_ImplOpenGL3_SetupRenderState@@YAXPEAUImDrawData@@HHI@Z+693
	DD	imagerel $unwind$?ImGui_ImplOpenGL3_SetupRenderState@@YAXPEAUImDrawData@@HHI@Z
pdata	ENDS
;	COMDAT pdata
pdata	SEGMENT
$pdata$?ImGui_ImplOpenGL3_NewFrame@@YAXXZ DD imagerel $LN9@ImGui_Impl
	DD	imagerel $LN9@ImGui_Impl+43
	DD	imagerel $unwind$?ImGui_ImplOpenGL3_NewFrame@@YAXXZ
pdata	ENDS
;	COMDAT pdata
pdata	SEGMENT
$pdata$?ImGui_ImplOpenGL3_Shutdown@@YAXXZ DD imagerel $LN35@ImGui_Impl
	DD	imagerel $LN35@ImGui_Impl+288
	DD	imagerel $unwind$?ImGui_ImplOpenGL3_Shutdown@@YAXXZ
pdata	ENDS
;	COMDAT pdata
pdata	SEGMENT
$pdata$?ImGui_ImplOpenGL3_Init@@YA_NPEBD@Z DD imagerel $LN60@ImGui_Impl
	DD	imagerel $LN60@ImGui_Impl+651
	DD	imagerel $unwind$?ImGui_ImplOpenGL3_Init@@YA_NPEBD@Z
pdata	ENDS
;	COMDAT pdata
pdata	SEGMENT
$pdata$??0ImGui_ImplOpenGL3_Data@@QEAA@XZ DD imagerel $LN4@ImGui_Impl
	DD	imagerel $LN4@ImGui_Impl+29
	DD	imagerel $unwind$??0ImGui_ImplOpenGL3_Data@@QEAA@XZ
pdata	ENDS
;	COMDAT pdata
pdata	SEGMENT
$pdata$load_procs DD imagerel load_procs
	DD	imagerel load_procs+64
	DD	imagerel $unwind$load_procs
pdata	ENDS
;	COMDAT pdata
pdata	SEGMENT
$pdata$imgl3wInit2 DD imagerel $LN17@imgl3wInit
	DD	imagerel $LN17@imgl3wInit+142
	DD	imagerel $unwind$imgl3wInit2
pdata	ENDS
;	COMDAT pdata
pdata	SEGMENT
$pdata$imgl3wInit DD imagerel $LN26@imgl3wInit
	DD	imagerel $LN26@imgl3wInit+213
	DD	imagerel $unwind$imgl3wInit
pdata	ENDS
;	COMDAT pdata
pdata	SEGMENT
$pdata$parse_version DD imagerel parse_version
	DD	imagerel parse_version+80
	DD	imagerel $unwind$parse_version
pdata	ENDS
;	COMDAT pdata
pdata	SEGMENT
$pdata$get_proc DD imagerel get_proc
	DD	imagerel get_proc+42
	DD	imagerel $unwind$get_proc
pdata	ENDS
;	COMDAT pdata
pdata	SEGMENT
$pdata$open_libgl DD imagerel open_libgl
	DD	imagerel open_libgl+66
	DD	imagerel $unwind$open_libgl
pdata	ENDS
;	COMDAT pdata
pdata	SEGMENT
$pdata$fprintf DD imagerel $LN6@fprintf
	DD	imagerel $LN6@fprintf+68
	DD	imagerel $unwind$fprintf
;	COMDAT xdata
xdata	SEGMENT
$unwind$fprintf DQ 07012521600041601r		; 7.11078e+231
	DD	030106011H
xdata	ENDS
;	COMDAT xdata
xdata	SEGMENT
$unwind$open_libgl DQ 00000420400010401r	; 3.58617e-310
xdata	ENDS
;	COMDAT xdata
xdata	SEGMENT
$unwind$get_proc DQ 03002320600020601r		; 1.96423e-77
xdata	ENDS
;	COMDAT xdata
xdata	SEGMENT
$unwind$parse_version DQ 03002320600020601r	; 1.96423e-77
xdata	ENDS
;	COMDAT xdata
xdata	SEGMENT
$unwind$imgl3wInit DQ 00007640f00060f01r	; 1.02782e-308
	DQ	0700b320f0006340fr		; 5.2777e+231
xdata	ENDS
;	COMDAT xdata
xdata	SEGMENT
$unwind$imgl3wInit2 DQ 00007640f00060f01r	; 1.02782e-308
	DQ	0700b320f0006340fr		; 5.2777e+231
xdata	ENDS
;	COMDAT xdata
xdata	SEGMENT
$unwind$load_procs DQ 00006340a00040a01r	; 8.62672e-309
	DD	07006320aH
xdata	ENDS
;	COMDAT xdata
xdata	SEGMENT
$unwind$??0ImGui_ImplOpenGL3_Data@@QEAA@XZ DQ 03002320600020601r ; 1.96423e-77
xdata	ENDS
;	COMDAT xdata
xdata	SEGMENT
$unwind$?ImGui_ImplOpenGL3_Init@@YA_NPEBD@Z DQ 0000df41b000a2919r ; 1.94048e-308
	DQ	0000b641b000c741br		; 1.58412e-308
	DQ	05014721b000a341br		; 5.91863e+77
	DD	imagerel __GSHandlerCheck
	DD	038H
xdata	ENDS
;	COMDAT xdata
xdata	SEGMENT
$unwind$?ImGui_ImplOpenGL3_Shutdown@@YAXXZ DQ 000097419000a1901r ; 1.31467e-308
	DQ	00007541900086419r		; 1.01915e-308
	DQ	0e015321900063419r		; -7.10469e+154
xdata	ENDS
;	COMDAT xdata
xdata	SEGMENT
$unwind$?ImGui_ImplOpenGL3_NewFrame@@YAXXZ DQ 00000420400010401r ; 3.58617e-310
xdata	ENDS
;	COMDAT xdata
xdata	SEGMENT
$unwind$?ImGui_ImplOpenGL3_SetupRenderState@@YAXPEAUImDrawData@@HHI@Z DQ 00009681e000c2c19r ; 1.30816e-308
	DQ	0e00df00f0015011ar		; -5.01749e+154
	DQ	060067007c009d00br		; 3.76049e+154
	DD	050043005H
	DD	imagerel __GSHandlerCheck
	DD	080H
xdata	ENDS
;	COMDAT xdata
xdata	SEGMENT
$unwind$?ImGui_ImplOpenGL3_RenderDrawData@@YAXPEAUImDrawData@@@Z DQ 0000b983500154319r ; 1.61242e-308
	DQ	0000d782b000c8830r		; 1.87315e-308
	DQ	000277423000e6827r		; 6.52327e-308
	DQ	00025342300266423r		; 5.89746e-308
	DQ	0e016f018001e0123r		; -7.68866e+154
	DQ	000005010c012d014r		; 4.3494e-310
	DD	imagerel __GSHandlerCheck
	DD	0a8H
xdata	ENDS
;	COMDAT xdata
xdata	SEGMENT
$unwind$?ImGui_ImplOpenGL3_CreateFontsTexture@@YA_NXZ DQ 000127419000a2819r ; 2.56628e-308
	DQ	00010341900116419r		; 2.25337e-308
	DQ	0c011e013f015b219r		; -4.46883
	DD	imagerel __GSHandlerCheck
	DD	058H
xdata	ENDS
;	COMDAT xdata
xdata	SEGMENT
$unwind$?ImGui_ImplOpenGL3_DestroyFontsTexture@@YAXXZ DQ 00006340a00040a01r ; 8.62672e-309
	DD	07006320aH
xdata	ENDS
;	COMDAT xdata
xdata	SEGMENT
$ip2state$?CheckShader@@YA_NIPEBD@Z DQ 04204da02b200a208r ; 1.11946e+10
	DB	00H
xdata	ENDS
;	COMDAT xdata
xdata	SEGMENT
$stateUnwindMap$?CheckShader@@YA_NIPEBD@Z DW 0a04H
	DD	imagerel ??1?$ImVector@D@@QEAA@XZ
	DW	03e40H
	DD	imagerel __std_terminate
xdata	ENDS
;	COMDAT xdata
xdata	SEGMENT
$cppxdata$?CheckShader@@YA_NIPEBD@Z DB 028H
	DD	imagerel $stateUnwindMap$?CheckShader@@YA_NIPEBD@Z
	DD	imagerel $ip2state$?CheckShader@@YA_NIPEBD@Z
xdata	ENDS
;	COMDAT xdata
xdata	SEGMENT
$unwind$?CheckShader@@YA_NIPEBD@Z DQ 0000f641500082319r ; 2.14037e-308
	DQ	0e00e7215000e3415r		; -5.10261e+154
	DD	0500b700cH
	DD	imagerel __GSHandlerCheck_EH4
	DD	imagerel $cppxdata$?CheckShader@@YA_NIPEBD@Z
	DD	03aH
xdata	ENDS
;	COMDAT xdata
xdata	SEGMENT
$ip2state$?CheckProgram@@YA_NIPEBD@Z DQ 04204da02ba009c08r ; 1.11946e+10
	DB	00H
xdata	ENDS
;	COMDAT xdata
xdata	SEGMENT
$stateUnwindMap$?CheckProgram@@YA_NIPEBD@Z DW 0a04H
	DD	imagerel ??1?$ImVector@D@@QEAA@XZ
	DW	03e40H
	DD	imagerel __std_terminate
xdata	ENDS
;	COMDAT xdata
xdata	SEGMENT
$cppxdata$?CheckProgram@@YA_NIPEBD@Z DB 028H
	DD	imagerel $stateUnwindMap$?CheckProgram@@YA_NIPEBD@Z
	DD	imagerel $ip2state$?CheckProgram@@YA_NIPEBD@Z
xdata	ENDS
;	COMDAT xdata
xdata	SEGMENT
$unwind$?CheckProgram@@YA_NIPEBD@Z DQ 0000e641500082319r ; 2.00131e-308
	DQ	0e00e7215000d3415r		; -5.10261e+154
	DD	0500b700cH
	DD	imagerel __GSHandlerCheck_EH4
	DD	imagerel $cppxdata$?CheckProgram@@YA_NIPEBD@Z
	DD	03aH
xdata	ENDS
;	COMDAT xdata
xdata	SEGMENT
$ip2state$?ImGui_ImplOpenGL3_CreateDeviceObjects@@YA_NXZ DQ 004e802074d00a208r ; 5.04532e-285
	DW	042H
xdata	ENDS
;	COMDAT xdata
xdata	SEGMENT
$stateUnwindMap$?ImGui_ImplOpenGL3_CreateDeviceObjects@@YA_NXZ DW 0a04H
	DD	imagerel ??1?$ImVector@D@@QEAA@XZ
	DW	03e40H
	DD	imagerel __std_terminate
xdata	ENDS
;	COMDAT xdata
xdata	SEGMENT
$cppxdata$?ImGui_ImplOpenGL3_CreateDeviceObjects@@YA_NXZ DB 028H
	DD	imagerel $stateUnwindMap$?ImGui_ImplOpenGL3_CreateDeviceObjects@@YA_NXZ
	DD	imagerel $ip2state$?ImGui_ImplOpenGL3_CreateDeviceObjects@@YA_NXZ
xdata	ENDS
;	COMDAT xdata
xdata	SEGMENT
$unwind$?ImGui_ImplOpenGL3_CreateDeviceObjects@@YA_NXZ DQ 00016741f000c2d19r ; 3.12256e-308
	DQ	00014341f0015641fr		; 2.80966e-308
	DQ	0d014e016f018d21fr		; -6.043e+77
	DD	05010c012H
	DD	imagerel __GSHandlerCheck_EH4
	DD	imagerel $cppxdata$?ImGui_ImplOpenGL3_CreateDeviceObjects@@YA_NXZ
	DD	06aH
xdata	ENDS
;	COMDAT xdata
xdata	SEGMENT
$unwind$?ImGui_ImplOpenGL3_DestroyDeviceObjects@@YAXXZ DQ 00007640f00060f01r ; 1.02782e-308
	DQ	0700b320f0006340fr		; 5.2777e+231
xdata	ENDS
;	COMDAT xdata
xdata	SEGMENT
$unwind$??$IM_DELETE@UImGui_ImplOpenGL3_Data@@@@YAXPEAUImGui_ImplOpenGL3_Data@@@Z DQ 00000420400010401r ; 3.58617e-310
END
