; Listing generated by Microsoft (R) Optimizing Compiler Version 19.36.32538.0 

include listing.inc

INCLUDELIB OLDNAMES

PUBLIC	??_C@_0P@HEMCFMMD@?$CKMissing?5Text?$CK@	; `string'
PUBLIC	??_C@_09BJIHMJFE@imgui?4ini@			; `string'
PUBLIC	??_C@_0O@HCOAADPE@imgui_log?4txt@		; `string'
PUBLIC	??_C@_00CNPNBAHC@@				; `string'
PUBLIC	??_C@_0CB@GNIOCDHI@Clipper?3?5Begin?$CI?$CFd?0?$CF?42f?$CJ?5in?5?8?$CFs?8@ ; `string'
PUBLIC	??_C@_0BI@CAOKIKBG@Clipper?3?5End?$CI?$CJ?5in?5?8?$CFs?8?6@ ; `string'
PUBLIC	??_C@_0CL@INMALPKG@Clipper?3?5Step?$CI?$CJ?3?5inside?5frozen?5@ ; `string'
PUBLIC	??_C@_0CO@DPDPBJBN@Clipper?3?5Step?$CI?$CJ?3?5computed?5Items@ ; `string'
PUBLIC	??_C@_0CE@JEMCBOCJ@Clipper?3?5Step?$CI?$CJ?3?5display?5?$CFd?5to?5@ ; `string'
PUBLIC	??_C@_0BH@MKOKNAKC@Clipper?3?5Step?$CI?$CJ?3?5End?4?6@ ; `string'
PUBLIC	??_C@_04OJAHODMC@Text@				; `string'
PUBLIC	??_C@_0N@LNHHFNPK@TextDisabled@			; `string'
PUBLIC	??_C@_08DMKFNKPN@WindowBg@			; `string'
PUBLIC	??_C@_07BLEJOHFO@ChildBg@			; `string'
PUBLIC	??_C@_07LKIIIJHA@PopupBg@			; `string'
PUBLIC	??_C@_06CMOGDIBK@Border@			; `string'
PUBLIC	??_C@_0N@DECGFAEC@BorderShadow@			; `string'
PUBLIC	??_C@_07PJIIOGAC@FrameBg@			; `string'
PUBLIC	??_C@_0P@KIOOHHAC@FrameBgHovered@		; `string'
PUBLIC	??_C@_0O@BGDCDDEA@FrameBgActive@		; `string'
PUBLIC	??_C@_07MMLEKCPI@TitleBg@			; `string'
PUBLIC	??_C@_0O@JHBFJHNE@TitleBgActive@		; `string'
PUBLIC	??_C@_0BB@EGCOMBJG@TitleBgCollapsed@		; `string'
PUBLIC	??_C@_09GEKCKLDE@MenuBarBg@			; `string'
PUBLIC	??_C@_0M@MFDHPFJF@ScrollbarBg@			; `string'
PUBLIC	??_C@_0O@HABIDNBE@ScrollbarGrab@		; `string'
PUBLIC	??_C@_0BF@JFEOOMLL@ScrollbarGrabHovered@	; `string'
PUBLIC	??_C@_0BE@GODMFNCF@ScrollbarGrabActive@		; `string'
PUBLIC	??_C@_09DMKAANGE@CheckMark@			; `string'
PUBLIC	??_C@_0L@LAMBADIC@SliderGrab@			; `string'
PUBLIC	??_C@_0BB@HBOBMOMP@SliderGrabActive@		; `string'
PUBLIC	??_C@_06LKBCGDFD@Button@			; `string'
PUBLIC	??_C@_0O@HBCGNIAI@ButtonHovered@		; `string'
PUBLIC	??_C@_0N@IMHOFKJ@ButtonActive@			; `string'
PUBLIC	??_C@_06OENKJGA@Header@				; `string'
PUBLIC	??_C@_0O@HAINNLMC@HeaderHovered@		; `string'
PUBLIC	??_C@_0N@HILFCJOI@HeaderActive@			; `string'
PUBLIC	??_C@_09IBFEOKHN@Separator@			; `string'
PUBLIC	??_C@_0BB@CHICANJA@SeparatorHovered@		; `string'
PUBLIC	??_C@_0BA@BPNGFOJM@SeparatorActive@		; `string'
PUBLIC	??_C@_0L@NGBDNFNJ@ResizeGrip@			; `string'
PUBLIC	??_C@_0BC@NNEDPMNH@ResizeGripHovered@		; `string'
PUBLIC	??_C@_0BB@NBBKHKIC@ResizeGripActive@		; `string'
PUBLIC	??_C@_03IEAKBACE@Tab@				; `string'
PUBLIC	??_C@_0L@JFDLBKBD@TabHovered@			; `string'
PUBLIC	??_C@_09BLMKPFCF@TabActive@			; `string'
PUBLIC	??_C@_0N@KLEENDFP@TabUnfocused@			; `string'
PUBLIC	??_C@_0BD@JMEALEPP@TabUnfocusedActive@		; `string'
PUBLIC	??_C@_09HDJFFJLL@PlotLines@			; `string'
PUBLIC	??_C@_0BB@OMALNJLN@PlotLinesHovered@		; `string'
PUBLIC	??_C@_0O@EEKOCENA@PlotHistogram@		; `string'
PUBLIC	??_C@_0BF@GJALJGDC@PlotHistogramHovered@	; `string'
PUBLIC	??_C@_0O@OAEMMJAA@TableHeaderBg@		; `string'
PUBLIC	??_C@_0BC@EJINMLMM@TableBorderStrong@		; `string'
PUBLIC	??_C@_0BB@IPAPNNJD@TableBorderLight@		; `string'
PUBLIC	??_C@_0L@LLALIFOE@TableRowBg@			; `string'
PUBLIC	??_C@_0O@FGPLHMKP@TableRowBgAlt@		; `string'
PUBLIC	??_C@_0P@IBBLAEBJ@TextSelectedBg@		; `string'
PUBLIC	??_C@_0P@GDDMCLOI@DragDropTarget@		; `string'
PUBLIC	??_C@_0N@ENCIHEPH@NavHighlight@			; `string'
PUBLIC	??_C@_0BG@MCGDEFOI@NavWindowingHighlight@	; `string'
PUBLIC	??_C@_0BC@JHKONDGH@NavWindowingDimBg@		; `string'
PUBLIC	??_C@_0BB@JOEAHKNC@ModalWindowDimBg@		; `string'
PUBLIC	??_C@_07NBCGADJA@Unknown@			; `string'
PUBLIC	??_C@_05EJCOBEBF@?$CDMOVE@			; `string'
PUBLIC	??_C@_0CD@PNHNJJBD@SetActiveID?$CI?$CJ?5cancel?5MovingWind@ ; `string'
PUBLIC	??_C@_0EE@BGNDHHFI@SetActiveID?$CI?$CJ?5old?30x?$CF08X?5?$CIwindo@ ; `string'
PUBLIC	??_C@_0L@CBCMKGPN@1?489?41?5WIP@		; `string'
PUBLIC	??_C@_0N@MFFOHPLI@?$CD?$CDBackground@		; `string'
PUBLIC	??_C@_0N@MFHPHIIJ@?$CD?$CDForeground@		; `string'
PUBLIC	??_C@_04HIBGFPH@NULL@				; `string'
PUBLIC	??_C@_0BL@JLLLOAEH@LockWheelingWindow?$CI?$CJ?5?$CC?$CFs?$CC?6@ ; `string'
PUBLIC	??_C@_0EE@CAHEIKBO@NewFrame?$CI?$CJ?3?5ClearActiveID?$CI?$CJ?5bec@ ; `string'
PUBLIC	??_C@_0P@IMLDNMEK@Debug?$CD?$CDDefault@		; `string'
PUBLIC	??_C@_0BN@CNPDCOK@Size?5column?5to?5fit?$CD?$CD?$CDSizeOne@ ; `string'
PUBLIC	??_C@_0CC@MJIBPDCL@Size?5all?5columns?5to?5fit?$CD?$CD?$CDSizeA@ ; `string'
PUBLIC	??_C@_0CG@CFICKNDA@Size?5all?5columns?5to?5default?$CD?$CD?$CDS@ ; `string'
PUBLIC	??_C@_0BJ@BBKAOKNK@Reset?5order?$CD?$CD?$CDResetOrder@ ; `string'
PUBLIC	??_C@_0BA@KDPNEDEH@?$CIMain?5menu?5bar?$CJ@	; `string'
PUBLIC	??_C@_07NPLNEKJH@?$CIPopup?$CJ@			; `string'
PUBLIC	??_C@_0L@JOJOIPFK@?$CIUntitled?$CJ@		; `string'
PUBLIC	??_C@_06BKKJGDHO@Window@			; `string'
PUBLIC	??_C@_03KHICJKCI@?4?4?4@			; `string'
PUBLIC	??_C@_0L@BDFLDJGI@?$CFs?1?$CFs_?$CF08X@		; `string'
PUBLIC	??_C@_07KBCBAKFA@?$CFs?1?$CF08X@		; `string'
PUBLIC	??_C@_07HDHBJEOI@?$CDRESIZE@			; `string'
PUBLIC	??_C@_09BJOGEADB@?$CDCOLLAPSE@			; `string'
PUBLIC	??_C@_06KIIKKNMI@?$CDCLOSE@			; `string'
PUBLIC	??_C@_0CJ@HBEFDIPK@SetKeyboardFocusHere?$CI?$CFd?$CJ?5in?5win@ ; `string'
PUBLIC	??_C@_0DG@HEGBDNMN@SetKeyboardFocusHere?$CI?$CJ?5ignored?5@ ; `string'
PUBLIC	??_C@_09CFHBIIBF@LeftArrow@			; `string'
PUBLIC	??_C@_0L@BPKGMHEK@RightArrow@			; `string'
PUBLIC	??_C@_07MOKGGMEC@UpArrow@			; `string'
PUBLIC	??_C@_09NADHLAEK@DownArrow@			; `string'
PUBLIC	??_C@_06OAEMCMAI@PageUp@			; `string'
PUBLIC	??_C@_08FDLMHKA@PageDown@			; `string'
PUBLIC	??_C@_04GKJODLKO@Home@				; `string'
PUBLIC	??_C@_03DBKJMAGF@End@				; `string'
PUBLIC	??_C@_06CPFCODOD@Insert@			; `string'
PUBLIC	??_C@_06JBKGCNBB@Delete@			; `string'
PUBLIC	??_C@_09LPBCIPOJ@Backspace@			; `string'
PUBLIC	??_C@_05OMHELODH@Space@				; `string'
PUBLIC	??_C@_05IAOCCJNL@Enter@				; `string'
PUBLIC	??_C@_06OIGFGPHJ@Escape@			; `string'
PUBLIC	??_C@_08KELNAOFC@LeftCtrl@			; `string'
PUBLIC	??_C@_09OCNLBMHE@LeftShift@			; `string'
PUBLIC	??_C@_07MGKIIPNA@LeftAlt@			; `string'
PUBLIC	??_C@_09DKGEOIN@LeftSuper@			; `string'
PUBLIC	??_C@_09MGKDJPDD@RightCtrl@			; `string'
PUBLIC	??_C@_0L@NIAMFDCL@RightShift@			; `string'
PUBLIC	??_C@_08FCEDBIM@RightAlt@			; `string'
PUBLIC	??_C@_0L@DJHBABNC@RightSuper@			; `string'
PUBLIC	??_C@_04IFEHPILC@Menu@				; `string'
PUBLIC	??_C@_01GBGANLPD@0@				; `string'
PUBLIC	??_C@_01HIHLOKLC@1@				; `string'
PUBLIC	??_C@_01FDFGLJHB@2@				; `string'
PUBLIC	??_C@_01EKENIIDA@3@				; `string'
PUBLIC	??_C@_01FAMBOPH@4@				; `string'
PUBLIC	??_C@_01BMBHCPLG@5@				; `string'
PUBLIC	??_C@_01DHDKHMHF@6@				; `string'
PUBLIC	??_C@_01COCBENDE@7@				; `string'
PUBLIC	??_C@_01KJLJFBPL@8@				; `string'
PUBLIC	??_C@_01LAKCGALK@9@				; `string'
PUBLIC	??_C@_01FHEEJDEE@A@				; `string'
PUBLIC	??_C@_01HMGJMAIH@B@				; `string'
PUBLIC	??_C@_01GFHCPBMG@C@				; `string'
PUBLIC	??_C@_01CKDDGHAB@D@				; `string'
PUBLIC	??_C@_01DDCIFGEA@E@				; `string'
PUBLIC	??_C@_01BIAFAFID@F@				; `string'
PUBLIC	??_C@_01BBODEMC@G@				; `string'
PUBLIC	??_C@_01IGIGCIAN@H@				; `string'
PUBLIC	??_C@_01JPJNBJEM@I@				; `string'
PUBLIC	??_C@_01LELAEKIP@J@				; `string'
PUBLIC	??_C@_01KNKLHLMO@K@				; `string'
PUBLIC	??_C@_01OCOKONAJ@L@				; `string'
PUBLIC	??_C@_01PLPBNMEI@M@				; `string'
PUBLIC	??_C@_01NANMIPIL@N@				; `string'
PUBLIC	??_C@_01MJMHLOMK@O@				; `string'
PUBLIC	??_C@_01EJNLAFE@P@				; `string'
PUBLIC	??_C@_01BNIGIBBF@Q@				; `string'
PUBLIC	??_C@_01DGKLNCNG@R@				; `string'
PUBLIC	??_C@_01CPLAODJH@S@				; `string'
PUBLIC	??_C@_01GAPBHFFA@T@				; `string'
PUBLIC	??_C@_01HJOKEEBB@U@				; `string'
PUBLIC	??_C@_01FCMHBHNC@V@				; `string'
PUBLIC	??_C@_01ELNMCGJD@W@				; `string'
PUBLIC	??_C@_01MMEEDKFM@X@				; `string'
PUBLIC	??_C@_01NFFPALBN@Y@				; `string'
PUBLIC	??_C@_01POHCFINO@Z@				; `string'
PUBLIC	??_C@_02LCPENACN@F1@				; `string'
PUBLIC	??_C@_02JJNJIDOO@F2@				; `string'
PUBLIC	??_C@_02IAMCLCKP@F3@				; `string'
PUBLIC	??_C@_02MPIDCEGI@F4@				; `string'
PUBLIC	??_C@_02NGJIBFCJ@F5@				; `string'
PUBLIC	??_C@_02PNLFEGOK@F6@				; `string'
PUBLIC	??_C@_02OEKOHHKL@F7@				; `string'
PUBLIC	??_C@_02GDDGGLGE@F8@				; `string'
PUBLIC	??_C@_02HKCNFKCF@F9@				; `string'
PUBLIC	??_C@_03JKCLJOFG@F10@				; `string'
PUBLIC	??_C@_03IDDAKPBH@F11@				; `string'
PUBLIC	??_C@_03KIBNPMNE@F12@				; `string'
PUBLIC	??_C@_0L@KECMMICK@Apostrophe@			; `string'
PUBLIC	??_C@_05CJDGOLEJ@Comma@				; `string'
PUBLIC	??_C@_05OEAIFCGM@Minus@				; `string'
PUBLIC	??_C@_06JOFJHOEH@Period@			; `string'
PUBLIC	??_C@_05OAOMBJIJ@Slash@				; `string'
PUBLIC	??_C@_09FBGFMNJC@Semicolon@			; `string'
PUBLIC	??_C@_05JKGNJOO@Equal@				; `string'
PUBLIC	??_C@_0M@FGLAPLO@LeftBracket@			; `string'
PUBLIC	??_C@_09LDIKCIFH@Backslash@			; `string'
PUBLIC	??_C@_0N@NOCLCIPD@RightBracket@			; `string'
PUBLIC	??_C@_0M@PEGEKEFO@GraveAccent@			; `string'
PUBLIC	??_C@_08LBKIEOPK@CapsLock@			; `string'
PUBLIC	??_C@_0L@JJJEGPLJ@ScrollLock@			; `string'
PUBLIC	??_C@_07JOCOIGEJ@NumLock@			; `string'
PUBLIC	??_C@_0M@CJIDBHOK@PrintScreen@			; `string'
PUBLIC	??_C@_05PEDNBBBD@Pause@				; `string'
PUBLIC	??_C@_07PBFJOEMA@Keypad0@			; `string'
PUBLIC	??_C@_07OIECNFIB@Keypad1@			; `string'
PUBLIC	??_C@_07MDGPIGEC@Keypad2@			; `string'
PUBLIC	??_C@_07NKHELHAD@Keypad3@			; `string'
PUBLIC	??_C@_07JFDFCBME@Keypad4@			; `string'
PUBLIC	??_C@_07IMCOBAIF@Keypad5@			; `string'
PUBLIC	??_C@_07KHADEDEG@Keypad6@			; `string'
PUBLIC	??_C@_07LOBIHCAH@Keypad7@			; `string'
PUBLIC	??_C@_07DJIAGOMI@Keypad8@			; `string'
PUBLIC	??_C@_07CAJLFPIJ@Keypad9@			; `string'
PUBLIC	??_C@_0O@GMHIBIOG@KeypadDecimal@		; `string'
PUBLIC	??_C@_0N@IOPGAACF@KeypadDivide@			; `string'
PUBLIC	??_C@_0P@DDMFINAM@KeypadMultiply@		; `string'
PUBLIC	??_C@_0P@EGJPMAKL@KeypadSubtract@		; `string'
PUBLIC	??_C@_09PBFBAKNA@KeypadAdd@			; `string'
PUBLIC	??_C@_0M@LDMAMCMH@KeypadEnter@			; `string'
PUBLIC	??_C@_0M@DKIEDCPC@KeypadEqual@			; `string'
PUBLIC	??_C@_0N@KFODLNBI@GamepadStart@			; `string'
PUBLIC	??_C@_0M@BMKDKCOL@GamepadBack@			; `string'
PUBLIC	??_C@_0BA@LLLNHFDH@GamepadFaceLeft@		; `string'
PUBLIC	??_C@_0BB@KCPJBHBD@GamepadFaceRight@		; `string'
PUBLIC	??_C@_0O@NEIKDCMN@GamepadFaceUp@		; `string'
PUBLIC	??_C@_0BA@EJLJONAO@GamepadFaceDown@		; `string'
PUBLIC	??_C@_0BA@HJJJKOII@GamepadDpadLeft@		; `string'
PUBLIC	??_C@_0BB@PJOFJNNF@GamepadDpadRight@		; `string'
PUBLIC	??_C@_0O@EJODMGNP@GamepadDpadUp@		; `string'
PUBLIC	??_C@_0BA@ILJNDGLB@GamepadDpadDown@		; `string'
PUBLIC	??_C@_09BNICIIOB@GamepadL1@			; `string'
PUBLIC	??_C@_09LDKAGJL@GamepadR1@			; `string'
PUBLIC	??_C@_09DGKPNLCC@GamepadL2@			; `string'
PUBLIC	??_C@_09CABHFFFI@GamepadR2@			; `string'
PUBLIC	??_C@_09CPLEOKGD@GamepadL3@			; `string'
PUBLIC	??_C@_09DJAMGEBJ@GamepadR3@			; `string'
PUBLIC	??_C@_0BC@MGONIKHG@GamepadLStickLeft@		; `string'
PUBLIC	??_C@_0BD@KDFPDGOK@GamepadLStickRight@		; `string'
PUBLIC	??_C@_0BA@NNMPJILJ@GamepadLStickUp@		; `string'
PUBLIC	??_C@_0BC@DEOJBCEP@GamepadLStickDown@		; `string'
PUBLIC	??_C@_0BC@DKGNGFLL@GamepadRStickLeft@		; `string'
PUBLIC	??_C@_0BD@EGHGAIAI@GamepadRStickRight@		; `string'
PUBLIC	??_C@_0BA@LJMNABFK@GamepadRStickUp@		; `string'
PUBLIC	??_C@_0BC@MIGJPNIC@GamepadRStickDown@		; `string'
PUBLIC	??_C@_09DBACHFO@MouseLeft@			; `string'
PUBLIC	??_C@_0L@JGCPGDLN@MouseRight@			; `string'
PUBLIC	??_C@_0M@CDBJKEDH@MouseMiddle@			; `string'
PUBLIC	??_C@_07BICMLCEA@MouseX1@			; `string'
PUBLIC	??_C@_07DDABOBID@MouseX2@			; `string'
PUBLIC	??_C@_0M@MENPLCHJ@MouseWheelX@			; `string'
PUBLIC	??_C@_0M@NNMEIDDI@MouseWheelY@			; `string'
PUBLIC	??_C@_07KDONALCN@ModCtrl@			; `string'
PUBLIC	??_C@_08CCGGCANM@ModShift@			; `string'
PUBLIC	??_C@_06PLGJOJNE@ModAlt@			; `string'
PUBLIC	??_C@_08MDBLHCCF@ModSuper@			; `string'
PUBLIC	??_C@_03HPADHAHE@N?1A@				; `string'
PUBLIC	??_C@_04OHJIHAFH@None@				; `string'
PUBLIC	??_C@_04NGGMJLDA@Cmd?$CL@			; `string'
PUBLIC	??_C@_06PPGOOJHA@Super?$CL@			; `string'
PUBLIC	??_C@_04IDGAMEF@Alt?$CL@			; `string'
PUBLIC	??_C@_06DLOONOJK@Shift?$CL@			; `string'
PUBLIC	??_C@_05DNCIMHKL@Ctrl?$CL@			; `string'
PUBLIC	??_C@_0L@MOHIGKOO@?$CFs?$CFs?$CFs?$CFs?$CFs@	; `string'
PUBLIC	??_C@_05PEEFLODH@Mouse@				; `string'
PUBLIC	??_C@_08CPOKIBJK@Keyboard@			; `string'
PUBLIC	??_C@_07FCEHOHKC@Gamepad@			; `string'
PUBLIC	??_C@_03JFAAHAIK@Nav@				; `string'
PUBLIC	??_C@_09HLEDPOBH@Clipboard@			; `string'
PUBLIC	??_C@_0CD@LELIKCBN@?$CFs?3?5MousePos?5?$CI?9FLT_MAX?0?5?9FLT_MA@ ; `string'
PUBLIC	??_C@_0BL@MGABEGBA@?$CFs?3?5MousePos?5?$CI?$CF?41f?0?5?$CF?41f?$CJ?6@ ; `string'
PUBLIC	??_C@_04FNCLCJMC@Down@				; `string'
PUBLIC	??_C@_02EFPGLDEA@Up@				; `string'
PUBLIC	??_C@_0BH@GKKCHOFG@?$CFs?3?5MouseButton?5?$CFd?5?$CFs?6@ ; `string'
PUBLIC	??_C@_0BN@FHINFNEJ@?$CFs?3?5MouseWheel?5?$CI?$CF?41f?0?5?$CF?41f?$CJ?6@ ; `string'
PUBLIC	??_C@_0BB@CMPIMPGB@?$CFs?3?5Key?5?$CC?$CFs?$CC?5?$CFs?6@ ; `string'
PUBLIC	??_C@_0BH@OGDHKMOD@?$CFs?3?5Text?3?5?$CFc?5?$CIU?$CL?$CF08X?$CJ?6@ ; `string'
PUBLIC	??_C@_0BD@DGNDOOOH@?$CFs?3?5AppFocused?5?$CFd?6@ ; `string'
PUBLIC	??_C@_09BIONLCBB@Processed@			; `string'
PUBLIC	??_C@_09PGGNMDFB@Remaining@			; `string'
PUBLIC	??_C@_0CL@PKEBJEJO@Recovered?5from?5missing?5EndChild@ ; `string'
PUBLIC	??_C@_0CG@PCFKFCHL@Recovered?5from?5missing?5End?$CI?$CJ?5fo@ ; `string'
PUBLIC	??_C@_0CK@MCEMIAFO@Recovered?5from?5missing?5EndTable@ ; `string'
PUBLIC	??_C@_0CL@PFJDIEBE@Recovered?5from?5missing?5EndTabBa@ ; `string'
PUBLIC	??_C@_0CJ@OIELACHL@Recovered?5from?5missing?5TreePop?$CI@ ; `string'
PUBLIC	??_C@_0CK@EIGPLJIB@Recovered?5from?5missing?5EndGroup@ ; `string'
PUBLIC	??_C@_0CH@CBEJECIE@Recovered?5from?5missing?5PopID?$CI?$CJ?5@ ; `string'
PUBLIC	??_C@_0CN@OIBMKKFF@Recovered?5from?5missing?5EndDisab@ ; `string'
PUBLIC	??_C@_0DP@GKCPPFKN@Recovered?5from?5missing?5PopStyle@ ; `string'
PUBLIC	??_C@_0CN@HDGJMJNM@Recovered?5from?5missing?5PopItemF@ ; `string'
PUBLIC	??_C@_0CN@EFPNNJDL@Recovered?5from?5missing?5PopStyle@ ; `string'
PUBLIC	??_C@_0CP@NEGGJCEB@Recovered?5from?5missing?5PopFocus@ ; `string'
PUBLIC	??_C@_0P@DHLMFJKK@?$CD?$CDTooltip_?$CF02d@	; `string'
PUBLIC	??_C@_0CC@GFIPBLLA@?$FLpopup?$FN?5OpenPopup?$CI?$CC?$CFs?$CC?5?9?$DO?50x?$CF08@ ; `string'
PUBLIC	??_C@_0BN@MEGOLGEO@?$FLpopup?$FN?5OpenPopupEx?$CI0x?$CF08X?$CJ?6@ ; `string'
PUBLIC	??_C@_06CBHGEMFM@?$DMNULL?$DO@			; `string'
PUBLIC	??_C@_0CF@KJFMKFLJ@?$FLpopup?$FN?5ClosePopupsOverWindow?$CI?$CC@ ; `string'
PUBLIC	??_C@_0EH@KLKAJAPF@?$FLpopup?$FN?5ClosePopupToLevel?$CI?$CFd?$CJ?0?5@ ; `string'
PUBLIC	??_C@_0CE@FCCNCIKM@?$FLpopup?$FN?5CloseCurrentPopup?5?$CFd?5?9?$DO@ ; `string'
PUBLIC	??_C@_0M@NANGKBBK@?$CD?$CDMenu_?$CF02d@		; `string'
PUBLIC	??_C@_0N@PIPFDMLM@?$CD?$CDPopup_?$CF08x@	; `string'
PUBLIC	??_C@_0P@DCJGJLLM@window_context@		; `string'
PUBLIC	??_C@_0N@OOFNFKBH@void_context@			; `string'
PUBLIC	??_C@_0BM@CFDBCOKD@?$FLfocus?$FN?5SetNavWindow?$CI?$CC?$CFs?$CC?$CJ?6@ ; `string'
PUBLIC	??_C@_0DK@NLPDJHKG@?$FLfocus?$FN?5NavRestoreLayer?3?5from?5?$CC@ ; `string'
PUBLIC	??_C@_0FE@LKAOFKOF@?$FLnav?$FN?5NavInitRequest?3?5from?5NavI@ ; `string'
PUBLIC	??_C@_0EJ@EKHMMIGJ@?$FLnav?$FN?5NavInitRequest?3?5ApplyResu@ ; `string'
PUBLIC	??_C@_0CA@BNPHEIIJ@?$FLnav?$FN?5NavMoveRequestForward?5?$CFd?6@ ; `string'
PUBLIC	??_C@_0DI@DAIPCILO@?$FLnav?$FN?5NavInitRequest?3?5from?5move@ ; `string'
PUBLIC	??_C@_0CM@KMMAIAOD@?$FLfocus?$FN?5NavMoveRequest?3?5SetNavW@ ; `string'
PUBLIC	??_C@_0ED@JMNIALPC@?$FLnav?$FN?5NavMoveRequest?3?5result?5Na@ ; `string'
PUBLIC	??_C@_0CA@JJLLCANH@?$FLnav?$FN?5NavUpdateCancelRequest?$CI?$CJ?6@ ; `string'
PUBLIC	??_C@_0O@BKOLOJFE@?$CD?$CDMainMenuBar@		; `string'
PUBLIC	??_C@_0BE@EBHFKNCA@?$CD?$CD?$CDNavWindowingList@ ; `string'
PUBLIC	??_C@_0O@KMAIKFAM@?$CDSourceExtern@		; `string'
PUBLIC	??_C@_02PCIJFNDE@?$AN?6@			; `string'
PUBLIC	??_C@_07LFDEMEGD@?$CF?$CKs?$CF?4?$CKs@		; `string'
PUBLIC	??_C@_02BOGAIONP@ab@				; `string'
PUBLIC	??_C@_0L@DMNDGOCF@LogButtons@			; `string'
PUBLIC	??_C@_0L@COILDFG@Log?5To?5TTY@			; `string'
PUBLIC	??_C@_0M@KAEBEAHF@Log?5To?5File@		; `string'
PUBLIC	??_C@_0BB@CPOBJDKM@Log?5To?5Clipboard@		; `string'
PUBLIC	??_C@_0O@CONALMON@Default?5Depth@		; `string'
PUBLIC	??_C@_03OIJOKPOL@?$CD?$CD?$CD@			; `string'
PUBLIC	??_C@_02JDPG@rb@				; `string'
PUBLIC	??_C@_02BKFDOEMK@wt@				; `string'
PUBLIC	??_C@_09GOMOMIIP@Pos?$DN?$CFi?0?$CFi@		; `string'
PUBLIC	??_C@_0L@MPPKDMFA@Size?$DN?$CFi?0?$CFi@		; `string'
PUBLIC	??_C@_0N@IAKNMBB@Collapsed?$DN?$CFd@		; `string'
PUBLIC	??_C@_09HNFDDBIF@?$FL?$CFs?$FN?$FL?$CFs?$FN?6@	; `string'
PUBLIC	??_C@_0L@DDMADIHO@Pos?$DN?$CFd?0?$CFd?6@	; `string'
PUBLIC	??_C@_0M@CFANMDMP@Size?$DN?$CFd?0?$CFd?6@	; `string'
PUBLIC	??_C@_0O@JAFHMCKE@Collapsed?$DN?$CFd?6@		; `string'
PUBLIC	??_C@_01EEMJAFIK@?6@				; `string'
PUBLIC	??_C@_0L@NOOHJNEN@Text?3?5?$CC?$CFs?$CC@	; `string'
PUBLIC	??_C@_04DONFEANM@list@				; `string'
PUBLIC	??_C@_06GEMKPBPA@Offset@			; `string'
PUBLIC	??_C@_05EGJIMALK@UTF?98@			; `string'
PUBLIC	??_C@_05OPEAJICN@Glyph@				; `string'
PUBLIC	??_C@_09DIHJKHFA@Codepoint@			; `string'
PUBLIC	??_C@_02DPKJAMEF@?$CFd@				; `string'
PUBLIC	??_C@_06IBAGLEAI@0x?$CF02X@			; `string'
PUBLIC	??_C@_09HOBHDEIO@?$FLinvalid?$FN@		; `string'
PUBLIC	??_C@_09GCGJOJDM@?$FLmissing?$FN@		; `string'
PUBLIC	??_C@_06NGBPNBKB@U?$CL?$CF04X@			; `string'
PUBLIC	??_C@_03NAEMJKHE@?$CI?$DP?$CJ@			; `string'
PUBLIC	??_C@_0BN@JPEJHLJM@Atlas?5texture?5?$CI?$CFdx?$CFd?5pixels?$CJ@ ; `string'
PUBLIC	??_C@_0O@KCJLBEBN@Atlas?5texture@		; `string'
PUBLIC	??_C@_0BM@CNHCNFCK@Dear?5ImGui?5Metrics?1Debugger@ ; `string'
PUBLIC	??_C@_0O@NCHBJMJF@Dear?5ImGui?5?$CFs@		; `string'
PUBLIC	??_C@_0CN@EIPBEGMP@Application?5average?5?$CF?43f?5ms?1fra@ ; `string'
PUBLIC	??_C@_0CH@HHKODNBE@?$CFd?5vertices?0?5?$CFd?5indices?5?$CI?$CFd?5tri@ ; `string'
PUBLIC	??_C@_0CK@GDPKNEKJ@?$CFd?5visible?5windows?0?5?$CFd?5active?5a@ ; `string'
PUBLIC	??_C@_09DBGHEPMN@OuterRect@			; `string'
PUBLIC	??_C@_0BB@CJNOCIFN@OuterRectClipped@		; `string'
PUBLIC	??_C@_09PPJHMOMF@InnerRect@			; `string'
PUBLIC	??_C@_0O@BNFMFEHO@InnerClipRect@		; `string'
PUBLIC	??_C@_08FACDBJHD@WorkRect@			; `string'
PUBLIC	??_C@_07HLHPKMFI@Content@			; `string'
PUBLIC	??_C@_0N@FEPIKFED@ContentIdeal@			; `string'
PUBLIC	??_C@_0BC@NDBPEMLC@ContentRegionRect@		; `string'
PUBLIC	??_C@_0N@OPBPMFAC@HostClipRect@			; `string'
PUBLIC	??_C@_0BD@PAHDAJDC@BackgroundClipRect@		; `string'
PUBLIC	??_C@_0M@CDCMPDKG@ColumnsRect@			; `string'
PUBLIC	??_C@_0BA@ODEDLNCO@ColumnsWorkRect@		; `string'
PUBLIC	??_C@_0BA@JACIJDNM@ColumnsClipRect@		; `string'
PUBLIC	??_C@_0BK@BLBFMAOD@ColumnsContentHeadersUsed@	; `string'
PUBLIC	??_C@_0BL@FAEPMJDA@ColumnsContentHeadersIdeal@	; `string'
PUBLIC	??_C@_0BF@HAPEHPAK@ColumnsContentFrozen@	; `string'
PUBLIC	??_C@_0BH@NNGOPODG@ColumnsContentUnfrozen@	; `string'
PUBLIC	??_C@_05OENKALAF@Tools@				; `string'
PUBLIC	??_C@_0BG@EANHHHDM@UTF?98?5Encoding?5viewer@	; `string'
PUBLIC	??_C@_0IH@JFLBENFG@You?5can?5also?5call?5ImGui?3?3DebugT@ ; `string'
PUBLIC	??_C@_06MNCEJPDI@?$CD?$CDText@			; `string'
PUBLIC	??_C@_0BB@KCIONAAN@Show?5Item?5Picker@		; `string'
PUBLIC	??_C@_0IF@BGKDCLHL@Will?5call?5the?5IM_DEBUG_BREAK?$CI?$CJ?5@ ; `string'
PUBLIC	??_C@_0P@DGHPLGOO@Show?5Debug?5Log@		; `string'
PUBLIC	??_C@_0DO@CKGHHFPI@You?5can?5also?5call?5ImGui?3?3ShowDe@ ; `string'
PUBLIC	??_C@_0BA@NLBHEMBK@Show?5Stack?5Tool@		; `string'
PUBLIC	??_C@_0DP@EIGJLOOL@You?5can?5also?5call?5ImGui?3?3ShowSt@ ; `string'
PUBLIC	??_C@_0BJ@HJBAEIMP@Show?5windows?5begin?5order@	; `string'
PUBLIC	??_C@_0BI@DIKJGFFM@Show?5windows?5rectangles@	; `string'
PUBLIC	??_C@_0BJ@OFHLDDCB@?$CD?$CDshow_windows_rect_type@ ; `string'
PUBLIC	??_C@_05DMJEEKMI@?8?$CFs?8?3@			; `string'
PUBLIC	??_C@_0DC@MPAIEFII@?$CI?$CF6?41f?0?$CF6?41f?$CJ?5?$CI?$CF6?41f?0?$CF6?41f?$CJ?5Siz@ ; `string'
PUBLIC	??_C@_0BH@GINBNIDO@Show?5tables?5rectangles@	; `string'
PUBLIC	??_C@_0BI@CCENNJPN@?$CD?$CDshow_table_rects_type@ ; `string'
PUBLIC	??_C@_0CD@PGABKCAC@Table?50x?$CF08X?5?$CI?$CFd?5columns?0?5in?5?8?$CF@ ; `string'
PUBLIC	??_C@_0DJ@IFLDIHOJ@?$CI?$CF6?41f?0?$CF6?41f?$CJ?5?$CI?$CF6?41f?0?$CF6?41f?$CJ?5Siz@ ; `string'
PUBLIC	??_C@_0N@HJIBBJFL@Windows?5?$CI?$CFd?$CJ@	; `string'
PUBLIC	??_C@_07LDLFNPGN@Windows@			; `string'
PUBLIC	??_C@_0BB@OFNDBHKO@By?5display?5order@		; `string'
PUBLIC	??_C@_0BO@HBHGMPEI@By?5focus?5order?5?$CIroot?5windows?$CJ@ ; `string'
PUBLIC	??_C@_0CC@PJNGLIEE@By?5submission?5order?5?$CIbegin?5stac@ ; `string'
PUBLIC	??_C@_0P@EHGADCPI@DrawLists?5?$CI?$CFd?$CJ@	; `string'
PUBLIC	??_C@_09KCCHKPGA@DrawLists@			; `string'
PUBLIC	??_C@_0CC@NLEJJGFA@Show?5ImDrawCmd?5mesh?5when?5hoveri@ ; `string'
PUBLIC	??_C@_0CM@GCNMPAKG@Show?5ImDrawCmd?5bounding?5boxes?5w@ ; `string'
PUBLIC	??_C@_08IJNCDCKF@DrawList@			; `string'
PUBLIC	??_C@_0P@HKKCMMOO@Viewports?5?$CI?$CFd?$CJ@	; `string'
PUBLIC	??_C@_09GPOHHJPA@Viewports@			; `string'
PUBLIC	??_C@_0M@CMLJJLKO@Popups?5?$CI?$CFd?$CJ@	; `string'
PUBLIC	??_C@_06ENDEIGLN@Popups@			; `string'
PUBLIC	??_C@_05BJFIHKGA@Menu?$DL@			; `string'
PUBLIC	??_C@_06GFGJBDBB@Child?$DL@			; `string'
PUBLIC	??_C@_0EM@HDANJEGB@PopupID?3?5?$CF08x?0?5Window?3?5?8?$CFs?8?5?$CI?$CFs@ ; `string'
PUBLIC	??_C@_0O@JLIGAOM@Tab?5Bars?5?$CI?$CFd?$CJ@	; `string'
PUBLIC	??_C@_07NBICDJOO@TabBars@			; `string'
PUBLIC	??_C@_06PAFCDPCC@TabBar@			; `string'
PUBLIC	??_C@_0M@GKKKBBGH@Tables?5?$CI?$CFd?$CJ@	; `string'
PUBLIC	??_C@_06KOKNHOLC@Tables@			; `string'
PUBLIC	??_C@_0L@IBDLAPEA@Fonts?5?$CI?$CFd?$CJ@		; `string'
PUBLIC	??_C@_05ENDNDI@Fonts@				; `string'
PUBLIC	??_C@_09LIBCCLDO@InputText@			; `string'
PUBLIC	??_C@_08EEOHOBEO@Settings@			; `string'
PUBLIC	??_C@_05MDNHABIA@Clear@				; `string'
PUBLIC	??_C@_0P@BGFPLLLP@Save?5to?5memory@		; `string'
PUBLIC	??_C@_0N@PMPOLMLD@Save?5to?5disk@		; `string'
PUBLIC	??_C@_04OEDFLLKD@?$CC?$CFs?$CC@			; `string'
PUBLIC	??_C@_0BI@KCGHKNOH@SettingsDirtyTimer?5?$CF?42f@ ; `string'
PUBLIC	??_C@_0BI@PGENAEOL@Settings?5handlers?3?5?$CI?$CFd?$CJ@ ; `string'
PUBLIC	??_C@_0BB@NEINIHH@SettingsHandlers@		; `string'
PUBLIC	??_C@_02DKCKIIND@?$CFs@				; `string'
PUBLIC	??_C@_0CI@CKIDLOMN@Settings?5packed?5data?3?5Windows?3?5@ ; `string'
PUBLIC	??_C@_0BA@GOMGONFN@SettingsWindows@		; `string'
PUBLIC	??_C@_0CH@GODOBOJJ@Settings?5packed?5data?3?5Tables?3?5?$CF@ ; `string'
PUBLIC	??_C@_0P@NAODIHNN@SettingsTables@		; `string'
PUBLIC	??_C@_0CI@MPNDIPDD@Settings?5unpacked?5data?5?$CI?4ini?$CJ?3?5@ ; `string'
PUBLIC	??_C@_0BA@IEPJFGMP@SettingsIniData@		; `string'
PUBLIC	??_C@_05FJAOFNGD@?$CD?$CDIni@			; `string'
PUBLIC	??_C@_0BO@ONOELDBH@Key?5Owners?5?$CG?5Shortcut?5Routing@ ; `string'
PUBLIC	??_C@_0M@GEIDPEHB@Key?5Owners?3@		; `string'
PUBLIC	??_C@_08MHDHGJOB@?$CD?$CDowners@		; `string'
PUBLIC	??_C@_0BC@LKHMKKD@?5LockUntilRelease@		; `string'
PUBLIC	??_C@_0P@KHDHNDE@?5LockThisFrame@		; `string'
PUBLIC	??_C@_0N@OFJBCDIC@?$CFs?3?50x?$CF08X?$CFs@	; `string'
PUBLIC	??_C@_0BC@MLBLPLFP@Shortcut?5Routing?3@		; `string'
PUBLIC	??_C@_08MIEHDHIF@?$CD?$CDroutes@		; `string'
PUBLIC	??_C@_0L@NCKGGKFI@?$CFs?3?50x?$CF08X@		; `string'
PUBLIC	??_C@_0DH@IBPBMDJD@?$CIActiveIdUsing?3?5AllKeyboardKeys@ ; `string'
PUBLIC	??_C@_0P@DKNCHHLP@Internal?5state@		; `string'
PUBLIC	??_C@_09OOMCPLIM@WINDOWING@			; `string'
PUBLIC	??_C@_0BE@NBGIHPGN@HoveredWindow?3?5?8?$CFs?8@	; `string'
PUBLIC	??_C@_0BK@GFBMGONH@HoveredWindow?9?$DORoot?3?5?8?$CFs?8@ ; `string'
PUBLIC	??_C@_0CF@OOIEDAD@HoveredWindowUnderMovingWindow?3@ ; `string'
PUBLIC	??_C@_0BD@HCKEDLME@MovingWindow?3?5?8?$CFs?8@	; `string'
PUBLIC	??_C@_05OOOHNEPI@ITEMS@				; `string'
PUBLIC	??_C@_0EB@PEJDHKLE@ActiveId?3?50x?$CF08X?10x?$CF08X?5?$CI?$CF?42f?5s@ ; `string'
PUBLIC	??_C@_0BF@CPEAOPEJ@ActiveIdWindow?3?5?8?$CFs?8@	; `string'
PUBLIC	??_C@_0DD@CAAMDFEK@ActiveIdUsing?3?5AllKeyboardKeys?3@ ; `string'
PUBLIC	??_C@_0CP@CCEEBMAB@HoveredId?3?50x?$CF08X?5?$CI?$CF?42f?5sec?$CJ?0?5A@ ; `string'
PUBLIC	??_C@_0DE@CGPHDBFO@HoverDelayId?3?50x?$CF08X?0?5Timer?3?5?$CF?4@ ; `string'
PUBLIC	??_C@_0DJ@OPOHHHAC@DragDrop?3?5?$CFd?0?5SourceId?5?$DN?50x?$CF08X@ ; `string'
PUBLIC	??_C@_09LPFJCNIB@NAV?0FOCUS@			; `string'
PUBLIC	??_C@_0BA@KJPDENCF@NavWindow?3?5?8?$CFs?8@	; `string'
PUBLIC	??_C@_0BM@KFFINKHC@NavId?3?50x?$CF08X?0?5NavLayer?3?5?$CFd@ ; `string'
PUBLIC	??_C@_0BD@HIKDFBG@NavInputSource?3?5?$CFs@	; `string'
PUBLIC	??_C@_0BO@PADIALFI@NavActive?3?5?$CFd?0?5NavVisible?3?5?$CFd@ ; `string'
PUBLIC	??_C@_0DM@KABEEAKJ@NavActivateId?1DownId?1PressedId?1@ ; `string'
PUBLIC	??_C@_0BH@DDMJGBPN@NavActivateFlags?3?5?$CF04X@	; `string'
PUBLIC	??_C@_0DC@PBLGJJAI@NavDisableHighlight?3?5?$CFd?0?5NavDis@ ; `string'
PUBLIC	??_C@_0BJ@GGAKOFG@NavFocusScopeId?5?$DN?50x?$CF08X@ ; `string'
PUBLIC	??_C@_0BJ@HGGGEMAP@NavWindowingTarget?3?5?8?$CFs?8@ ; `string'
PUBLIC	??_C@_0CN@LMOAIACO@Columns?5Id?3?50x?$CF08X?0?5Count?3?5?$CFd?0?5@ ; `string'
PUBLIC	??_C@_0CF@PKFCLBKA@Width?3?5?$CF?41f?5?$CIMinX?3?5?$CF?41f?0?5MaxX?3?5@ ; `string'
PUBLIC	??_C@_0CJ@CPAFBJNN@Column?5?$CF02d?3?5OffsetNorm?5?$CF?43f?5?$CI?$DN@ ; `string'
PUBLIC	??_C@_0CF@IMBENNLG@?$CFs?3?5?8?$CFs?8?5?$CFd?5vtx?0?5?$CFd?5indices?0?5?$CFd@ ; `string'
PUBLIC	??_C@_0BE@LDCFEMCB@CURRENTLY?5APPENDING@	; `string'
PUBLIC	??_C@_0EJ@LNIIFBMO@Warning?3?5owning?5Window?5is?5inact@ ; `string'
PUBLIC	??_C@_0BK@FDNBBNBF@Callback?5?$CFp?0?5user_data?5?$CFp@ ; `string'
PUBLIC	??_C@_0EB@FAPEKKJB@DrawCmd?3?$CF5d?5tris?0?5Tex?50x?$CFp?0?5Cli@ ; `string'
PUBLIC	??_C@_0EE@EGAMBHDK@Mesh?3?5ElemCount?3?5?$CFd?0?5VtxOffset?3@ ; `string'
PUBLIC	??_C@_05HCFPDLGJ@Vert?3@			; `string'
PUBLIC	??_C@_05IFKLLJBC@?5?5?5?5?5@			; `string'
PUBLIC	??_C@_0DG@MPIFBGBG@?$CFs?5?$CF04d?3?5pos?5?$CI?$CF8?42f?0?$CF8?42f?$CJ?0?5uv?5@ ; `string'
PUBLIC	??_C@_0CK@IFCNIJMP@Font?3?5?$CC?$CFs?$CC?6?$CF?42f?5px?0?5?$CFd?5glyphs?0?5@ ; `string'
PUBLIC	??_C@_0P@HCLAAKJM@Set?5as?5default@		; `string'
PUBLIC	??_C@_0CM@HCLJNHNJ@The?5quick?5brown?5fox?5jumps?5over?5@ ; `string'
PUBLIC	??_C@_04GGBPDDBN@?$CF?41f@			; `string'
PUBLIC	??_C@_0L@HAJGHBLA@Font?5scale@			; `string'
PUBLIC	??_C@_0BIM@BPPJLJKD@Note?5than?5the?5default?5embedded?5@ ; `string'
PUBLIC	??_C@_0CE@FJCMKHHK@Ascent?3?5?$CFf?0?5Descent?3?5?$CFf?0?5Height@ ; `string'
PUBLIC	??_C@_0CC@FDGLEGDM@Fallback?5character?3?5?8?$CFs?8?5?$CIU?$CL?$CF04@ ; `string'
PUBLIC	??_C@_0CC@FAJAAGEH@Ellipsis?5character?3?5?8?$CFs?8?5?$CIU?$CL?$CF04@ ; `string'
PUBLIC	??_C@_0CE@LLADJGCM@Texture?5Area?3?5about?5?$CFd?5px?5?$HO?$CFdx?$CF@ ; `string'
PUBLIC	??_C@_0EJ@EOFKACMP@Input?5?$CFd?3?5?8?$CFs?8?0?5Oversample?3?5?$CI?$CFd@ ; `string'
PUBLIC	??_C@_0M@NEAHLNMH@Glyphs?5?$CI?$CFd?$CJ@	; `string'
PUBLIC	??_C@_06EBCCDGNI@Glyphs@			; `string'
PUBLIC	??_C@_06IOJPAPEE@glyphs@			; `string'
PUBLIC	??_C@_05OIOMJNBL@glyph@				; `string'
PUBLIC	??_C@_0BH@KIECHKHD@U?$CL?$CF04X?4?4U?$CL?$CF04X?5?$CI?$CFd?5?$CFs?$CJ@ ; `string'
PUBLIC	??_C@_0BC@JMLDGIFC@Codepoint?3?5U?$CL?$CF04X@	; `string'
PUBLIC	??_C@_0M@GDBOFNKK@Visible?3?5?$CFd@		; `string'
PUBLIC	??_C@_0P@JLIDDFIB@AdvanceX?3?5?$CF?41f@		; `string'
PUBLIC	??_C@_0BO@BCFBHCGJ@Pos?3?5?$CI?$CF?42f?0?$CF?42f?$CJ?9?$DO?$CI?$CF?42f?0?$CF?42f?$CJ@ ; `string'
PUBLIC	??_C@_0BN@EHEDNDHJ@UV?3?5?$CI?$CF?43f?0?$CF?43f?$CJ?9?$DO?$CI?$CF?43f?0?$CF?43f?$CJ@ ; `string'
PUBLIC	??_C@_0BJ@EFAEFOHB@?$CFs?3?5?$CFd?5entries?0?5?$CFd?5bytes@ ; `string'
PUBLIC	??_C@_0BL@LEAFLIMO@Key?50x?$CF08X?5Value?5?$HL?5i?3?5?$CFd?5?$HN@ ; `string'
PUBLIC	??_C@_0M@MDILNFHC@?5?$CKInactive?$CK@		; `string'
PUBLIC	??_C@_0BG@BDDHJGDD@?$CFs?50x?$CF08X?5?$CI?$CFd?5tabs?$CJ?$CFs@ ; `string'
PUBLIC	??_C@_04JFAOCLML@?5?5?$HL?5@			; `string'
PUBLIC	??_C@_03BBKEAIF@?$DP?$DP?$DP@			; `string'
PUBLIC	??_C@_02KEGNLNML@?0?5@				; `string'
PUBLIC	??_C@_06BKNPIBKB@?$CFs?8?$CFs?8@		; `string'
PUBLIC	??_C@_06MEIHFGI@?5?4?4?4?5?$HN@			; `string'
PUBLIC	??_C@_03LHCEFAHM@?5?$HN?5@			; `string'
PUBLIC	??_C@_01MNNFJEPP@?$DM@				; `string'
PUBLIC	??_C@_01PPODPGHN@?$DO@				; `string'
PUBLIC	??_C@_0DG@DJKHNEAJ@?$CF02d?$CFc?5Tab?50x?$CF08X?5?8?$CFs?8?5Offset?3?5@ ; `string'
PUBLIC	??_C@_0N@IHHEFJLI@Viewport?5?$CD?$CFd@		; `string'
PUBLIC	??_C@_09PLOOGGOG@viewport0@			; `string'
PUBLIC	??_C@_0GJ@COEDEIEA@Main?5Pos?3?5?$CI?$CF?40f?0?$CF?40f?$CJ?0?5Size?3?5?$CI?$CF@ ; `string'
PUBLIC	??_C@_0M@FAFJAKJI@?5OwnedByApp@			; `string'
PUBLIC	??_C@_0BD@FKGIEJBE@?5IsPlatformMonitor@		; `string'
PUBLIC	??_C@_0BC@KGGIDDGG@?5IsPlatformWindow@		; `string'
PUBLIC	??_C@_0BG@LEDJFOBI@Flags?3?50x?$CF04X?5?$DN?$CFs?$CFs?$CFs@ ; `string'
PUBLIC	??_C@_08MGKMCIPB@?$CFs?3?5NULL@			; `string'
PUBLIC	??_C@_09GBCBPCGK@?$CFs?5?8?$CFs?8?$CFs@		; `string'
PUBLIC	??_C@_0DF@KJLKCABL@Note?3?5some?5memory?5buffers?5have?5@ ; `string'
PUBLIC	??_C@_0EP@MJAPPIBI@Pos?3?5?$CI?$CF?41f?0?$CF?41f?$CJ?0?5Size?3?5?$CI?$CF?41f?0?$CF@ ; `string'
PUBLIC	??_C@_0BB@GGEIPOID@AlwaysAutoResize@		; `string'
PUBLIC	??_C@_0M@COLEABDL@NoNavInputs@			; `string'
PUBLIC	??_C@_0O@LAPEOEIJ@NoMouseInputs@		; `string'
PUBLIC	??_C@_0BB@EBNDPMCP@NoSavedSettings?5@		; `string'
PUBLIC	??_C@_0L@OPMMHACC@ChildMenu?5@			; `string'
PUBLIC	??_C@_06IFIMNOLK@Modal?5@			; `string'
PUBLIC	??_C@_06NMKCIICK@Popup?5@			; `string'
PUBLIC	??_C@_08LGECAIGF@Tooltip?5@			; `string'
PUBLIC	??_C@_06MMFPNIIL@Child?5@			; `string'
PUBLIC	??_C@_0CF@HFFEAFCN@Flags?3?50x?$CF08X?5?$CI?$CFs?$CFs?$CFs?$CFs?$CFs?$CFs?$CFs?$CFs@ ; `string'
PUBLIC	??_C@_0CN@OBHMFINH@Scroll?3?5?$CI?$CF?42f?1?$CF?42f?0?$CF?42f?1?$CF?42f?$CJ?5S@ ; `string'
PUBLIC	??_C@_0DO@LPCMGHLI@Active?3?5?$CFd?1?$CFd?0?5WriteAccessed?3?5?$CF@ ; `string'
PUBLIC	??_C@_0EA@JLDPMAKO@Appearing?3?5?$CFd?0?5Hidden?3?5?$CFd?5?$CICanS@ ; `string'
PUBLIC	??_C@_0BH@EDAJMFBI@NavLastIds?$FL?$CFd?$FN?3?50x?$CF08X@ ; `string'
PUBLIC	??_C@_0DC@PKDENGJH@NavLastIds?$FL?$CFd?$FN?3?50x?$CF08X?5at?5?$CL?$CI?$CF?41@ ; `string'
PUBLIC	??_C@_0DD@ILECKNFA@NavLayersActiveMask?3?5?$CFX?0?5NavLas@ ; `string'
PUBLIC	??_C@_0L@EHLMOHOL@RootWindow@			; `string'
PUBLIC	??_C@_0N@BPPHAMMO@ParentWindow@			; `string'
PUBLIC	??_C@_0N@BGDHDNPO@ChildWindows@			; `string'
PUBLIC	??_C@_0BC@FIDDFLAI@Columns?5sets?5?$CI?$CFd?$CJ@ ; `string'
PUBLIC	??_C@_07IBCCJKML@Columns@			; `string'
PUBLIC	??_C@_07PFGLPMIK@Storage@			; `string'
PUBLIC	??_C@_0DC@NLKEEDHM@0x?$CF08X?5?$CC?$CFs?$CC?5Pos?5?$CI?$CFd?0?$CFd?$CJ?5Size?5?$CI?$CF@ ; `string'
PUBLIC	??_C@_07JMKCEEPK@?$CFs?5?$CI?$CFd?$CJ@		; `string'
PUBLIC	??_C@_0O@LOOBKDLG@?$FL?$CF04d?$FN?5Window@	; `string'
PUBLIC	??_C@_07CHALBAHD@?$FL?$CF05d?$FN?5@		; `string'
PUBLIC	??_C@_0BF@DOBPLNCP@Dear?5ImGui?5Debug?5Log@	; `string'
PUBLIC	??_C@_0M@DNGOBPAF@Log?5events?3@		; `string'
PUBLIC	??_C@_03HFJGAJFE@All@				; `string'
PUBLIC	??_C@_08LNBHPLFF@ActiveId@			; `string'
PUBLIC	??_C@_05PDOFIPNC@Focus@				; `string'
PUBLIC	??_C@_05EPOLMFOG@Popup@				; `string'
PUBLIC	??_C@_07JPNKMPHH@Clipper@			; `string'
PUBLIC	??_C@_02IBEMDGI@IO@				; `string'
PUBLIC	??_C@_04OPMHGHMB@Copy@				; `string'
PUBLIC	??_C@_05FBKDEFNG@?$CD?$CDlog@			; `string'
PUBLIC	??_C@_02EMFKHFLK@?$CFX@				; `string'
PUBLIC	??_C@_0BC@JHPKFIGH@HoveredId?3?50x?$CF08X@	; `string'
PUBLIC	??_C@_0BM@IIPBLKLJ@Press?5ESC?5to?5abort?5picking?4@ ; `string'
PUBLIC	??_C@_04KPCPLBPL@Left@				; `string'
PUBLIC	??_C@_05DADPALEM@Right@				; `string'
PUBLIC	??_C@_06OJAFHGNF@Middle@			; `string'
PUBLIC	??_C@_0EA@BFCGJGEN@Remap?5w?1?5Ctrl?$CLShift?3?5click?5anyw@ ; `string'
PUBLIC	??_C@_0DM@LGIJPHCL@Click?5?$CFs?5Button?5to?5break?5in?5deb@ ; `string'
PUBLIC	??_C@_04EBNJJJJI@?$CF?4?$CKs@			; `string'
PUBLIC	??_C@_0M@FNHADFEB@?$CIvoid?$CK?$CJ0x?$CFp@	; `string'
PUBLIC	??_C@_0BC@CHOABEME@0x?$CF08X?5?$FLoverride?$FN@	; `string'
PUBLIC	??_C@_0O@EFHIOPED@?$CC?$CFs?$CC?5?$FLwindow?$FN@ ; `string'
PUBLIC	??_C@_0BG@DHHMNODH@Dear?5ImGui?5Stack?5Tool@	; `string'
PUBLIC	??_C@_0CF@KONAEAN@HoveredId?3?50x?$CF08X?0?5ActiveId?3?5?50@ ; `string'
PUBLIC	??_C@_0BEF@BCBIEAKB@Hover?5an?5item?5with?5the?5mouse?5to@ ; `string'
PUBLIC	??_C@_0BP@DNALLFDP@Ctrl?$CLC?3?5copy?5path?5to?5clipboard@ ; `string'
PUBLIC	??_C@_08PGCHFAAG@?$CKCOPIED?$CK@		; `string'
PUBLIC	??_C@_07OPPIOFCG@?$CD?$CDtable@			; `string'
PUBLIC	??_C@_0L@JCLNJJB@0xDDDDDDDD@			; `string'
PUBLIC	??_C@_04FBLBNKA@Seed@				; `string'
PUBLIC	??_C@_06LBBHCMPJ@PushID@			; `string'
PUBLIC	??_C@_06GGONACPB@Result@			; `string'
PUBLIC	??_C@_06IMJBDBNO@0x?$CF08X@			; `string'
PUBLIC	?_OptionsStorage@?1??__local_stdio_printf_options@@9@4_KA ; `__local_stdio_printf_options'::`2'::_OptionsStorage
PUBLIC	?EmptyString@ImGuiTextBuffer@@2PADA		; ImGuiTextBuffer::EmptyString
PUBLIC	?_OptionsStorage@?1??__local_stdio_scanf_options@@9@4_KA ; `__local_stdio_scanf_options'::`2'::_OptionsStorage
PUBLIC	?GImGui@@3PEAUImGuiContext@@EA			; GImGui
EXTRN	??_L@YAXPEAX_K1P6AX0@Z2@Z:PROC			; `eh vector constructor iterator'
EXTRN	__imp_GlobalUnlock:PROC
EXTRN	__imp_ImmGetContext:PROC
EXTRN	__imp_fread:PROC
EXTRN	__imp_ImmReleaseContext:PROC
EXTRN	__imp_WideCharToMultiByte:PROC
EXTRN	__imp___std_terminate:PROC
EXTRN	__imp_GlobalLock:PROC
EXTRN	__imp___stdio_common_vsprintf:PROC
EXTRN	__imp_OpenClipboard:PROC
EXTRN	__imp__wfopen:PROC
EXTRN	__imp_GlobalFree:PROC
EXTRN	__imp_GlobalAlloc:PROC
EXTRN	__imp_ImmSetCompositionWindow:PROC
EXTRN	__imp_fwrite:PROC
EXTRN	__imp_CloseClipboard:PROC
EXTRN	__imp_EmptyClipboard:PROC
EXTRN	__imp_strncpy:PROC
EXTRN	__imp_qsort:PROC
EXTRN	__imp_MultiByteToWideChar:PROC
EXTRN	__imp___stdio_common_vfprintf:PROC
EXTRN	??3@YAXPEAX_K@Z:PROC				; operator delete
EXTRN	??_M@YAXPEAX_K1P6AX0@Z@Z:PROC			; `eh vector destructor iterator'
EXTRN	__imp_fseek:PROC
EXTRN	__imp_GetClipboardData:PROC
EXTRN	__imp_ImmSetCandidateWindow:PROC
EXTRN	__imp_fclose:PROC
EXTRN	__imp_SetClipboardData:PROC
EXTRN	__imp_fflush:PROC
EXTRN	__imp___acrt_iob_func:PROC
EXTRN	__imp_ftell:PROC
EXTRN	__imp___CxxFrameHandler4:PROC
;	COMDAT ?_OptionsStorage@?1??__local_stdio_printf_options@@9@4_KA
_BSS	SEGMENT
?_OptionsStorage@?1??__local_stdio_printf_options@@9@4_KA DQ 01H DUP (?) ; `__local_stdio_printf_options'::`2'::_OptionsStorage
_BSS	ENDS
;	COMDAT ?buf@?BD@??ShowMetricsWindow@ImGui@@YAXPEA_N@Z@4PADA
_BSS	SEGMENT
?buf@?BD@??ShowMetricsWindow@ImGui@@YAXPEA_N@Z@4PADA DB 064H DUP (?) ; `ImGui::ShowMetricsWindow'::`19'::buf
?GImAllocatorUserData@@3PEAXEA DQ 01H DUP (?)		; GImAllocatorUserData
?EmptyString@ImGuiTextBuffer@@2PADA DB 01H DUP (?)	; ImGuiTextBuffer::EmptyString
_BSS	ENDS
;	COMDAT ?_OptionsStorage@?1??__local_stdio_scanf_options@@9@4_KA
_BSS	SEGMENT
?_OptionsStorage@?1??__local_stdio_scanf_options@@9@4_KA DQ 01H DUP (?) ; `__local_stdio_scanf_options'::`2'::_OptionsStorage
	ALIGN	8

?GImGui@@3PEAUImGuiContext@@EA DQ 01H DUP (?)		; GImGui
_BSS	ENDS
;	COMDAT ?masks@?1??ImTextCharFromUtf8@@YAHPEAIPEBD1@Z@4QBHB
CONST	SEGMENT
?masks@?1??ImTextCharFromUtf8@@YAHPEAIPEBD1@Z@4QBHB DD 00H ; `ImTextCharFromUtf8'::`2'::masks
	DD	07fH
	DD	01fH
	DD	0fH
	DD	07H
CONST	ENDS
;	COMDAT ?shifte@?1??ImTextCharFromUtf8@@YAHPEAIPEBD1@Z@4QBHB
CONST	SEGMENT
?shifte@?1??ImTextCharFromUtf8@@YAHPEAIPEBD1@Z@4QBHB DD 00H ; `ImTextCharFromUtf8'::`2'::shifte
	DD	06H
	DD	04H
	DD	02H
	DD	00H
?GLocalizationEntriesEnUS@@3QBUImGuiLocEntry@@B DD 00H	; GLocalizationEntriesEnUS
	ORG $+4
	DQ	FLAT:??_C@_0BN@CNPDCOK@Size?5column?5to?5fit?$CD?$CD?$CDSizeOne@
	DD	01H
	ORG $+4
	DQ	FLAT:??_C@_0CC@MJIBPDCL@Size?5all?5columns?5to?5fit?$CD?$CD?$CDSizeA@
	DD	02H
	ORG $+4
	DQ	FLAT:??_C@_0CG@CFICKNDA@Size?5all?5columns?5to?5default?$CD?$CD?$CDS@
	DD	03H
	ORG $+4
	DQ	FLAT:??_C@_0BJ@BBKAOKNK@Reset?5order?$CD?$CD?$CDResetOrder@
	DD	04H
	ORG $+4
	DQ	FLAT:??_C@_0BA@KDPNEDEH@?$CIMain?5menu?5bar?$CJ@
	DD	05H
	ORG $+4
	DQ	FLAT:??_C@_07NPLNEKJH@?$CIPopup?$CJ@
	DD	06H
	ORG $+4
	DQ	FLAT:??_C@_0L@JOJOIPFK@?$CIUntitled?$CJ@
?resize_border_def@@3QBUImGuiResizeBorderDef@@B DD 03f800000r ; 1 ; resize_border_def
	DD	000000000r			; 0
	DD	000000000r			; 0
	DD	03f800000r			; 1
	DD	000000000r			; 0
	DD	000000000r			; 0
	DD	040490fdbr			; 3.14159
	DD	0bf800000r			; -1
	DD	000000000r			; 0
	DD	03f800000r			; 1
	DD	000000000r			; 0
	DD	03f800000r			; 1
	DD	03f800000r			; 1
	DD	000000000r			; 0
	DD	000000000r			; 0
	DD	03f800000r			; 1
	DD	000000000r			; 0
	DD	000000000r			; 0
	DD	03f800000r			; 1
	DD	000000000r			; 0
	DD	04096cbe4r			; 4.71239
	DD	000000000r			; 0
	DD	0bf800000r			; -1
	DD	03f800000r			; 1
	DD	03f800000r			; 1
	DD	000000000r			; 0
	DD	03f800000r			; 1
	DD	03fc90fdbr			; 1.5708
?GStyleVarInfo@@3QBUImGuiStyleVarInfo@@B DD 08H		; GStyleVarInfo
	DD	01H
	DD	00H
	DD	08H
	DD	01H
	DD	04H
	DD	08H
	DD	02H
	DD	08H
	DD	08H
	DD	01H
	DD	010H
	DD	08H
	DD	01H
	DD	014H
	DD	08H
	DD	02H
	DD	018H
	DD	08H
	DD	02H
	DD	020H
	DD	08H
	DD	01H
	DD	02cH
	DD	08H
	DD	01H
	DD	030H
	DD	08H
	DD	01H
	DD	034H
	DD	08H
	DD	01H
	DD	038H
	DD	08H
	DD	02H
	DD	03cH
	DD	08H
	DD	01H
	DD	044H
	DD	08H
	DD	01H
	DD	048H
	DD	08H
	DD	02H
	DD	04cH
	DD	08H
	DD	02H
	DD	054H
	DD	08H
	DD	01H
	DD	06cH
	DD	08H
	DD	02H
	DD	05cH
	DD	08H
	DD	01H
	DD	074H
	DD	08H
	DD	01H
	DD	078H
	DD	08H
	DD	01H
	DD	07cH
	DD	08H
	DD	01H
	DD	080H
	DD	08H
	DD	01H
	DD	088H
	DD	08H
	DD	02H
	DD	098H
	DD	08H
	DD	02H
	DD	0a0H
	ORG $+1
?GImAllocatorFreeFunc@@3P6AXPEAX0@ZEA DQ FLAT:?FreeWrapper@@YAXPEAX0@Z ; GImAllocatorFreeFunc
?GImAllocatorAllocFunc@@3P6APEAX_KPEAX@ZEA DQ FLAT:?MallocWrapper@@YAPEAX_KPEAX@Z ; GImAllocatorAllocFunc
?resize_grip_def@@3QBUImGuiResizeGripDef@@B DD 03f800000r ; 1 ; resize_grip_def
	DD	03f800000r			; 1
	DD	0bf800000r			; -1
	DD	0bf800000r			; -1
	DD	00H
	DD	03H
	DD	000000000r			; 0
	DD	03f800000r			; 1
	DD	03f800000r			; 1
	DD	0bf800000r			; -1
	DD	03H
	DD	06H
	DD	000000000r			; 0
	DD	000000000r			; 0
	DD	03f800000r			; 1
	DD	03f800000r			; 1
	DD	06H
	DD	09H
	DD	03f800000r			; 1
	DD	000000000r			; 0
	DD	0bf800000r			; -1
	DD	03f800000r			; 1
	DD	09H
	DD	0cH
?GCrc32LookupTable@@3QBIB DD 00H			; GCrc32LookupTable
	DD	077073096H
	DD	0ee0e612cH
	DD	0990951baH
	DD	076dc419H
	DD	0706af48fH
	DD	0e963a535H
	DD	09e6495a3H
	DD	0edb8832H
	DD	079dcb8a4H
	DD	0e0d5e91eH
	DD	097d2d988H
	DD	09b64c2bH
	DD	07eb17cbdH
	DD	0e7b82d07H
	DD	090bf1d91H
	DD	01db71064H
	DD	06ab020f2H
	DD	0f3b97148H
	DD	084be41deH
	DD	01adad47dH
	DD	06ddde4ebH
	DD	0f4d4b551H
	DD	083d385c7H
	DD	0136c9856H
	DD	0646ba8c0H
	DD	0fd62f97aH
	DD	08a65c9ecH
	DD	014015c4fH
	DD	063066cd9H
	DD	0fa0f3d63H
	DD	08d080df5H
	DD	03b6e20c8H
	DD	04c69105eH
	DD	0d56041e4H
	DD	0a2677172H
	DD	03c03e4d1H
	DD	04b04d447H
	DD	0d20d85fdH
	DD	0a50ab56bH
	DD	035b5a8faH
	DD	042b2986cH
	DD	0dbbbc9d6H
	DD	0acbcf940H
	DD	032d86ce3H
	DD	045df5c75H
	DD	0dcd60dcfH
	DD	0abd13d59H
	DD	026d930acH
	DD	051de003aH
	DD	0c8d75180H
	DD	0bfd06116H
	DD	021b4f4b5H
	DD	056b3c423H
	DD	0cfba9599H
	DD	0b8bda50fH
	DD	02802b89eH
	DD	05f058808H
	DD	0c60cd9b2H
	DD	0b10be924H
	DD	02f6f7c87H
	DD	058684c11H
	DD	0c1611dabH
	DD	0b6662d3dH
	DD	076dc4190H
	DD	01db7106H
	DD	098d220bcH
	DD	0efd5102aH
	DD	071b18589H
	DD	06b6b51fH
	DD	09fbfe4a5H
	DD	0e8b8d433H
	DD	07807c9a2H
	DD	0f00f934H
	DD	09609a88eH
	DD	0e10e9818H
	DD	07f6a0dbbH
	DD	086d3d2dH
	DD	091646c97H
	DD	0e6635c01H
	DD	06b6b51f4H
	DD	01c6c6162H
	DD	0856530d8H
	DD	0f262004eH
	DD	06c0695edH
	DD	01b01a57bH
	DD	08208f4c1H
	DD	0f50fc457H
	DD	065b0d9c6H
	DD	012b7e950H
	DD	08bbeb8eaH
	DD	0fcb9887cH
	DD	062dd1ddfH
	DD	015da2d49H
	DD	08cd37cf3H
	DD	0fbd44c65H
	DD	04db26158H
	DD	03ab551ceH
	DD	0a3bc0074H
	DD	0d4bb30e2H
	DD	04adfa541H
	DD	03dd895d7H
	DD	0a4d1c46dH
	DD	0d3d6f4fbH
	DD	04369e96aH
	DD	0346ed9fcH
	DD	0ad678846H
	DD	0da60b8d0H
	DD	044042d73H
	DD	033031de5H
	DD	0aa0a4c5fH
	DD	0dd0d7cc9H
	DD	05005713cH
	DD	0270241aaH
	DD	0be0b1010H
	DD	0c90c2086H
	DD	05768b525H
	DD	0206f85b3H
	DD	0b966d409H
	DD	0ce61e49fH
	DD	05edef90eH
	DD	029d9c998H
	DD	0b0d09822H
	DD	0c7d7a8b4H
	DD	059b33d17H
	DD	02eb40d81H
	DD	0b7bd5c3bH
	DD	0c0ba6cadH
	DD	0edb88320H
	DD	09abfb3b6H
	DD	03b6e20cH
	DD	074b1d29aH
	DD	0ead54739H
	DD	09dd277afH
	DD	04db2615H
	DD	073dc1683H
	DD	0e3630b12H
	DD	094643b84H
	DD	0d6d6a3eH
	DD	07a6a5aa8H
	DD	0e40ecf0bH
	DD	09309ff9dH
	DD	0a00ae27H
	DD	07d079eb1H
	DD	0f00f9344H
	DD	08708a3d2H
	DD	01e01f268H
	DD	06906c2feH
	DD	0f762575dH
	DD	0806567cbH
	DD	0196c3671H
	DD	06e6b06e7H
	DD	0fed41b76H
	DD	089d32be0H
	DD	010da7a5aH
	DD	067dd4accH
	DD	0f9b9df6fH
	DD	08ebeeff9H
	DD	017b7be43H
	DD	060b08ed5H
	DD	0d6d6a3e8H
	DD	0a1d1937eH
	DD	038d8c2c4H
	DD	04fdff252H
	DD	0d1bb67f1H
	DD	0a6bc5767H
	DD	03fb506ddH
	DD	048b2364bH
	DD	0d80d2bdaH
	DD	0af0a1b4cH
	DD	036034af6H
	DD	041047a60H
	DD	0df60efc3H
	DD	0a867df55H
	DD	0316e8eefH
	DD	04669be79H
	DD	0cb61b38cH
	DD	0bc66831aH
	DD	0256fd2a0H
	DD	05268e236H
	DD	0cc0c7795H
	DD	0bb0b4703H
	DD	0220216b9H
	DD	05505262fH
	DD	0c5ba3bbeH
	DD	0b2bd0b28H
	DD	02bb45a92H
	DD	05cb36a04H
	DD	0c2d7ffa7H
	DD	0b5d0cf31H
	DD	02cd99e8bH
	DD	05bdeae1dH
	DD	09b64c2b0H
	DD	0ec63f226H
	DD	0756aa39cH
	DD	026d930aH
	DD	09c0906a9H
	DD	0eb0e363fH
	DD	072076785H
	DD	05005713H
	DD	095bf4a82H
	DD	0e2b87a14H
	DD	07bb12baeH
	DD	0cb61b38H
	DD	092d28e9bH
	DD	0e5d5be0dH
	DD	07cdcefb7H
	DD	0bdbdf21H
	DD	086d3d2d4H
	DD	0f1d4e242H
	DD	068ddb3f8H
	DD	01fda836eH
	DD	081be16cdH
	DD	0f6b9265bH
	DD	06fb077e1H
	DD	018b74777H
	DD	088085ae6H
	DD	0ff0f6a70H
	DD	066063bcaH
	DD	011010b5cH
	DD	08f659effH
	DD	0f862ae69H
	DD	0616bffd3H
	DD	0166ccf45H
	DD	0a00ae278H
	DD	0d70dd2eeH
	DD	04e048354H
	DD	03903b3c2H
	DD	0a7672661H
	DD	0d06016f7H
	DD	04969474dH
	DD	03e6e77dbH
	DD	0aed16a4aH
	DD	0d9d65adcH
	DD	040df0b66H
	DD	037d83bf0H
	DD	0a9bcae53H
	DD	0debb9ec5H
	DD	047b2cf7fH
	DD	030b5ffe9H
	DD	0bdbdf21cH
	DD	0cabac28aH
	DD	053b39330H
	DD	024b4a3a6H
	DD	0bad03605H
	DD	0cdd70693H
	DD	054de5729H
	DD	023d967bfH
	DD	0b3667a2eH
	DD	0c4614ab8H
	DD	05d681b02H
	DD	02a6f2b94H
	DD	0b40bbe37H
	DD	0c30c8ea1H
	DD	05a05df1bH
	DD	02d02ef8dH
?GKeyNames@@3QBQEBDB DQ FLAT:??_C@_03IEAKBACE@Tab@	; GKeyNames
	DQ	FLAT:??_C@_09CFHBIIBF@LeftArrow@
	DQ	FLAT:??_C@_0L@BPKGMHEK@RightArrow@
	DQ	FLAT:??_C@_07MOKGGMEC@UpArrow@
	DQ	FLAT:??_C@_09NADHLAEK@DownArrow@
	DQ	FLAT:??_C@_06OAEMCMAI@PageUp@
	DQ	FLAT:??_C@_08FDLMHKA@PageDown@
	DQ	FLAT:??_C@_04GKJODLKO@Home@
	DQ	FLAT:??_C@_03DBKJMAGF@End@
	DQ	FLAT:??_C@_06CPFCODOD@Insert@
	DQ	FLAT:??_C@_06JBKGCNBB@Delete@
	DQ	FLAT:??_C@_09LPBCIPOJ@Backspace@
	DQ	FLAT:??_C@_05OMHELODH@Space@
	DQ	FLAT:??_C@_05IAOCCJNL@Enter@
	DQ	FLAT:??_C@_06OIGFGPHJ@Escape@
	DQ	FLAT:??_C@_08KELNAOFC@LeftCtrl@
	DQ	FLAT:??_C@_09OCNLBMHE@LeftShift@
	DQ	FLAT:??_C@_07MGKIIPNA@LeftAlt@
	DQ	FLAT:??_C@_09DKGEOIN@LeftSuper@
	DQ	FLAT:??_C@_09MGKDJPDD@RightCtrl@
	DQ	FLAT:??_C@_0L@NIAMFDCL@RightShift@
	DQ	FLAT:??_C@_08FCEDBIM@RightAlt@
	DQ	FLAT:??_C@_0L@DJHBABNC@RightSuper@
	DQ	FLAT:??_C@_04IFEHPILC@Menu@
	DQ	FLAT:??_C@_01GBGANLPD@0@
	DQ	FLAT:??_C@_01HIHLOKLC@1@
	DQ	FLAT:??_C@_01FDFGLJHB@2@
	DQ	FLAT:??_C@_01EKENIIDA@3@
	DQ	FLAT:??_C@_01FAMBOPH@4@
	DQ	FLAT:??_C@_01BMBHCPLG@5@
	DQ	FLAT:??_C@_01DHDKHMHF@6@
	DQ	FLAT:??_C@_01COCBENDE@7@
	DQ	FLAT:??_C@_01KJLJFBPL@8@
	DQ	FLAT:??_C@_01LAKCGALK@9@
	DQ	FLAT:??_C@_01FHEEJDEE@A@
	DQ	FLAT:??_C@_01HMGJMAIH@B@
	DQ	FLAT:??_C@_01GFHCPBMG@C@
	DQ	FLAT:??_C@_01CKDDGHAB@D@
	DQ	FLAT:??_C@_01DDCIFGEA@E@
	DQ	FLAT:??_C@_01BIAFAFID@F@
	DQ	FLAT:??_C@_01BBODEMC@G@
	DQ	FLAT:??_C@_01IGIGCIAN@H@
	DQ	FLAT:??_C@_01JPJNBJEM@I@
	DQ	FLAT:??_C@_01LELAEKIP@J@
	DQ	FLAT:??_C@_01KNKLHLMO@K@
	DQ	FLAT:??_C@_01OCOKONAJ@L@
	DQ	FLAT:??_C@_01PLPBNMEI@M@
	DQ	FLAT:??_C@_01NANMIPIL@N@
	DQ	FLAT:??_C@_01MJMHLOMK@O@
	DQ	FLAT:??_C@_01EJNLAFE@P@
	DQ	FLAT:??_C@_01BNIGIBBF@Q@
	DQ	FLAT:??_C@_01DGKLNCNG@R@
	DQ	FLAT:??_C@_01CPLAODJH@S@
	DQ	FLAT:??_C@_01GAPBHFFA@T@
	DQ	FLAT:??_C@_01HJOKEEBB@U@
	DQ	FLAT:??_C@_01FCMHBHNC@V@
	DQ	FLAT:??_C@_01ELNMCGJD@W@
	DQ	FLAT:??_C@_01MMEEDKFM@X@
	DQ	FLAT:??_C@_01NFFPALBN@Y@
	DQ	FLAT:??_C@_01POHCFINO@Z@
	DQ	FLAT:??_C@_02LCPENACN@F1@
	DQ	FLAT:??_C@_02JJNJIDOO@F2@
	DQ	FLAT:??_C@_02IAMCLCKP@F3@
	DQ	FLAT:??_C@_02MPIDCEGI@F4@
	DQ	FLAT:??_C@_02NGJIBFCJ@F5@
	DQ	FLAT:??_C@_02PNLFEGOK@F6@
	DQ	FLAT:??_C@_02OEKOHHKL@F7@
	DQ	FLAT:??_C@_02GDDGGLGE@F8@
	DQ	FLAT:??_C@_02HKCNFKCF@F9@
	DQ	FLAT:??_C@_03JKCLJOFG@F10@
	DQ	FLAT:??_C@_03IDDAKPBH@F11@
	DQ	FLAT:??_C@_03KIBNPMNE@F12@
	DQ	FLAT:??_C@_0L@KECMMICK@Apostrophe@
	DQ	FLAT:??_C@_05CJDGOLEJ@Comma@
	DQ	FLAT:??_C@_05OEAIFCGM@Minus@
	DQ	FLAT:??_C@_06JOFJHOEH@Period@
	DQ	FLAT:??_C@_05OAOMBJIJ@Slash@
	DQ	FLAT:??_C@_09FBGFMNJC@Semicolon@
	DQ	FLAT:??_C@_05JKGNJOO@Equal@
	DQ	FLAT:??_C@_0M@FGLAPLO@LeftBracket@
	DQ	FLAT:??_C@_09LDIKCIFH@Backslash@
	DQ	FLAT:??_C@_0N@NOCLCIPD@RightBracket@
	DQ	FLAT:??_C@_0M@PEGEKEFO@GraveAccent@
	DQ	FLAT:??_C@_08LBKIEOPK@CapsLock@
	DQ	FLAT:??_C@_0L@JJJEGPLJ@ScrollLock@
	DQ	FLAT:??_C@_07JOCOIGEJ@NumLock@
	DQ	FLAT:??_C@_0M@CJIDBHOK@PrintScreen@
	DQ	FLAT:??_C@_05PEDNBBBD@Pause@
	DQ	FLAT:??_C@_07PBFJOEMA@Keypad0@
	DQ	FLAT:??_C@_07OIECNFIB@Keypad1@
	DQ	FLAT:??_C@_07MDGPIGEC@Keypad2@
	DQ	FLAT:??_C@_07NKHELHAD@Keypad3@
	DQ	FLAT:??_C@_07JFDFCBME@Keypad4@
	DQ	FLAT:??_C@_07IMCOBAIF@Keypad5@
	DQ	FLAT:??_C@_07KHADEDEG@Keypad6@
	DQ	FLAT:??_C@_07LOBIHCAH@Keypad7@
	DQ	FLAT:??_C@_07DJIAGOMI@Keypad8@
	DQ	FLAT:??_C@_07CAJLFPIJ@Keypad9@
	DQ	FLAT:??_C@_0O@GMHIBIOG@KeypadDecimal@
	DQ	FLAT:??_C@_0N@IOPGAACF@KeypadDivide@
	DQ	FLAT:??_C@_0P@DDMFINAM@KeypadMultiply@
	DQ	FLAT:??_C@_0P@EGJPMAKL@KeypadSubtract@
	DQ	FLAT:??_C@_09PBFBAKNA@KeypadAdd@
	DQ	FLAT:??_C@_0M@LDMAMCMH@KeypadEnter@
	DQ	FLAT:??_C@_0M@DKIEDCPC@KeypadEqual@
	DQ	FLAT:??_C@_0N@KFODLNBI@GamepadStart@
	DQ	FLAT:??_C@_0M@BMKDKCOL@GamepadBack@
	DQ	FLAT:??_C@_0BA@LLLNHFDH@GamepadFaceLeft@
	DQ	FLAT:??_C@_0BB@KCPJBHBD@GamepadFaceRight@
	DQ	FLAT:??_C@_0O@NEIKDCMN@GamepadFaceUp@
	DQ	FLAT:??_C@_0BA@EJLJONAO@GamepadFaceDown@
	DQ	FLAT:??_C@_0BA@HJJJKOII@GamepadDpadLeft@
	DQ	FLAT:??_C@_0BB@PJOFJNNF@GamepadDpadRight@
	DQ	FLAT:??_C@_0O@EJODMGNP@GamepadDpadUp@
	DQ	FLAT:??_C@_0BA@ILJNDGLB@GamepadDpadDown@
	DQ	FLAT:??_C@_09BNICIIOB@GamepadL1@
	DQ	FLAT:??_C@_09LDKAGJL@GamepadR1@
	DQ	FLAT:??_C@_09DGKPNLCC@GamepadL2@
	DQ	FLAT:??_C@_09CABHFFFI@GamepadR2@
	DQ	FLAT:??_C@_09CPLEOKGD@GamepadL3@
	DQ	FLAT:??_C@_09DJAMGEBJ@GamepadR3@
	DQ	FLAT:??_C@_0BC@MGONIKHG@GamepadLStickLeft@
	DQ	FLAT:??_C@_0BD@KDFPDGOK@GamepadLStickRight@
	DQ	FLAT:??_C@_0BA@NNMPJILJ@GamepadLStickUp@
	DQ	FLAT:??_C@_0BC@DEOJBCEP@GamepadLStickDown@
	DQ	FLAT:??_C@_0BC@DKGNGFLL@GamepadRStickLeft@
	DQ	FLAT:??_C@_0BD@EGHGAIAI@GamepadRStickRight@
	DQ	FLAT:??_C@_0BA@LJMNABFK@GamepadRStickUp@
	DQ	FLAT:??_C@_0BC@MIGJPNIC@GamepadRStickDown@
	DQ	FLAT:??_C@_09DBACHFO@MouseLeft@
	DQ	FLAT:??_C@_0L@JGCPGDLN@MouseRight@
	DQ	FLAT:??_C@_0M@CDBJKEDH@MouseMiddle@
	DQ	FLAT:??_C@_07BICMLCEA@MouseX1@
	DQ	FLAT:??_C@_07DDABOBID@MouseX2@
	DQ	FLAT:??_C@_0M@MENPLCHJ@MouseWheelX@
	DQ	FLAT:??_C@_0M@NNMEIDDI@MouseWheelY@
	DQ	FLAT:??_C@_07KDONALCN@ModCtrl@
	DQ	FLAT:??_C@_08CCGGCANM@ModShift@
	DQ	FLAT:??_C@_06PLGJOJNE@ModAlt@
	DQ	FLAT:??_C@_08MDBLHCCF@ModSuper@
CONST	ENDS
;	COMDAT ?lengths@?1??ImTextCharFromUtf8@@YAHPEAIPEBD1@Z@4QBDB
CONST	SEGMENT
?lengths@?1??ImTextCharFromUtf8@@YAHPEAIPEBD1@Z@4QBDB DB 01H ; `ImTextCharFromUtf8'::`2'::lengths
	DB	01H
	DB	01H
	DB	01H
	DB	01H
	DB	01H
	DB	01H
	DB	01H
	DB	01H
	DB	01H
	DB	01H
	DB	01H
	DB	01H
	DB	01H
	DB	01H
	DB	01H
	DB	00H
	DB	00H
	DB	00H
	DB	00H
	DB	00H
	DB	00H
	DB	00H
	DB	00H
	DB	02H
	DB	02H
	DB	02H
	DB	02H
	DB	03H
	DB	03H
	DB	04H
	DB	00H
CONST	ENDS
;	COMDAT ?shiftc@?1??ImTextCharFromUtf8@@YAHPEAIPEBD1@Z@4QBHB
CONST	SEGMENT
?shiftc@?1??ImTextCharFromUtf8@@YAHPEAIPEBD1@Z@4QBHB DD 00H ; `ImTextCharFromUtf8'::`2'::shiftc
	DD	012H
	DD	0cH
	DD	06H
	DD	00H
CONST	ENDS
;	COMDAT ?mins@?1??ImTextCharFromUtf8@@YAHPEAIPEBD1@Z@4QBIB
CONST	SEGMENT
?mins@?1??ImTextCharFromUtf8@@YAHPEAIPEBD1@Z@4QBIB DD 0400000H ; `ImTextCharFromUtf8'::`2'::mins
	DD	00H
	DD	080H
	DD	0800H
	DD	010000H
CONST	ENDS
;	COMDAT ??_C@_06IMJBDBNO@0x?$CF08X@
CONST	SEGMENT
??_C@_06IMJBDBNO@0x?$CF08X@ DB '0x%08X', 00H		; `string'
CONST	ENDS
;	COMDAT ??_C@_06GGONACPB@Result@
CONST	SEGMENT
??_C@_06GGONACPB@Result@ DB 'Result', 00H		; `string'
CONST	ENDS
;	COMDAT ??_C@_06LBBHCMPJ@PushID@
CONST	SEGMENT
??_C@_06LBBHCMPJ@PushID@ DB 'PushID', 00H		; `string'
CONST	ENDS
;	COMDAT ??_C@_04FBLBNKA@Seed@
CONST	SEGMENT
??_C@_04FBLBNKA@Seed@ DB 'Seed', 00H			; `string'
CONST	ENDS
;	COMDAT ??_C@_0L@JCLNJJB@0xDDDDDDDD@
CONST	SEGMENT
??_C@_0L@JCLNJJB@0xDDDDDDDD@ DB '0xDDDDDDDD', 00H	; `string'
CONST	ENDS
;	COMDAT ??_C@_07OPPIOFCG@?$CD?$CDtable@
CONST	SEGMENT
??_C@_07OPPIOFCG@?$CD?$CDtable@ DB '##table', 00H	; `string'
CONST	ENDS
;	COMDAT ??_C@_08PGCHFAAG@?$CKCOPIED?$CK@
CONST	SEGMENT
??_C@_08PGCHFAAG@?$CKCOPIED?$CK@ DB '*COPIED*', 00H	; `string'
CONST	ENDS
;	COMDAT ??_C@_0BP@DNALLFDP@Ctrl?$CLC?3?5copy?5path?5to?5clipboard@
CONST	SEGMENT
??_C@_0BP@DNALLFDP@Ctrl?$CLC?3?5copy?5path?5to?5clipboard@ DB 'Ctrl+C: co'
	DB	'py path to clipboard', 00H			; `string'
CONST	ENDS
;	COMDAT ??_C@_0BEF@BCBIEAKB@Hover?5an?5item?5with?5the?5mouse?5to@
CONST	SEGMENT
??_C@_0BEF@BCBIEAKB@Hover?5an?5item?5with?5the?5mouse?5to@ DB 'Hover an i'
	DB	'tem with the mouse to display elements of the ID Stack leadin'
	DB	'g to the item''s final ID.', 0aH, 'Each level of the stack co'
	DB	'rrespond to a PushID() call.', 0aH, 'All levels of the stack '
	DB	'are hashed together to make the final ID of a widget (ID disp'
	DB	'layed at the bottom level of the stack).', 0aH, 'Read FAQ ent'
	DB	'ry about the ID stack for details.', 00H	; `string'
CONST	ENDS
;	COMDAT ??_C@_0CF@KONAEAN@HoveredId?3?50x?$CF08X?0?5ActiveId?3?5?50@
CONST	SEGMENT
??_C@_0CF@KONAEAN@HoveredId?3?50x?$CF08X?0?5ActiveId?3?5?50@ DB 'HoveredI'
	DB	'd: 0x%08X, ActiveId:  0x%08X', 00H		; `string'
CONST	ENDS
;	COMDAT ??_C@_0BG@DHHMNODH@Dear?5ImGui?5Stack?5Tool@
CONST	SEGMENT
??_C@_0BG@DHHMNODH@Dear?5ImGui?5Stack?5Tool@ DB 'Dear ImGui Stack Tool', 00H ; `string'
CONST	ENDS
;	COMDAT ??_C@_0O@EFHIOPED@?$CC?$CFs?$CC?5?$FLwindow?$FN@
CONST	SEGMENT
??_C@_0O@EFHIOPED@?$CC?$CFs?$CC?5?$FLwindow?$FN@ DB '"%s" [window]', 00H ; `string'
CONST	ENDS
;	COMDAT ??_C@_0BC@CHOABEME@0x?$CF08X?5?$FLoverride?$FN@
CONST	SEGMENT
??_C@_0BC@CHOABEME@0x?$CF08X?5?$FLoverride?$FN@ DB '0x%08X [override]', 00H ; `string'
CONST	ENDS
;	COMDAT ??_C@_0M@FNHADFEB@?$CIvoid?$CK?$CJ0x?$CFp@
CONST	SEGMENT
??_C@_0M@FNHADFEB@?$CIvoid?$CK?$CJ0x?$CFp@ DB '(void*)0x%p', 00H ; `string'
CONST	ENDS
;	COMDAT ??_C@_04EBNJJJJI@?$CF?4?$CKs@
CONST	SEGMENT
??_C@_04EBNJJJJI@?$CF?4?$CKs@ DB '%.*s', 00H		; `string'
CONST	ENDS
;	COMDAT ??_C@_0DM@LGIJPHCL@Click?5?$CFs?5Button?5to?5break?5in?5deb@
CONST	SEGMENT
??_C@_0DM@LGIJPHCL@Click?5?$CFs?5Button?5to?5break?5in?5deb@ DB 'Click %s'
	DB	' Button to break in debugger! (remap w/ Ctrl+Shift)', 00H ; `string'
CONST	ENDS
;	COMDAT ??_C@_0EA@BFCGJGEN@Remap?5w?1?5Ctrl?$CLShift?3?5click?5anyw@
CONST	SEGMENT
??_C@_0EA@BFCGJGEN@Remap?5w?1?5Ctrl?$CLShift?3?5click?5anyw@ DB 'Remap w/'
	DB	' Ctrl+Shift: click anywhere to select new mouse button.', 00H ; `string'
CONST	ENDS
;	COMDAT ??_C@_06OJAFHGNF@Middle@
CONST	SEGMENT
??_C@_06OJAFHGNF@Middle@ DB 'Middle', 00H		; `string'
CONST	ENDS
;	COMDAT ??_C@_05DADPALEM@Right@
CONST	SEGMENT
??_C@_05DADPALEM@Right@ DB 'Right', 00H			; `string'
CONST	ENDS
;	COMDAT ??_C@_04KPCPLBPL@Left@
CONST	SEGMENT
??_C@_04KPCPLBPL@Left@ DB 'Left', 00H			; `string'
CONST	ENDS
;	COMDAT ??_C@_0BM@IIPBLKLJ@Press?5ESC?5to?5abort?5picking?4@
CONST	SEGMENT
??_C@_0BM@IIPBLKLJ@Press?5ESC?5to?5abort?5picking?4@ DB 'Press ESC to abo'
	DB	'rt picking.', 00H				; `string'
CONST	ENDS
;	COMDAT ??_C@_0BC@JHPKFIGH@HoveredId?3?50x?$CF08X@
CONST	SEGMENT
??_C@_0BC@JHPKFIGH@HoveredId?3?50x?$CF08X@ DB 'HoveredId: 0x%08X', 00H ; `string'
CONST	ENDS
;	COMDAT ??_C@_02EMFKHFLK@?$CFX@
CONST	SEGMENT
??_C@_02EMFKHFLK@?$CFX@ DB '%X', 00H			; `string'
CONST	ENDS
;	COMDAT ??_C@_05FBKDEFNG@?$CD?$CDlog@
CONST	SEGMENT
??_C@_05FBKDEFNG@?$CD?$CDlog@ DB '##log', 00H		; `string'
CONST	ENDS
;	COMDAT ??_C@_04OPMHGHMB@Copy@
CONST	SEGMENT
??_C@_04OPMHGHMB@Copy@ DB 'Copy', 00H			; `string'
CONST	ENDS
;	COMDAT ??_C@_02IBEMDGI@IO@
CONST	SEGMENT
??_C@_02IBEMDGI@IO@ DB 'IO', 00H			; `string'
CONST	ENDS
;	COMDAT ??_C@_07JPNKMPHH@Clipper@
CONST	SEGMENT
??_C@_07JPNKMPHH@Clipper@ DB 'Clipper', 00H		; `string'
CONST	ENDS
;	COMDAT ??_C@_05EPOLMFOG@Popup@
CONST	SEGMENT
??_C@_05EPOLMFOG@Popup@ DB 'Popup', 00H			; `string'
CONST	ENDS
;	COMDAT ??_C@_05PDOFIPNC@Focus@
CONST	SEGMENT
??_C@_05PDOFIPNC@Focus@ DB 'Focus', 00H			; `string'
CONST	ENDS
;	COMDAT ??_C@_08LNBHPLFF@ActiveId@
CONST	SEGMENT
??_C@_08LNBHPLFF@ActiveId@ DB 'ActiveId', 00H		; `string'
CONST	ENDS
;	COMDAT ??_C@_03HFJGAJFE@All@
CONST	SEGMENT
??_C@_03HFJGAJFE@All@ DB 'All', 00H			; `string'
CONST	ENDS
;	COMDAT ??_C@_0M@DNGOBPAF@Log?5events?3@
CONST	SEGMENT
??_C@_0M@DNGOBPAF@Log?5events?3@ DB 'Log events:', 00H	; `string'
CONST	ENDS
;	COMDAT ??_C@_0BF@DOBPLNCP@Dear?5ImGui?5Debug?5Log@
CONST	SEGMENT
??_C@_0BF@DOBPLNCP@Dear?5ImGui?5Debug?5Log@ DB 'Dear ImGui Debug Log', 00H ; `string'
CONST	ENDS
;	COMDAT ??_C@_07CHALBAHD@?$FL?$CF05d?$FN?5@
CONST	SEGMENT
??_C@_07CHALBAHD@?$FL?$CF05d?$FN?5@ DB '[%05d] ', 00H	; `string'
CONST	ENDS
;	COMDAT ??_C@_0O@LOOBKDLG@?$FL?$CF04d?$FN?5Window@
CONST	SEGMENT
??_C@_0O@LOOBKDLG@?$FL?$CF04d?$FN?5Window@ DB '[%04d] Window', 00H ; `string'
CONST	ENDS
;	COMDAT ??_C@_07JMKCEEPK@?$CFs?5?$CI?$CFd?$CJ@
CONST	SEGMENT
??_C@_07JMKCEEPK@?$CFs?5?$CI?$CFd?$CJ@ DB '%s (%d)', 00H ; `string'
CONST	ENDS
;	COMDAT ??_C@_0DC@NLKEEDHM@0x?$CF08X?5?$CC?$CFs?$CC?5Pos?5?$CI?$CFd?0?$CFd?$CJ?5Size?5?$CI?$CF@
CONST	SEGMENT
??_C@_0DC@NLKEEDHM@0x?$CF08X?5?$CC?$CFs?$CC?5Pos?5?$CI?$CFd?0?$CFd?$CJ?5Size?5?$CI?$CF@ DB '0'
	DB	'x%08X "%s" Pos (%d,%d) Size (%d,%d) Collapsed=%d', 00H ; `string'
CONST	ENDS
;	COMDAT ??_C@_07PFGLPMIK@Storage@
CONST	SEGMENT
??_C@_07PFGLPMIK@Storage@ DB 'Storage', 00H		; `string'
CONST	ENDS
;	COMDAT ??_C@_07IBCCJKML@Columns@
CONST	SEGMENT
??_C@_07IBCCJKML@Columns@ DB 'Columns', 00H		; `string'
CONST	ENDS
;	COMDAT ??_C@_0BC@FIDDFLAI@Columns?5sets?5?$CI?$CFd?$CJ@
CONST	SEGMENT
??_C@_0BC@FIDDFLAI@Columns?5sets?5?$CI?$CFd?$CJ@ DB 'Columns sets (%d)', 00H ; `string'
CONST	ENDS
;	COMDAT ??_C@_0N@BGDHDNPO@ChildWindows@
CONST	SEGMENT
??_C@_0N@BGDHDNPO@ChildWindows@ DB 'ChildWindows', 00H	; `string'
CONST	ENDS
;	COMDAT ??_C@_0N@BPPHAMMO@ParentWindow@
CONST	SEGMENT
??_C@_0N@BPPHAMMO@ParentWindow@ DB 'ParentWindow', 00H	; `string'
CONST	ENDS
;	COMDAT ??_C@_0L@EHLMOHOL@RootWindow@
CONST	SEGMENT
??_C@_0L@EHLMOHOL@RootWindow@ DB 'RootWindow', 00H	; `string'
CONST	ENDS
;	COMDAT ??_C@_0DD@ILECKNFA@NavLayersActiveMask?3?5?$CFX?0?5NavLas@
CONST	SEGMENT
??_C@_0DD@ILECKNFA@NavLayersActiveMask?3?5?$CFX?0?5NavLas@ DB 'NavLayersA'
	DB	'ctiveMask: %X, NavLastChildNavWindow: %s', 00H ; `string'
CONST	ENDS
;	COMDAT ??_C@_0DC@PKDENGJH@NavLastIds?$FL?$CFd?$FN?3?50x?$CF08X?5at?5?$CL?$CI?$CF?41@
CONST	SEGMENT
??_C@_0DC@PKDENGJH@NavLastIds?$FL?$CFd?$FN?3?50x?$CF08X?5at?5?$CL?$CI?$CF?41@ DB 'N'
	DB	'avLastIds[%d]: 0x%08X at +(%.1f,%.1f)(%.1f,%.1f)', 00H ; `string'
CONST	ENDS
;	COMDAT ??_C@_0BH@EDAJMFBI@NavLastIds?$FL?$CFd?$FN?3?50x?$CF08X@
CONST	SEGMENT
??_C@_0BH@EDAJMFBI@NavLastIds?$FL?$CFd?$FN?3?50x?$CF08X@ DB 'NavLastIds[%'
	DB	'd]: 0x%08X', 00H				; `string'
CONST	ENDS
;	COMDAT ??_C@_0EA@JLDPMAKO@Appearing?3?5?$CFd?0?5Hidden?3?5?$CFd?5?$CICanS@
CONST	SEGMENT
??_C@_0EA@JLDPMAKO@Appearing?3?5?$CFd?0?5Hidden?3?5?$CFd?5?$CICanS@ DB 'A'
	DB	'ppearing: %d, Hidden: %d (CanSkip %d Cannot %d), SkipItems: %'
	DB	'd', 00H					; `string'
CONST	ENDS
;	COMDAT ??_C@_0DO@LPCMGHLI@Active?3?5?$CFd?1?$CFd?0?5WriteAccessed?3?5?$CF@
CONST	SEGMENT
??_C@_0DO@LPCMGHLI@Active?3?5?$CFd?1?$CFd?0?5WriteAccessed?3?5?$CF@ DB 'A'
	DB	'ctive: %d/%d, WriteAccessed: %d, BeginOrderWithinContext: %d', 00H ; `string'
CONST	ENDS
;	COMDAT ??_C@_0CN@OBHMFINH@Scroll?3?5?$CI?$CF?42f?1?$CF?42f?0?$CF?42f?1?$CF?42f?$CJ?5S@
CONST	SEGMENT
??_C@_0CN@OBHMFINH@Scroll?3?5?$CI?$CF?42f?1?$CF?42f?0?$CF?42f?1?$CF?42f?$CJ?5S@ DB 'S'
	DB	'croll: (%.2f/%.2f,%.2f/%.2f) Scrollbar:%s%s', 00H ; `string'
CONST	ENDS
;	COMDAT ??_C@_0CF@HFFEAFCN@Flags?3?50x?$CF08X?5?$CI?$CFs?$CFs?$CFs?$CFs?$CFs?$CFs?$CFs?$CFs@
CONST	SEGMENT
??_C@_0CF@HFFEAFCN@Flags?3?50x?$CF08X?5?$CI?$CFs?$CFs?$CFs?$CFs?$CFs?$CFs?$CFs?$CFs@ DB 'F'
	DB	'lags: 0x%08X (%s%s%s%s%s%s%s%s%s..)', 00H	; `string'
CONST	ENDS
;	COMDAT ??_C@_06MMFPNIIL@Child?5@
CONST	SEGMENT
??_C@_06MMFPNIIL@Child?5@ DB 'Child ', 00H		; `string'
CONST	ENDS
;	COMDAT ??_C@_08LGECAIGF@Tooltip?5@
CONST	SEGMENT
??_C@_08LGECAIGF@Tooltip?5@ DB 'Tooltip ', 00H		; `string'
CONST	ENDS
;	COMDAT ??_C@_06NMKCIICK@Popup?5@
CONST	SEGMENT
??_C@_06NMKCIICK@Popup?5@ DB 'Popup ', 00H		; `string'
CONST	ENDS
;	COMDAT ??_C@_06IFIMNOLK@Modal?5@
CONST	SEGMENT
??_C@_06IFIMNOLK@Modal?5@ DB 'Modal ', 00H		; `string'
CONST	ENDS
;	COMDAT ??_C@_0L@OPMMHACC@ChildMenu?5@
CONST	SEGMENT
??_C@_0L@OPMMHACC@ChildMenu?5@ DB 'ChildMenu ', 00H	; `string'
CONST	ENDS
;	COMDAT ??_C@_0BB@EBNDPMCP@NoSavedSettings?5@
CONST	SEGMENT
??_C@_0BB@EBNDPMCP@NoSavedSettings?5@ DB 'NoSavedSettings ', 00H ; `string'
CONST	ENDS
;	COMDAT ??_C@_0O@LAPEOEIJ@NoMouseInputs@
CONST	SEGMENT
??_C@_0O@LAPEOEIJ@NoMouseInputs@ DB 'NoMouseInputs', 00H ; `string'
CONST	ENDS
;	COMDAT ??_C@_0M@COLEABDL@NoNavInputs@
CONST	SEGMENT
??_C@_0M@COLEABDL@NoNavInputs@ DB 'NoNavInputs', 00H	; `string'
CONST	ENDS
;	COMDAT ??_C@_0BB@GGEIPOID@AlwaysAutoResize@
CONST	SEGMENT
??_C@_0BB@GGEIPOID@AlwaysAutoResize@ DB 'AlwaysAutoResize', 00H ; `string'
CONST	ENDS
;	COMDAT ??_C@_0EP@MJAPPIBI@Pos?3?5?$CI?$CF?41f?0?$CF?41f?$CJ?0?5Size?3?5?$CI?$CF?41f?0?$CF@
CONST	SEGMENT
??_C@_0EP@MJAPPIBI@Pos?3?5?$CI?$CF?41f?0?$CF?41f?$CJ?0?5Size?3?5?$CI?$CF?41f?0?$CF@ DB 'P'
	DB	'os: (%.1f,%.1f), Size: (%.1f,%.1f), ContentSize (%.1f,%.1f) I'
	DB	'deal (%.1f,%.1f)', 00H			; `string'
CONST	ENDS
;	COMDAT ??_C@_0DF@KJLKCABL@Note?3?5some?5memory?5buffers?5have?5@
CONST	SEGMENT
??_C@_0DF@KJLKCABL@Note?3?5some?5memory?5buffers?5have?5@ DB 'Note: some '
	DB	'memory buffers have been compacted/freed.', 00H ; `string'
CONST	ENDS
;	COMDAT ??_C@_09GBCBPCGK@?$CFs?5?8?$CFs?8?$CFs@
CONST	SEGMENT
??_C@_09GBCBPCGK@?$CFs?5?8?$CFs?8?$CFs@ DB '%s ''%s''%s', 00H ; `string'
CONST	ENDS
;	COMDAT ??_C@_08MGKMCIPB@?$CFs?3?5NULL@
CONST	SEGMENT
??_C@_08MGKMCIPB@?$CFs?3?5NULL@ DB '%s: NULL', 00H	; `string'
CONST	ENDS
;	COMDAT ??_C@_0BG@LEDJFOBI@Flags?3?50x?$CF04X?5?$DN?$CFs?$CFs?$CFs@
CONST	SEGMENT
??_C@_0BG@LEDJFOBI@Flags?3?50x?$CF04X?5?$DN?$CFs?$CFs?$CFs@ DB 'Flags: 0x'
	DB	'%04X =%s%s%s', 00H				; `string'
CONST	ENDS
;	COMDAT ??_C@_0BC@KGGIDDGG@?5IsPlatformWindow@
CONST	SEGMENT
??_C@_0BC@KGGIDDGG@?5IsPlatformWindow@ DB ' IsPlatformWindow', 00H ; `string'
CONST	ENDS
;	COMDAT ??_C@_0BD@FKGIEJBE@?5IsPlatformMonitor@
CONST	SEGMENT
??_C@_0BD@FKGIEJBE@?5IsPlatformMonitor@ DB ' IsPlatformMonitor', 00H ; `string'
CONST	ENDS
;	COMDAT ??_C@_0M@FAFJAKJI@?5OwnedByApp@
CONST	SEGMENT
??_C@_0M@FAFJAKJI@?5OwnedByApp@ DB ' OwnedByApp', 00H	; `string'
CONST	ENDS
;	COMDAT ??_C@_0GJ@COEDEIEA@Main?5Pos?3?5?$CI?$CF?40f?0?$CF?40f?$CJ?0?5Size?3?5?$CI?$CF@
CONST	SEGMENT
??_C@_0GJ@COEDEIEA@Main?5Pos?3?5?$CI?$CF?40f?0?$CF?40f?$CJ?0?5Size?3?5?$CI?$CF@ DB 'M'
	DB	'ain Pos: (%.0f,%.0f), Size: (%.0f,%.0f)', 0aH, 'WorkArea Offs'
	DB	'et Left: %.0f Top: %.0f, Right: %.0f, Bottom: %.0f', 00H ; `string'
CONST	ENDS
;	COMDAT ??_C@_09PLOOGGOG@viewport0@
CONST	SEGMENT
??_C@_09PLOOGGOG@viewport0@ DB 'viewport0', 00H		; `string'
CONST	ENDS
;	COMDAT ??_C@_0N@IHHEFJLI@Viewport?5?$CD?$CFd@
CONST	SEGMENT
??_C@_0N@IHHEFJLI@Viewport?5?$CD?$CFd@ DB 'Viewport #%d', 00H ; `string'
CONST	ENDS
;	COMDAT ??_C@_0DG@DJKHNEAJ@?$CF02d?$CFc?5Tab?50x?$CF08X?5?8?$CFs?8?5Offset?3?5@
CONST	SEGMENT
??_C@_0DG@DJKHNEAJ@?$CF02d?$CFc?5Tab?50x?$CF08X?5?8?$CFs?8?5Offset?3?5@ DB '%'
	DB	'02d%c Tab 0x%08X ''%s'' Offset: %.2f, Width: %.2f/%.2f', 00H ; `string'
CONST	ENDS
;	COMDAT ??_C@_01PPODPGHN@?$DO@
CONST	SEGMENT
??_C@_01PPODPGHN@?$DO@ DB '>', 00H			; `string'
CONST	ENDS
;	COMDAT ??_C@_01MNNFJEPP@?$DM@
CONST	SEGMENT
??_C@_01MNNFJEPP@?$DM@ DB '<', 00H			; `string'
CONST	ENDS
;	COMDAT ??_C@_03LHCEFAHM@?5?$HN?5@
CONST	SEGMENT
??_C@_03LHCEFAHM@?5?$HN?5@ DB ' } ', 00H		; `string'
CONST	ENDS
;	COMDAT ??_C@_06MEIHFGI@?5?4?4?4?5?$HN@
CONST	SEGMENT
??_C@_06MEIHFGI@?5?4?4?4?5?$HN@ DB ' ... }', 00H	; `string'
CONST	ENDS
;	COMDAT ??_C@_06BKNPIBKB@?$CFs?8?$CFs?8@
CONST	SEGMENT
??_C@_06BKNPIBKB@?$CFs?8?$CFs?8@ DB '%s''%s''', 00H	; `string'
CONST	ENDS
;	COMDAT ??_C@_02KEGNLNML@?0?5@
CONST	SEGMENT
??_C@_02KEGNLNML@?0?5@ DB ', ', 00H			; `string'
CONST	ENDS
;	COMDAT ??_C@_03BBKEAIF@?$DP?$DP?$DP@
CONST	SEGMENT
??_C@_03BBKEAIF@?$DP?$DP?$DP@ DB '???', 00H		; `string'
CONST	ENDS
;	COMDAT ??_C@_04JFAOCLML@?5?5?$HL?5@
CONST	SEGMENT
??_C@_04JFAOCLML@?5?5?$HL?5@ DB '  { ', 00H		; `string'
CONST	ENDS
;	COMDAT ??_C@_0BG@BDDHJGDD@?$CFs?50x?$CF08X?5?$CI?$CFd?5tabs?$CJ?$CFs@
CONST	SEGMENT
??_C@_0BG@BDDHJGDD@?$CFs?50x?$CF08X?5?$CI?$CFd?5tabs?$CJ?$CFs@ DB '%s 0x%'
	DB	'08X (%d tabs)%s', 00H			; `string'
CONST	ENDS
;	COMDAT ??_C@_0M@MDILNFHC@?5?$CKInactive?$CK@
CONST	SEGMENT
??_C@_0M@MDILNFHC@?5?$CKInactive?$CK@ DB ' *Inactive*', 00H ; `string'
CONST	ENDS
;	COMDAT ??_C@_0BL@LEAFLIMO@Key?50x?$CF08X?5Value?5?$HL?5i?3?5?$CFd?5?$HN@
CONST	SEGMENT
??_C@_0BL@LEAFLIMO@Key?50x?$CF08X?5Value?5?$HL?5i?3?5?$CFd?5?$HN@ DB 'Key'
	DB	' 0x%08X Value { i: %d }', 00H		; `string'
CONST	ENDS
;	COMDAT ??_C@_0BJ@EFAEFOHB@?$CFs?3?5?$CFd?5entries?0?5?$CFd?5bytes@
CONST	SEGMENT
??_C@_0BJ@EFAEFOHB@?$CFs?3?5?$CFd?5entries?0?5?$CFd?5bytes@ DB '%s: %d en'
	DB	'tries, %d bytes', 00H			; `string'
CONST	ENDS
;	COMDAT ??_C@_0BN@EHEDNDHJ@UV?3?5?$CI?$CF?43f?0?$CF?43f?$CJ?9?$DO?$CI?$CF?43f?0?$CF?43f?$CJ@
CONST	SEGMENT
??_C@_0BN@EHEDNDHJ@UV?3?5?$CI?$CF?43f?0?$CF?43f?$CJ?9?$DO?$CI?$CF?43f?0?$CF?43f?$CJ@ DB 'U'
	DB	'V: (%.3f,%.3f)->(%.3f,%.3f)', 00H		; `string'
CONST	ENDS
;	COMDAT ??_C@_0BO@BCFBHCGJ@Pos?3?5?$CI?$CF?42f?0?$CF?42f?$CJ?9?$DO?$CI?$CF?42f?0?$CF?42f?$CJ@
CONST	SEGMENT
??_C@_0BO@BCFBHCGJ@Pos?3?5?$CI?$CF?42f?0?$CF?42f?$CJ?9?$DO?$CI?$CF?42f?0?$CF?42f?$CJ@ DB 'P'
	DB	'os: (%.2f,%.2f)->(%.2f,%.2f)', 00H		; `string'
CONST	ENDS
;	COMDAT ??_C@_0P@JLIDDFIB@AdvanceX?3?5?$CF?41f@
CONST	SEGMENT
??_C@_0P@JLIDDFIB@AdvanceX?3?5?$CF?41f@ DB 'AdvanceX: %.1f', 00H ; `string'
CONST	ENDS
;	COMDAT ??_C@_0M@GDBOFNKK@Visible?3?5?$CFd@
CONST	SEGMENT
??_C@_0M@GDBOFNKK@Visible?3?5?$CFd@ DB 'Visible: %d', 00H ; `string'
CONST	ENDS
;	COMDAT ??_C@_0BC@JMLDGIFC@Codepoint?3?5U?$CL?$CF04X@
CONST	SEGMENT
??_C@_0BC@JMLDGIFC@Codepoint?3?5U?$CL?$CF04X@ DB 'Codepoint: U+%04X', 00H ; `string'
CONST	ENDS
;	COMDAT ??_C@_0BH@KIECHKHD@U?$CL?$CF04X?4?4U?$CL?$CF04X?5?$CI?$CFd?5?$CFs?$CJ@
CONST	SEGMENT
??_C@_0BH@KIECHKHD@U?$CL?$CF04X?4?4U?$CL?$CF04X?5?$CI?$CFd?5?$CFs?$CJ@ DB 'U'
	DB	'+%04X..U+%04X (%d %s)', 00H			; `string'
CONST	ENDS
;	COMDAT ??_C@_05OIOMJNBL@glyph@
CONST	SEGMENT
??_C@_05OIOMJNBL@glyph@ DB 'glyph', 00H			; `string'
CONST	ENDS
;	COMDAT ??_C@_06IOJPAPEE@glyphs@
CONST	SEGMENT
??_C@_06IOJPAPEE@glyphs@ DB 'glyphs', 00H		; `string'
CONST	ENDS
;	COMDAT ??_C@_06EBCCDGNI@Glyphs@
CONST	SEGMENT
??_C@_06EBCCDGNI@Glyphs@ DB 'Glyphs', 00H		; `string'
CONST	ENDS
;	COMDAT ??_C@_0M@NEAHLNMH@Glyphs?5?$CI?$CFd?$CJ@
CONST	SEGMENT
??_C@_0M@NEAHLNMH@Glyphs?5?$CI?$CFd?$CJ@ DB 'Glyphs (%d)', 00H ; `string'
CONST	ENDS
;	COMDAT ??_C@_0EJ@EOFKACMP@Input?5?$CFd?3?5?8?$CFs?8?0?5Oversample?3?5?$CI?$CFd@
CONST	SEGMENT
??_C@_0EJ@EOFKACMP@Input?5?$CFd?3?5?8?$CFs?8?0?5Oversample?3?5?$CI?$CFd@ DB 'I'
	DB	'nput %d: ''%s'', Oversample: (%d,%d), PixelSnapH: %d, Offset:'
	DB	' (%.1f,%.1f)', 00H				; `string'
CONST	ENDS
;	COMDAT ??_C@_0CE@LLADJGCM@Texture?5Area?3?5about?5?$CFd?5px?5?$HO?$CFdx?$CF@
CONST	SEGMENT
??_C@_0CE@LLADJGCM@Texture?5Area?3?5about?5?$CFd?5px?5?$HO?$CFdx?$CF@ DB 'T'
	DB	'exture Area: about %d px ~%dx%d px', 00H	; `string'
CONST	ENDS
;	COMDAT ??_C@_0CC@FAJAAGEH@Ellipsis?5character?3?5?8?$CFs?8?5?$CIU?$CL?$CF04@
CONST	SEGMENT
??_C@_0CC@FAJAAGEH@Ellipsis?5character?3?5?8?$CFs?8?5?$CIU?$CL?$CF04@ DB 'E'
	DB	'llipsis character: ''%s'' (U+%04X)', 00H	; `string'
CONST	ENDS
;	COMDAT ??_C@_0CC@FDGLEGDM@Fallback?5character?3?5?8?$CFs?8?5?$CIU?$CL?$CF04@
CONST	SEGMENT
??_C@_0CC@FDGLEGDM@Fallback?5character?3?5?8?$CFs?8?5?$CIU?$CL?$CF04@ DB 'F'
	DB	'allback character: ''%s'' (U+%04X)', 00H	; `string'
CONST	ENDS
;	COMDAT ??_C@_0CE@FJCMKHHK@Ascent?3?5?$CFf?0?5Descent?3?5?$CFf?0?5Height@
CONST	SEGMENT
??_C@_0CE@FJCMKHHK@Ascent?3?5?$CFf?0?5Descent?3?5?$CFf?0?5Height@ DB 'Asc'
	DB	'ent: %f, Descent: %f, Height: %f', 00H	; `string'
CONST	ENDS
;	COMDAT ??_C@_0BIM@BPPJLJKD@Note?5than?5the?5default?5embedded?5@
CONST	SEGMENT
??_C@_0BIM@BPPJLJKD@Note?5than?5the?5default?5embedded?5@ DB 'Note than t'
	DB	'he default embedded font is NOT meant to be scaled.', 0aH, 0aH
	DB	'Font are currently rendered into bitmaps at a given size at t'
	DB	'he time of building the atlas. You may oversample them to get'
	DB	' some flexibility with scaling. You can also render at multip'
	DB	'le sizes and select which one to use at runtime.', 0aH, 0aH, '('
	DB	'Glimmer of hope: the atlas system will be rewritten in the fu'
	DB	'ture to make scaling more flexible.)', 00H	; `string'
CONST	ENDS
;	COMDAT ??_C@_0L@HAJGHBLA@Font?5scale@
CONST	SEGMENT
??_C@_0L@HAJGHBLA@Font?5scale@ DB 'Font scale', 00H	; `string'
CONST	ENDS
;	COMDAT ??_C@_04GGBPDDBN@?$CF?41f@
CONST	SEGMENT
??_C@_04GGBPDDBN@?$CF?41f@ DB '%.1f', 00H		; `string'
CONST	ENDS
;	COMDAT ??_C@_0CM@HCLJNHNJ@The?5quick?5brown?5fox?5jumps?5over?5@
CONST	SEGMENT
??_C@_0CM@HCLJNHNJ@The?5quick?5brown?5fox?5jumps?5over?5@ DB 'The quick b'
	DB	'rown fox jumps over the lazy dog', 00H	; `string'
CONST	ENDS
;	COMDAT ??_C@_0P@HCLAAKJM@Set?5as?5default@
CONST	SEGMENT
??_C@_0P@HCLAAKJM@Set?5as?5default@ DB 'Set as default', 00H ; `string'
CONST	ENDS
;	COMDAT ??_C@_0CK@IFCNIJMP@Font?3?5?$CC?$CFs?$CC?6?$CF?42f?5px?0?5?$CFd?5glyphs?0?5@
CONST	SEGMENT
??_C@_0CK@IFCNIJMP@Font?3?5?$CC?$CFs?$CC?6?$CF?42f?5px?0?5?$CFd?5glyphs?0?5@ DB 'F'
	DB	'ont: "%s"', 0aH, '%.2f px, %d glyphs, %d file(s)', 00H ; `string'
CONST	ENDS
;	COMDAT ??_C@_0DG@MPIFBGBG@?$CFs?5?$CF04d?3?5pos?5?$CI?$CF8?42f?0?$CF8?42f?$CJ?0?5uv?5@
CONST	SEGMENT
??_C@_0DG@MPIFBGBG@?$CFs?5?$CF04d?3?5pos?5?$CI?$CF8?42f?0?$CF8?42f?$CJ?0?5uv?5@ DB '%'
	DB	's %04d: pos (%8.2f,%8.2f), uv (%.6f,%.6f), col %08X', 0aH, 00H ; `string'
CONST	ENDS
;	COMDAT ??_C@_05IFKLLJBC@?5?5?5?5?5@
CONST	SEGMENT
??_C@_05IFKLLJBC@?5?5?5?5?5@ DB '     ', 00H		; `string'
CONST	ENDS
;	COMDAT ??_C@_05HCFPDLGJ@Vert?3@
CONST	SEGMENT
??_C@_05HCFPDLGJ@Vert?3@ DB 'Vert:', 00H		; `string'
CONST	ENDS
;	COMDAT ??_C@_0EE@EGAMBHDK@Mesh?3?5ElemCount?3?5?$CFd?0?5VtxOffset?3@
CONST	SEGMENT
??_C@_0EE@EGAMBHDK@Mesh?3?5ElemCount?3?5?$CFd?0?5VtxOffset?3@ DB 'Mesh: E'
	DB	'lemCount: %d, VtxOffset: +%d, IdxOffset: +%d, Area: ~%0.f px', 00H ; `string'
CONST	ENDS
;	COMDAT ??_C@_0EB@FAPEKKJB@DrawCmd?3?$CF5d?5tris?0?5Tex?50x?$CFp?0?5Cli@
CONST	SEGMENT
??_C@_0EB@FAPEKKJB@DrawCmd?3?$CF5d?5tris?0?5Tex?50x?$CFp?0?5Cli@ DB 'Draw'
	DB	'Cmd:%5d tris, Tex 0x%p, ClipRect (%4.0f,%4.0f)-(%4.0f,%4.0f)', 00H ; `string'
CONST	ENDS
;	COMDAT ??_C@_0BK@FDNBBNBF@Callback?5?$CFp?0?5user_data?5?$CFp@
CONST	SEGMENT
??_C@_0BK@FDNBBNBF@Callback?5?$CFp?0?5user_data?5?$CFp@ DB 'Callback %p, '
	DB	'user_data %p', 00H				; `string'
CONST	ENDS
;	COMDAT ??_C@_0EJ@LNIIFBMO@Warning?3?5owning?5Window?5is?5inact@
CONST	SEGMENT
??_C@_0EJ@LNIIFBMO@Warning?3?5owning?5Window?5is?5inact@ DB 'Warning: own'
	DB	'ing Window is inactive. This DrawList is not being rendered!', 00H ; `string'
CONST	ENDS
;	COMDAT ??_C@_0BE@LDCFEMCB@CURRENTLY?5APPENDING@
CONST	SEGMENT
??_C@_0BE@LDCFEMCB@CURRENTLY?5APPENDING@ DB 'CURRENTLY APPENDING', 00H ; `string'
CONST	ENDS
;	COMDAT ??_C@_0CF@IMBENNLG@?$CFs?3?5?8?$CFs?8?5?$CFd?5vtx?0?5?$CFd?5indices?0?5?$CFd@
CONST	SEGMENT
??_C@_0CF@IMBENNLG@?$CFs?3?5?8?$CFs?8?5?$CFd?5vtx?0?5?$CFd?5indices?0?5?$CFd@ DB '%'
	DB	's: ''%s'' %d vtx, %d indices, %d cmds', 00H	; `string'
CONST	ENDS
;	COMDAT ??_C@_0CJ@CPAFBJNN@Column?5?$CF02d?3?5OffsetNorm?5?$CF?43f?5?$CI?$DN@
CONST	SEGMENT
??_C@_0CJ@CPAFBJNN@Column?5?$CF02d?3?5OffsetNorm?5?$CF?43f?5?$CI?$DN@ DB 'C'
	DB	'olumn %02d: OffsetNorm %.3f (= %.1f px)', 00H ; `string'
CONST	ENDS
;	COMDAT ??_C@_0CF@PKFCLBKA@Width?3?5?$CF?41f?5?$CIMinX?3?5?$CF?41f?0?5MaxX?3?5@
CONST	SEGMENT
??_C@_0CF@PKFCLBKA@Width?3?5?$CF?41f?5?$CIMinX?3?5?$CF?41f?0?5MaxX?3?5@ DB 'W'
	DB	'idth: %.1f (MinX: %.1f, MaxX: %.1f)', 00H	; `string'
CONST	ENDS
;	COMDAT ??_C@_0CN@LMOAIACO@Columns?5Id?3?50x?$CF08X?0?5Count?3?5?$CFd?0?5@
CONST	SEGMENT
??_C@_0CN@LMOAIACO@Columns?5Id?3?50x?$CF08X?0?5Count?3?5?$CFd?0?5@ DB 'Co'
	DB	'lumns Id: 0x%08X, Count: %d, Flags: 0x%04X', 00H ; `string'
CONST	ENDS
;	COMDAT ??_C@_0BJ@HGGGEMAP@NavWindowingTarget?3?5?8?$CFs?8@
CONST	SEGMENT
??_C@_0BJ@HGGGEMAP@NavWindowingTarget?3?5?8?$CFs?8@ DB 'NavWindowingTarge'
	DB	't: ''%s''', 00H				; `string'
CONST	ENDS
;	COMDAT ??_C@_0BJ@GGAKOFG@NavFocusScopeId?5?$DN?50x?$CF08X@
CONST	SEGMENT
??_C@_0BJ@GGAKOFG@NavFocusScopeId?5?$DN?50x?$CF08X@ DB 'NavFocusScopeId ='
	DB	' 0x%08X', 00H				; `string'
CONST	ENDS
;	COMDAT ??_C@_0DC@PBLGJJAI@NavDisableHighlight?3?5?$CFd?0?5NavDis@
CONST	SEGMENT
??_C@_0DC@PBLGJJAI@NavDisableHighlight?3?5?$CFd?0?5NavDis@ DB 'NavDisable'
	DB	'Highlight: %d, NavDisableMouseHover: %d', 00H ; `string'
CONST	ENDS
;	COMDAT ??_C@_0BH@DDMJGBPN@NavActivateFlags?3?5?$CF04X@
CONST	SEGMENT
??_C@_0BH@DDMJGBPN@NavActivateFlags?3?5?$CF04X@ DB 'NavActivateFlags: %04'
	DB	'X', 00H					; `string'
CONST	ENDS
;	COMDAT ??_C@_0DM@KABEEAKJ@NavActivateId?1DownId?1PressedId?1@
CONST	SEGMENT
??_C@_0DM@KABEEAKJ@NavActivateId?1DownId?1PressedId?1@ DB 'NavActivateId/'
	DB	'DownId/PressedId/InputId: %08X/%08X/%08X/%08X', 00H ; `string'
CONST	ENDS
;	COMDAT ??_C@_0BO@PADIALFI@NavActive?3?5?$CFd?0?5NavVisible?3?5?$CFd@
CONST	SEGMENT
??_C@_0BO@PADIALFI@NavActive?3?5?$CFd?0?5NavVisible?3?5?$CFd@ DB 'NavActi'
	DB	've: %d, NavVisible: %d', 00H		; `string'
CONST	ENDS
;	COMDAT ??_C@_0BD@HIKDFBG@NavInputSource?3?5?$CFs@
CONST	SEGMENT
??_C@_0BD@HIKDFBG@NavInputSource?3?5?$CFs@ DB 'NavInputSource: %s', 00H ; `string'
CONST	ENDS
;	COMDAT ??_C@_0BM@KFFINKHC@NavId?3?50x?$CF08X?0?5NavLayer?3?5?$CFd@
CONST	SEGMENT
??_C@_0BM@KFFINKHC@NavId?3?50x?$CF08X?0?5NavLayer?3?5?$CFd@ DB 'NavId: 0x'
	DB	'%08X, NavLayer: %d', 00H			; `string'
CONST	ENDS
;	COMDAT ??_C@_0BA@KJPDENCF@NavWindow?3?5?8?$CFs?8@
CONST	SEGMENT
??_C@_0BA@KJPDENCF@NavWindow?3?5?8?$CFs?8@ DB 'NavWindow: ''%s''', 00H ; `string'
CONST	ENDS
;	COMDAT ??_C@_09LPFJCNIB@NAV?0FOCUS@
CONST	SEGMENT
??_C@_09LPFJCNIB@NAV?0FOCUS@ DB 'NAV,FOCUS', 00H	; `string'
CONST	ENDS
;	COMDAT ??_C@_0DJ@OPOHHHAC@DragDrop?3?5?$CFd?0?5SourceId?5?$DN?50x?$CF08X@
CONST	SEGMENT
??_C@_0DJ@OPOHHHAC@DragDrop?3?5?$CFd?0?5SourceId?5?$DN?50x?$CF08X@ DB 'Dr'
	DB	'agDrop: %d, SourceId = 0x%08X, Payload "%s" (%d bytes)', 00H ; `string'
CONST	ENDS
;	COMDAT ??_C@_0DE@CGPHDBFO@HoverDelayId?3?50x?$CF08X?0?5Timer?3?5?$CF?4@
CONST	SEGMENT
??_C@_0DE@CGPHDBFO@HoverDelayId?3?50x?$CF08X?0?5Timer?3?5?$CF?4@ DB 'Hove'
	DB	'rDelayId: 0x%08X, Timer: %.2f, ClearTimer: %.2f', 00H ; `string'
CONST	ENDS
;	COMDAT ??_C@_0CP@CCEEBMAB@HoveredId?3?50x?$CF08X?5?$CI?$CF?42f?5sec?$CJ?0?5A@
CONST	SEGMENT
??_C@_0CP@CCEEBMAB@HoveredId?3?50x?$CF08X?5?$CI?$CF?42f?5sec?$CJ?0?5A@ DB 'H'
	DB	'overedId: 0x%08X (%.2f sec), AllowOverlap: %d', 00H ; `string'
CONST	ENDS
;	COMDAT ??_C@_0DD@CAAMDFEK@ActiveIdUsing?3?5AllKeyboardKeys?3@
CONST	SEGMENT
??_C@_0DD@CAAMDFEK@ActiveIdUsing?3?5AllKeyboardKeys?3@ DB 'ActiveIdUsing:'
	DB	' AllKeyboardKeys: %d, NavDirMask: %X', 00H	; `string'
CONST	ENDS
;	COMDAT ??_C@_0BF@CPEAOPEJ@ActiveIdWindow?3?5?8?$CFs?8@
CONST	SEGMENT
??_C@_0BF@CPEAOPEJ@ActiveIdWindow?3?5?8?$CFs?8@ DB 'ActiveIdWindow: ''%s'''
	DB	00H						; `string'
CONST	ENDS
;	COMDAT ??_C@_0EB@PEJDHKLE@ActiveId?3?50x?$CF08X?10x?$CF08X?5?$CI?$CF?42f?5s@
CONST	SEGMENT
??_C@_0EB@PEJDHKLE@ActiveId?3?50x?$CF08X?10x?$CF08X?5?$CI?$CF?42f?5s@ DB 'A'
	DB	'ctiveId: 0x%08X/0x%08X (%.2f sec), AllowOverlap: %d, Source: '
	DB	'%s', 00H					; `string'
CONST	ENDS
;	COMDAT ??_C@_05OOOHNEPI@ITEMS@
CONST	SEGMENT
??_C@_05OOOHNEPI@ITEMS@ DB 'ITEMS', 00H			; `string'
CONST	ENDS
;	COMDAT ??_C@_0BD@HCKEDLME@MovingWindow?3?5?8?$CFs?8@
CONST	SEGMENT
??_C@_0BD@HCKEDLME@MovingWindow?3?5?8?$CFs?8@ DB 'MovingWindow: ''%s''', 00H ; `string'
CONST	ENDS
;	COMDAT ??_C@_0CF@OOIEDAD@HoveredWindowUnderMovingWindow?3@
CONST	SEGMENT
??_C@_0CF@OOIEDAD@HoveredWindowUnderMovingWindow?3@ DB 'HoveredWindowUnde'
	DB	'rMovingWindow: ''%s''', 00H			; `string'
CONST	ENDS
;	COMDAT ??_C@_0BK@GFBMGONH@HoveredWindow?9?$DORoot?3?5?8?$CFs?8@
CONST	SEGMENT
??_C@_0BK@GFBMGONH@HoveredWindow?9?$DORoot?3?5?8?$CFs?8@ DB 'HoveredWindo'
	DB	'w->Root: ''%s''', 00H			; `string'
CONST	ENDS
;	COMDAT ??_C@_0BE@NBGIHPGN@HoveredWindow?3?5?8?$CFs?8@
CONST	SEGMENT
??_C@_0BE@NBGIHPGN@HoveredWindow?3?5?8?$CFs?8@ DB 'HoveredWindow: ''%s''', 00H ; `string'
CONST	ENDS
;	COMDAT ??_C@_09OOMCPLIM@WINDOWING@
CONST	SEGMENT
??_C@_09OOMCPLIM@WINDOWING@ DB 'WINDOWING', 00H		; `string'
CONST	ENDS
;	COMDAT ??_C@_0P@DKNCHHLP@Internal?5state@
CONST	SEGMENT
??_C@_0P@DKNCHHLP@Internal?5state@ DB 'Internal state', 00H ; `string'
CONST	ENDS
;	COMDAT ??_C@_0DH@IBPBMDJD@?$CIActiveIdUsing?3?5AllKeyboardKeys@
CONST	SEGMENT
??_C@_0DH@IBPBMDJD@?$CIActiveIdUsing?3?5AllKeyboardKeys@ DB '(ActiveIdUsi'
	DB	'ng: AllKeyboardKeys: %d, NavDirMask: 0x%X)', 00H ; `string'
CONST	ENDS
;	COMDAT ??_C@_0L@NCKGGKFI@?$CFs?3?50x?$CF08X@
CONST	SEGMENT
??_C@_0L@NCKGGKFI@?$CFs?3?50x?$CF08X@ DB '%s: 0x%08X', 00H ; `string'
CONST	ENDS
;	COMDAT ??_C@_08MIEHDHIF@?$CD?$CDroutes@
CONST	SEGMENT
??_C@_08MIEHDHIF@?$CD?$CDroutes@ DB '##routes', 00H	; `string'
CONST	ENDS
;	COMDAT ??_C@_0BC@MLBLPLFP@Shortcut?5Routing?3@
CONST	SEGMENT
??_C@_0BC@MLBLPLFP@Shortcut?5Routing?3@ DB 'Shortcut Routing:', 00H ; `string'
CONST	ENDS
;	COMDAT ??_C@_0N@OFJBCDIC@?$CFs?3?50x?$CF08X?$CFs@
CONST	SEGMENT
??_C@_0N@OFJBCDIC@?$CFs?3?50x?$CF08X?$CFs@ DB '%s: 0x%08X%s', 00H ; `string'
CONST	ENDS
;	COMDAT ??_C@_0P@KHDHNDE@?5LockThisFrame@
CONST	SEGMENT
??_C@_0P@KHDHNDE@?5LockThisFrame@ DB ' LockThisFrame', 00H ; `string'
CONST	ENDS
;	COMDAT ??_C@_0BC@LKHMKKD@?5LockUntilRelease@
CONST	SEGMENT
??_C@_0BC@LKHMKKD@?5LockUntilRelease@ DB ' LockUntilRelease', 00H ; `string'
CONST	ENDS
;	COMDAT ??_C@_08MHDHGJOB@?$CD?$CDowners@
CONST	SEGMENT
??_C@_08MHDHGJOB@?$CD?$CDowners@ DB '##owners', 00H	; `string'
CONST	ENDS
;	COMDAT ??_C@_0M@GEIDPEHB@Key?5Owners?3@
CONST	SEGMENT
??_C@_0M@GEIDPEHB@Key?5Owners?3@ DB 'Key Owners:', 00H	; `string'
CONST	ENDS
;	COMDAT ??_C@_0BO@ONOELDBH@Key?5Owners?5?$CG?5Shortcut?5Routing@
CONST	SEGMENT
??_C@_0BO@ONOELDBH@Key?5Owners?5?$CG?5Shortcut?5Routing@ DB 'Key Owners &'
	DB	' Shortcut Routing', 00H			; `string'
CONST	ENDS
;	COMDAT ??_C@_05FJAOFNGD@?$CD?$CDIni@
CONST	SEGMENT
??_C@_05FJAOFNGD@?$CD?$CDIni@ DB '##Ini', 00H		; `string'
CONST	ENDS
;	COMDAT ??_C@_0BA@IEPJFGMP@SettingsIniData@
CONST	SEGMENT
??_C@_0BA@IEPJFGMP@SettingsIniData@ DB 'SettingsIniData', 00H ; `string'
CONST	ENDS
;	COMDAT ??_C@_0CI@MPNDIPDD@Settings?5unpacked?5data?5?$CI?4ini?$CJ?3?5@
CONST	SEGMENT
??_C@_0CI@MPNDIPDD@Settings?5unpacked?5data?5?$CI?4ini?$CJ?3?5@ DB 'Setti'
	DB	'ngs unpacked data (.ini): %d bytes', 00H	; `string'
CONST	ENDS
;	COMDAT ??_C@_0P@NAODIHNN@SettingsTables@
CONST	SEGMENT
??_C@_0P@NAODIHNN@SettingsTables@ DB 'SettingsTables', 00H ; `string'
CONST	ENDS
;	COMDAT ??_C@_0CH@GODOBOJJ@Settings?5packed?5data?3?5Tables?3?5?$CF@
CONST	SEGMENT
??_C@_0CH@GODOBOJJ@Settings?5packed?5data?3?5Tables?3?5?$CF@ DB 'Settings'
	DB	' packed data: Tables: %d bytes', 00H	; `string'
CONST	ENDS
;	COMDAT ??_C@_0BA@GOMGONFN@SettingsWindows@
CONST	SEGMENT
??_C@_0BA@GOMGONFN@SettingsWindows@ DB 'SettingsWindows', 00H ; `string'
CONST	ENDS
;	COMDAT ??_C@_0CI@CKIDLOMN@Settings?5packed?5data?3?5Windows?3?5@
CONST	SEGMENT
??_C@_0CI@CKIDLOMN@Settings?5packed?5data?3?5Windows?3?5@ DB 'Settings pa'
	DB	'cked data: Windows: %d bytes', 00H		; `string'
CONST	ENDS
;	COMDAT ??_C@_02DKCKIIND@?$CFs@
CONST	SEGMENT
??_C@_02DKCKIIND@?$CFs@ DB '%s', 00H			; `string'
CONST	ENDS
;	COMDAT ??_C@_0BB@NEINIHH@SettingsHandlers@
CONST	SEGMENT
??_C@_0BB@NEINIHH@SettingsHandlers@ DB 'SettingsHandlers', 00H ; `string'
CONST	ENDS
;	COMDAT ??_C@_0BI@PGENAEOL@Settings?5handlers?3?5?$CI?$CFd?$CJ@
CONST	SEGMENT
??_C@_0BI@PGENAEOL@Settings?5handlers?3?5?$CI?$CFd?$CJ@ DB 'Settings hand'
	DB	'lers: (%d)', 00H				; `string'
CONST	ENDS
;	COMDAT ??_C@_0BI@KCGHKNOH@SettingsDirtyTimer?5?$CF?42f@
CONST	SEGMENT
??_C@_0BI@KCGHKNOH@SettingsDirtyTimer?5?$CF?42f@ DB 'SettingsDirtyTimer %'
	DB	'.2f', 00H					; `string'
CONST	ENDS
;	COMDAT ??_C@_04OEDFLLKD@?$CC?$CFs?$CC@
CONST	SEGMENT
??_C@_04OEDFLLKD@?$CC?$CFs?$CC@ DB '"%s"', 00H		; `string'
CONST	ENDS
;	COMDAT ??_C@_0N@PMPOLMLD@Save?5to?5disk@
CONST	SEGMENT
??_C@_0N@PMPOLMLD@Save?5to?5disk@ DB 'Save to disk', 00H ; `string'
CONST	ENDS
;	COMDAT ??_C@_0P@BGFPLLLP@Save?5to?5memory@
CONST	SEGMENT
??_C@_0P@BGFPLLLP@Save?5to?5memory@ DB 'Save to memory', 00H ; `string'
CONST	ENDS
;	COMDAT ??_C@_05MDNHABIA@Clear@
CONST	SEGMENT
??_C@_05MDNHABIA@Clear@ DB 'Clear', 00H			; `string'
CONST	ENDS
;	COMDAT ??_C@_08EEOHOBEO@Settings@
CONST	SEGMENT
??_C@_08EEOHOBEO@Settings@ DB 'Settings', 00H		; `string'
CONST	ENDS
;	COMDAT ??_C@_09LIBCCLDO@InputText@
CONST	SEGMENT
??_C@_09LIBCCLDO@InputText@ DB 'InputText', 00H		; `string'
CONST	ENDS
;	COMDAT ??_C@_05ENDNDI@Fonts@
CONST	SEGMENT
??_C@_05ENDNDI@Fonts@ DB 'Fonts', 00H			; `string'
CONST	ENDS
;	COMDAT ??_C@_0L@IBDLAPEA@Fonts?5?$CI?$CFd?$CJ@
CONST	SEGMENT
??_C@_0L@IBDLAPEA@Fonts?5?$CI?$CFd?$CJ@ DB 'Fonts (%d)', 00H ; `string'
CONST	ENDS
;	COMDAT ??_C@_06KOKNHOLC@Tables@
CONST	SEGMENT
??_C@_06KOKNHOLC@Tables@ DB 'Tables', 00H		; `string'
CONST	ENDS
;	COMDAT ??_C@_0M@GKKKBBGH@Tables?5?$CI?$CFd?$CJ@
CONST	SEGMENT
??_C@_0M@GKKKBBGH@Tables?5?$CI?$CFd?$CJ@ DB 'Tables (%d)', 00H ; `string'
CONST	ENDS
;	COMDAT ??_C@_06PAFCDPCC@TabBar@
CONST	SEGMENT
??_C@_06PAFCDPCC@TabBar@ DB 'TabBar', 00H		; `string'
CONST	ENDS
;	COMDAT ??_C@_07NBICDJOO@TabBars@
CONST	SEGMENT
??_C@_07NBICDJOO@TabBars@ DB 'TabBars', 00H		; `string'
CONST	ENDS
;	COMDAT ??_C@_0O@JLIGAOM@Tab?5Bars?5?$CI?$CFd?$CJ@
CONST	SEGMENT
??_C@_0O@JLIGAOM@Tab?5Bars?5?$CI?$CFd?$CJ@ DB 'Tab Bars (%d)', 00H ; `string'
CONST	ENDS
;	COMDAT ??_C@_0EM@HDANJEGB@PopupID?3?5?$CF08x?0?5Window?3?5?8?$CFs?8?5?$CI?$CFs@
CONST	SEGMENT
??_C@_0EM@HDANJEGB@PopupID?3?5?$CF08x?0?5Window?3?5?8?$CFs?8?5?$CI?$CFs@ DB 'P'
	DB	'opupID: %08x, Window: ''%s'' (%s%s), BackupNavWindow ''%s'', '
	DB	'ParentWindow ''%s''', 00H			; `string'
CONST	ENDS
;	COMDAT ??_C@_06GFGJBDBB@Child?$DL@
CONST	SEGMENT
??_C@_06GFGJBDBB@Child?$DL@ DB 'Child;', 00H		; `string'
CONST	ENDS
;	COMDAT ??_C@_05BJFIHKGA@Menu?$DL@
CONST	SEGMENT
??_C@_05BJFIHKGA@Menu?$DL@ DB 'Menu;', 00H		; `string'
CONST	ENDS
;	COMDAT ??_C@_06ENDEIGLN@Popups@
CONST	SEGMENT
??_C@_06ENDEIGLN@Popups@ DB 'Popups', 00H		; `string'
CONST	ENDS
;	COMDAT ??_C@_0M@CMLJJLKO@Popups?5?$CI?$CFd?$CJ@
CONST	SEGMENT
??_C@_0M@CMLJJLKO@Popups?5?$CI?$CFd?$CJ@ DB 'Popups (%d)', 00H ; `string'
CONST	ENDS
;	COMDAT ??_C@_09GPOHHJPA@Viewports@
CONST	SEGMENT
??_C@_09GPOHHJPA@Viewports@ DB 'Viewports', 00H		; `string'
CONST	ENDS
;	COMDAT ??_C@_0P@HKKCMMOO@Viewports?5?$CI?$CFd?$CJ@
CONST	SEGMENT
??_C@_0P@HKKCMMOO@Viewports?5?$CI?$CFd?$CJ@ DB 'Viewports (%d)', 00H ; `string'
CONST	ENDS
;	COMDAT ??_C@_08IJNCDCKF@DrawList@
CONST	SEGMENT
??_C@_08IJNCDCKF@DrawList@ DB 'DrawList', 00H		; `string'
CONST	ENDS
;	COMDAT ??_C@_0CM@GCNMPAKG@Show?5ImDrawCmd?5bounding?5boxes?5w@
CONST	SEGMENT
??_C@_0CM@GCNMPAKG@Show?5ImDrawCmd?5bounding?5boxes?5w@ DB 'Show ImDrawCm'
	DB	'd bounding boxes when hovering', 00H	; `string'
CONST	ENDS
;	COMDAT ??_C@_0CC@NLEJJGFA@Show?5ImDrawCmd?5mesh?5when?5hoveri@
CONST	SEGMENT
??_C@_0CC@NLEJJGFA@Show?5ImDrawCmd?5mesh?5when?5hoveri@ DB 'Show ImDrawCm'
	DB	'd mesh when hovering', 00H			; `string'
CONST	ENDS
;	COMDAT ??_C@_09KCCHKPGA@DrawLists@
CONST	SEGMENT
??_C@_09KCCHKPGA@DrawLists@ DB 'DrawLists', 00H		; `string'
CONST	ENDS
;	COMDAT ??_C@_0P@EHGADCPI@DrawLists?5?$CI?$CFd?$CJ@
CONST	SEGMENT
??_C@_0P@EHGADCPI@DrawLists?5?$CI?$CFd?$CJ@ DB 'DrawLists (%d)', 00H ; `string'
CONST	ENDS
;	COMDAT ??_C@_0CC@PJNGLIEE@By?5submission?5order?5?$CIbegin?5stac@
CONST	SEGMENT
??_C@_0CC@PJNGLIEE@By?5submission?5order?5?$CIbegin?5stac@ DB 'By submiss'
	DB	'ion order (begin stack)', 00H		; `string'
CONST	ENDS
;	COMDAT ??_C@_0BO@HBHGMPEI@By?5focus?5order?5?$CIroot?5windows?$CJ@
CONST	SEGMENT
??_C@_0BO@HBHGMPEI@By?5focus?5order?5?$CIroot?5windows?$CJ@ DB 'By focus '
	DB	'order (root windows)', 00H			; `string'
CONST	ENDS
;	COMDAT ??_C@_0BB@OFNDBHKO@By?5display?5order@
CONST	SEGMENT
??_C@_0BB@OFNDBHKO@By?5display?5order@ DB 'By display order', 00H ; `string'
CONST	ENDS
;	COMDAT ??_C@_07LDLFNPGN@Windows@
CONST	SEGMENT
??_C@_07LDLFNPGN@Windows@ DB 'Windows', 00H		; `string'
CONST	ENDS
;	COMDAT ??_C@_0N@HJIBBJFL@Windows?5?$CI?$CFd?$CJ@
CONST	SEGMENT
??_C@_0N@HJIBBJFL@Windows?5?$CI?$CFd?$CJ@ DB 'Windows (%d)', 00H ; `string'
CONST	ENDS
;	COMDAT ??_C@_0DJ@IFLDIHOJ@?$CI?$CF6?41f?0?$CF6?41f?$CJ?5?$CI?$CF6?41f?0?$CF6?41f?$CJ?5Siz@
CONST	SEGMENT
??_C@_0DJ@IFLDIHOJ@?$CI?$CF6?41f?0?$CF6?41f?$CJ?5?$CI?$CF6?41f?0?$CF6?41f?$CJ?5Siz@ DB '('
	DB	'%6.1f,%6.1f) (%6.1f,%6.1f) Size (%6.1f,%6.1f) Col %d %s', 00H ; `string'
CONST	ENDS
;	COMDAT ??_C@_0CD@PGABKCAC@Table?50x?$CF08X?5?$CI?$CFd?5columns?0?5in?5?8?$CF@
CONST	SEGMENT
??_C@_0CD@PGABKCAC@Table?50x?$CF08X?5?$CI?$CFd?5columns?0?5in?5?8?$CF@ DB 'T'
	DB	'able 0x%08X (%d columns, in ''%s'')', 00H	; `string'
CONST	ENDS
;	COMDAT ??_C@_0BI@CCENNJPN@?$CD?$CDshow_table_rects_type@
CONST	SEGMENT
??_C@_0BI@CCENNJPN@?$CD?$CDshow_table_rects_type@ DB '##show_table_rects_'
	DB	'type', 00H					; `string'
CONST	ENDS
;	COMDAT ??_C@_0BH@GINBNIDO@Show?5tables?5rectangles@
CONST	SEGMENT
??_C@_0BH@GINBNIDO@Show?5tables?5rectangles@ DB 'Show tables rectangles', 00H ; `string'
CONST	ENDS
;	COMDAT ??_C@_0DC@MPAIEFII@?$CI?$CF6?41f?0?$CF6?41f?$CJ?5?$CI?$CF6?41f?0?$CF6?41f?$CJ?5Siz@
CONST	SEGMENT
??_C@_0DC@MPAIEFII@?$CI?$CF6?41f?0?$CF6?41f?$CJ?5?$CI?$CF6?41f?0?$CF6?41f?$CJ?5Siz@ DB '('
	DB	'%6.1f,%6.1f) (%6.1f,%6.1f) Size (%6.1f,%6.1f) %s', 00H ; `string'
CONST	ENDS
;	COMDAT ??_C@_05DMJEEKMI@?8?$CFs?8?3@
CONST	SEGMENT
??_C@_05DMJEEKMI@?8?$CFs?8?3@ DB '''%s'':', 00H		; `string'
CONST	ENDS
;	COMDAT ??_C@_0BJ@OFHLDDCB@?$CD?$CDshow_windows_rect_type@
CONST	SEGMENT
??_C@_0BJ@OFHLDDCB@?$CD?$CDshow_windows_rect_type@ DB '##show_windows_rec'
	DB	't_type', 00H				; `string'
CONST	ENDS
;	COMDAT ??_C@_0BI@DIKJGFFM@Show?5windows?5rectangles@
CONST	SEGMENT
??_C@_0BI@DIKJGFFM@Show?5windows?5rectangles@ DB 'Show windows rectangles'
	DB	00H						; `string'
CONST	ENDS
;	COMDAT ??_C@_0BJ@HJBAEIMP@Show?5windows?5begin?5order@
CONST	SEGMENT
??_C@_0BJ@HJBAEIMP@Show?5windows?5begin?5order@ DB 'Show windows begin or'
	DB	'der', 00H					; `string'
CONST	ENDS
;	COMDAT ??_C@_0DP@EIGJLOOL@You?5can?5also?5call?5ImGui?3?3ShowSt@
CONST	SEGMENT
??_C@_0DP@EIGJLOOL@You?5can?5also?5call?5ImGui?3?3ShowSt@ DB 'You can als'
	DB	'o call ImGui::ShowStackToolWindow() from your code.', 00H ; `string'
CONST	ENDS
;	COMDAT ??_C@_0BA@NLBHEMBK@Show?5Stack?5Tool@
CONST	SEGMENT
??_C@_0BA@NLBHEMBK@Show?5Stack?5Tool@ DB 'Show Stack Tool', 00H ; `string'
CONST	ENDS
;	COMDAT ??_C@_0DO@CKGHHFPI@You?5can?5also?5call?5ImGui?3?3ShowDe@
CONST	SEGMENT
??_C@_0DO@CKGHHFPI@You?5can?5also?5call?5ImGui?3?3ShowDe@ DB 'You can als'
	DB	'o call ImGui::ShowDebugLogWindow() from your code.', 00H ; `string'
CONST	ENDS
;	COMDAT ??_C@_0P@DGHPLGOO@Show?5Debug?5Log@
CONST	SEGMENT
??_C@_0P@DGHPLGOO@Show?5Debug?5Log@ DB 'Show Debug Log', 00H ; `string'
CONST	ENDS
;	COMDAT ??_C@_0IF@BGKDCLHL@Will?5call?5the?5IM_DEBUG_BREAK?$CI?$CJ?5@
CONST	SEGMENT
??_C@_0IF@BGKDCLHL@Will?5call?5the?5IM_DEBUG_BREAK?$CI?$CJ?5@ DB 'Will ca'
	DB	'll the IM_DEBUG_BREAK() macro to break in debugger.', 0aH, 'W'
	DB	'arning: If you don''t have a debugger attached, this will pro'
	DB	'bably crash.', 00H				; `string'
CONST	ENDS
;	COMDAT ??_C@_0BB@KCIONAAN@Show?5Item?5Picker@
CONST	SEGMENT
??_C@_0BB@KCIONAAN@Show?5Item?5Picker@ DB 'Show Item Picker', 00H ; `string'
CONST	ENDS
;	COMDAT ??_C@_06MNCEJPDI@?$CD?$CDText@
CONST	SEGMENT
??_C@_06MNCEJPDI@?$CD?$CDText@ DB '##Text', 00H		; `string'
CONST	ENDS
;	COMDAT ??_C@_0IH@JFLBENFG@You?5can?5also?5call?5ImGui?3?3DebugT@
CONST	SEGMENT
??_C@_0IH@JFLBENFG@You?5can?5also?5call?5ImGui?3?3DebugT@ DB 'You can als'
	DB	'o call ImGui::DebugTextEncoding() from your code with a given'
	DB	' string to test that your UTF-8 encoding settings are correct'
	DB	'.', 00H					; `string'
CONST	ENDS
;	COMDAT ??_C@_0BG@EANHHHDM@UTF?98?5Encoding?5viewer@
CONST	SEGMENT
??_C@_0BG@EANHHHDM@UTF?98?5Encoding?5viewer@ DB 'UTF-8 Encoding viewer', 00H ; `string'
CONST	ENDS
;	COMDAT ??_C@_05OENKALAF@Tools@
CONST	SEGMENT
??_C@_05OENKALAF@Tools@ DB 'Tools', 00H			; `string'
CONST	ENDS
;	COMDAT ??_C@_0BH@NNGOPODG@ColumnsContentUnfrozen@
CONST	SEGMENT
??_C@_0BH@NNGOPODG@ColumnsContentUnfrozen@ DB 'ColumnsContentUnfrozen', 00H ; `string'
CONST	ENDS
;	COMDAT ??_C@_0BF@HAPEHPAK@ColumnsContentFrozen@
CONST	SEGMENT
??_C@_0BF@HAPEHPAK@ColumnsContentFrozen@ DB 'ColumnsContentFrozen', 00H ; `string'
CONST	ENDS
;	COMDAT ??_C@_0BL@FAEPMJDA@ColumnsContentHeadersIdeal@
CONST	SEGMENT
??_C@_0BL@FAEPMJDA@ColumnsContentHeadersIdeal@ DB 'ColumnsContentHeadersI'
	DB	'deal', 00H					; `string'
CONST	ENDS
;	COMDAT ??_C@_0BK@BLBFMAOD@ColumnsContentHeadersUsed@
CONST	SEGMENT
??_C@_0BK@BLBFMAOD@ColumnsContentHeadersUsed@ DB 'ColumnsContentHeadersUs'
	DB	'ed', 00H					; `string'
CONST	ENDS
;	COMDAT ??_C@_0BA@JACIJDNM@ColumnsClipRect@
CONST	SEGMENT
??_C@_0BA@JACIJDNM@ColumnsClipRect@ DB 'ColumnsClipRect', 00H ; `string'
CONST	ENDS
;	COMDAT ??_C@_0BA@ODEDLNCO@ColumnsWorkRect@
CONST	SEGMENT
??_C@_0BA@ODEDLNCO@ColumnsWorkRect@ DB 'ColumnsWorkRect', 00H ; `string'
CONST	ENDS
;	COMDAT ??_C@_0M@CDCMPDKG@ColumnsRect@
CONST	SEGMENT
??_C@_0M@CDCMPDKG@ColumnsRect@ DB 'ColumnsRect', 00H	; `string'
CONST	ENDS
;	COMDAT ??_C@_0BD@PAHDAJDC@BackgroundClipRect@
CONST	SEGMENT
??_C@_0BD@PAHDAJDC@BackgroundClipRect@ DB 'BackgroundClipRect', 00H ; `string'
CONST	ENDS
;	COMDAT ??_C@_0N@OPBPMFAC@HostClipRect@
CONST	SEGMENT
??_C@_0N@OPBPMFAC@HostClipRect@ DB 'HostClipRect', 00H	; `string'
CONST	ENDS
;	COMDAT ??_C@_0BC@NDBPEMLC@ContentRegionRect@
CONST	SEGMENT
??_C@_0BC@NDBPEMLC@ContentRegionRect@ DB 'ContentRegionRect', 00H ; `string'
CONST	ENDS
;	COMDAT ??_C@_0N@FEPIKFED@ContentIdeal@
CONST	SEGMENT
??_C@_0N@FEPIKFED@ContentIdeal@ DB 'ContentIdeal', 00H	; `string'
CONST	ENDS
;	COMDAT ??_C@_07HLHPKMFI@Content@
CONST	SEGMENT
??_C@_07HLHPKMFI@Content@ DB 'Content', 00H		; `string'
CONST	ENDS
;	COMDAT ??_C@_08FACDBJHD@WorkRect@
CONST	SEGMENT
??_C@_08FACDBJHD@WorkRect@ DB 'WorkRect', 00H		; `string'
CONST	ENDS
;	COMDAT ??_C@_0O@BNFMFEHO@InnerClipRect@
CONST	SEGMENT
??_C@_0O@BNFMFEHO@InnerClipRect@ DB 'InnerClipRect', 00H ; `string'
CONST	ENDS
;	COMDAT ??_C@_09PPJHMOMF@InnerRect@
CONST	SEGMENT
??_C@_09PPJHMOMF@InnerRect@ DB 'InnerRect', 00H		; `string'
CONST	ENDS
;	COMDAT ??_C@_0BB@CJNOCIFN@OuterRectClipped@
CONST	SEGMENT
??_C@_0BB@CJNOCIFN@OuterRectClipped@ DB 'OuterRectClipped', 00H ; `string'
CONST	ENDS
;	COMDAT ??_C@_09DBGHEPMN@OuterRect@
CONST	SEGMENT
??_C@_09DBGHEPMN@OuterRect@ DB 'OuterRect', 00H		; `string'
CONST	ENDS
;	COMDAT ??_C@_0CK@GDPKNEKJ@?$CFd?5visible?5windows?0?5?$CFd?5active?5a@
CONST	SEGMENT
??_C@_0CK@GDPKNEKJ@?$CFd?5visible?5windows?0?5?$CFd?5active?5a@ DB '%d vi'
	DB	'sible windows, %d active allocations', 00H	; `string'
CONST	ENDS
;	COMDAT ??_C@_0CH@HHKODNBE@?$CFd?5vertices?0?5?$CFd?5indices?5?$CI?$CFd?5tri@
CONST	SEGMENT
??_C@_0CH@HHKODNBE@?$CFd?5vertices?0?5?$CFd?5indices?5?$CI?$CFd?5tri@ DB '%'
	DB	'd vertices, %d indices (%d triangles)', 00H	; `string'
CONST	ENDS
;	COMDAT ??_C@_0CN@EIPBEGMP@Application?5average?5?$CF?43f?5ms?1fra@
CONST	SEGMENT
??_C@_0CN@EIPBEGMP@Application?5average?5?$CF?43f?5ms?1fra@ DB 'Applicati'
	DB	'on average %.3f ms/frame (%.1f FPS)', 00H	; `string'
CONST	ENDS
;	COMDAT ??_C@_0O@NCHBJMJF@Dear?5ImGui?5?$CFs@
CONST	SEGMENT
??_C@_0O@NCHBJMJF@Dear?5ImGui?5?$CFs@ DB 'Dear ImGui %s', 00H ; `string'
CONST	ENDS
;	COMDAT ??_C@_0BM@CNHCNFCK@Dear?5ImGui?5Metrics?1Debugger@
CONST	SEGMENT
??_C@_0BM@CNHCNFCK@Dear?5ImGui?5Metrics?1Debugger@ DB 'Dear ImGui Metrics'
	DB	'/Debugger', 00H				; `string'
CONST	ENDS
;	COMDAT ??_C@_0O@KCJLBEBN@Atlas?5texture@
CONST	SEGMENT
??_C@_0O@KCJLBEBN@Atlas?5texture@ DB 'Atlas texture', 00H ; `string'
CONST	ENDS
;	COMDAT ??_C@_0BN@JPEJHLJM@Atlas?5texture?5?$CI?$CFdx?$CFd?5pixels?$CJ@
CONST	SEGMENT
??_C@_0BN@JPEJHLJM@Atlas?5texture?5?$CI?$CFdx?$CFd?5pixels?$CJ@ DB 'Atlas'
	DB	' texture (%dx%d pixels)', 00H		; `string'
CONST	ENDS
;	COMDAT ??_C@_03NAEMJKHE@?$CI?$DP?$CJ@
CONST	SEGMENT
??_C@_03NAEMJKHE@?$CI?$DP?$CJ@ DB '(?)', 00H		; `string'
CONST	ENDS
;	COMDAT ??_C@_06NGBPNBKB@U?$CL?$CF04X@
CONST	SEGMENT
??_C@_06NGBPNBKB@U?$CL?$CF04X@ DB 'U+%04X', 00H		; `string'
CONST	ENDS
;	COMDAT ??_C@_09GCGJOJDM@?$FLmissing?$FN@
CONST	SEGMENT
??_C@_09GCGJOJDM@?$FLmissing?$FN@ DB '[missing]', 00H	; `string'
CONST	ENDS
;	COMDAT ??_C@_09HOBHDEIO@?$FLinvalid?$FN@
CONST	SEGMENT
??_C@_09HOBHDEIO@?$FLinvalid?$FN@ DB '[invalid]', 00H	; `string'
CONST	ENDS
;	COMDAT ??_C@_06IBAGLEAI@0x?$CF02X@
CONST	SEGMENT
??_C@_06IBAGLEAI@0x?$CF02X@ DB '0x%02X', 00H		; `string'
CONST	ENDS
;	COMDAT ??_C@_02DPKJAMEF@?$CFd@
CONST	SEGMENT
??_C@_02DPKJAMEF@?$CFd@ DB '%d', 00H			; `string'
CONST	ENDS
;	COMDAT ??_C@_09DIHJKHFA@Codepoint@
CONST	SEGMENT
??_C@_09DIHJKHFA@Codepoint@ DB 'Codepoint', 00H		; `string'
CONST	ENDS
;	COMDAT ??_C@_05OPEAJICN@Glyph@
CONST	SEGMENT
??_C@_05OPEAJICN@Glyph@ DB 'Glyph', 00H			; `string'
CONST	ENDS
;	COMDAT ??_C@_05EGJIMALK@UTF?98@
CONST	SEGMENT
??_C@_05EGJIMALK@UTF?98@ DB 'UTF-8', 00H		; `string'
CONST	ENDS
;	COMDAT ??_C@_06GEMKPBPA@Offset@
CONST	SEGMENT
??_C@_06GEMKPBPA@Offset@ DB 'Offset', 00H		; `string'
CONST	ENDS
;	COMDAT ??_C@_04DONFEANM@list@
CONST	SEGMENT
??_C@_04DONFEANM@list@ DB 'list', 00H			; `string'
CONST	ENDS
;	COMDAT ??_C@_0L@NOOHJNEN@Text?3?5?$CC?$CFs?$CC@
CONST	SEGMENT
??_C@_0L@NOOHJNEN@Text?3?5?$CC?$CFs?$CC@ DB 'Text: "%s"', 00H ; `string'
CONST	ENDS
;	COMDAT ??_C@_01EEMJAFIK@?6@
CONST	SEGMENT
??_C@_01EEMJAFIK@?6@ DB 0aH, 00H			; `string'
CONST	ENDS
;	COMDAT ??_C@_0O@JAFHMCKE@Collapsed?$DN?$CFd?6@
CONST	SEGMENT
??_C@_0O@JAFHMCKE@Collapsed?$DN?$CFd?6@ DB 'Collapsed=%d', 0aH, 00H ; `string'
CONST	ENDS
;	COMDAT ??_C@_0M@CFANMDMP@Size?$DN?$CFd?0?$CFd?6@
CONST	SEGMENT
??_C@_0M@CFANMDMP@Size?$DN?$CFd?0?$CFd?6@ DB 'Size=%d,%d', 0aH, 00H ; `string'
CONST	ENDS
;	COMDAT ??_C@_0L@DDMADIHO@Pos?$DN?$CFd?0?$CFd?6@
CONST	SEGMENT
??_C@_0L@DDMADIHO@Pos?$DN?$CFd?0?$CFd?6@ DB 'Pos=%d,%d', 0aH, 00H ; `string'
CONST	ENDS
;	COMDAT ??_C@_09HNFDDBIF@?$FL?$CFs?$FN?$FL?$CFs?$FN?6@
CONST	SEGMENT
??_C@_09HNFDDBIF@?$FL?$CFs?$FN?$FL?$CFs?$FN?6@ DB '[%s][%s]', 0aH, 00H ; `string'
CONST	ENDS
;	COMDAT ??_C@_0N@IAKNMBB@Collapsed?$DN?$CFd@
CONST	SEGMENT
??_C@_0N@IAKNMBB@Collapsed?$DN?$CFd@ DB 'Collapsed=%d', 00H ; `string'
CONST	ENDS
;	COMDAT ??_C@_0L@MPPKDMFA@Size?$DN?$CFi?0?$CFi@
CONST	SEGMENT
??_C@_0L@MPPKDMFA@Size?$DN?$CFi?0?$CFi@ DB 'Size=%i,%i', 00H ; `string'
CONST	ENDS
;	COMDAT ??_C@_09GOMOMIIP@Pos?$DN?$CFi?0?$CFi@
CONST	SEGMENT
??_C@_09GOMOMIIP@Pos?$DN?$CFi?0?$CFi@ DB 'Pos=%i,%i', 00H ; `string'
CONST	ENDS
;	COMDAT ??_C@_02BKFDOEMK@wt@
CONST	SEGMENT
??_C@_02BKFDOEMK@wt@ DB 'wt', 00H			; `string'
CONST	ENDS
;	COMDAT ??_C@_02JDPG@rb@
CONST	SEGMENT
??_C@_02JDPG@rb@ DB 'rb', 00H				; `string'
CONST	ENDS
;	COMDAT ??_C@_03OIJOKPOL@?$CD?$CD?$CD@
CONST	SEGMENT
??_C@_03OIJOKPOL@?$CD?$CD?$CD@ DB '###', 00H		; `string'
CONST	ENDS
;	COMDAT ??_C@_0O@CONALMON@Default?5Depth@
CONST	SEGMENT
??_C@_0O@CONALMON@Default?5Depth@ DB 'Default Depth', 00H ; `string'
CONST	ENDS
;	COMDAT ??_C@_0BB@CPOBJDKM@Log?5To?5Clipboard@
CONST	SEGMENT
??_C@_0BB@CPOBJDKM@Log?5To?5Clipboard@ DB 'Log To Clipboard', 00H ; `string'
CONST	ENDS
;	COMDAT ??_C@_0M@KAEBEAHF@Log?5To?5File@
CONST	SEGMENT
??_C@_0M@KAEBEAHF@Log?5To?5File@ DB 'Log To File', 00H	; `string'
CONST	ENDS
;	COMDAT ??_C@_0L@COILDFG@Log?5To?5TTY@
CONST	SEGMENT
??_C@_0L@COILDFG@Log?5To?5TTY@ DB 'Log To TTY', 00H	; `string'
CONST	ENDS
;	COMDAT ??_C@_0L@DMNDGOCF@LogButtons@
CONST	SEGMENT
??_C@_0L@DMNDGOCF@LogButtons@ DB 'LogButtons', 00H	; `string'
CONST	ENDS
;	COMDAT ??_C@_02BOGAIONP@ab@
CONST	SEGMENT
??_C@_02BOGAIONP@ab@ DB 'ab', 00H			; `string'
CONST	ENDS
;	COMDAT ??_C@_07LFDEMEGD@?$CF?$CKs?$CF?4?$CKs@
CONST	SEGMENT
??_C@_07LFDEMEGD@?$CF?$CKs?$CF?4?$CKs@ DB '%*s%.*s', 00H ; `string'
CONST	ENDS
;	COMDAT ??_C@_02PCIJFNDE@?$AN?6@
CONST	SEGMENT
??_C@_02PCIJFNDE@?$AN?6@ DB 0dH, 0aH, 00H		; `string'
CONST	ENDS
;	COMDAT ??_C@_0O@KMAIKFAM@?$CDSourceExtern@
CONST	SEGMENT
??_C@_0O@KMAIKFAM@?$CDSourceExtern@ DB '#SourceExtern', 00H ; `string'
CONST	ENDS
;	COMDAT ??_C@_0BE@EBHFKNCA@?$CD?$CD?$CDNavWindowingList@
CONST	SEGMENT
??_C@_0BE@EBHFKNCA@?$CD?$CD?$CDNavWindowingList@ DB '###NavWindowingList', 00H ; `string'
CONST	ENDS
;	COMDAT ??_C@_0O@BKOLOJFE@?$CD?$CDMainMenuBar@
CONST	SEGMENT
??_C@_0O@BKOLOJFE@?$CD?$CDMainMenuBar@ DB '##MainMenuBar', 00H ; `string'
CONST	ENDS
;	COMDAT ??_C@_0CA@JJLLCANH@?$FLnav?$FN?5NavUpdateCancelRequest?$CI?$CJ?6@
CONST	SEGMENT
??_C@_0CA@JJLLCANH@?$FLnav?$FN?5NavUpdateCancelRequest?$CI?$CJ?6@ DB '[na'
	DB	'v] NavUpdateCancelRequest()', 0aH, 00H	; `string'
CONST	ENDS
;	COMDAT ??_C@_0ED@JMNIALPC@?$FLnav?$FN?5NavMoveRequest?3?5result?5Na@
CONST	SEGMENT
??_C@_0ED@JMNIALPC@?$FLnav?$FN?5NavMoveRequest?3?5result?5Na@ DB '[nav] N'
	DB	'avMoveRequest: result NavID 0x%08X in Layer %d Window "%s"', 0aH
	DB	00H						; `string'
CONST	ENDS
;	COMDAT ??_C@_0CM@KMMAIAOD@?$FLfocus?$FN?5NavMoveRequest?3?5SetNavW@
CONST	SEGMENT
??_C@_0CM@KMMAIAOD@?$FLfocus?$FN?5NavMoveRequest?3?5SetNavW@ DB '[focus] '
	DB	'NavMoveRequest: SetNavWindow("%s")', 0aH, 00H ; `string'
CONST	ENDS
;	COMDAT ??_C@_0DI@DAIPCILO@?$FLnav?$FN?5NavInitRequest?3?5from?5move@
CONST	SEGMENT
??_C@_0DI@DAIPCILO@?$FLnav?$FN?5NavInitRequest?3?5from?5move@ DB '[nav] N'
	DB	'avInitRequest: from move, window "%s", layer=%d', 0aH, 00H ; `string'
CONST	ENDS
;	COMDAT ??_C@_0CA@BNPHEIIJ@?$FLnav?$FN?5NavMoveRequestForward?5?$CFd?6@
CONST	SEGMENT
??_C@_0CA@BNPHEIIJ@?$FLnav?$FN?5NavMoveRequestForward?5?$CFd?6@ DB '[nav]'
	DB	' NavMoveRequestForward %d', 0aH, 00H	; `string'
CONST	ENDS
;	COMDAT ??_C@_0EJ@EKHMMIGJ@?$FLnav?$FN?5NavInitRequest?3?5ApplyResu@
CONST	SEGMENT
??_C@_0EJ@EKHMMIGJ@?$FLnav?$FN?5NavInitRequest?3?5ApplyResu@ DB '[nav] Na'
	DB	'vInitRequest: ApplyResult: NavID 0x%08X in Layer %d Window "%'
	DB	's"', 0aH, 00H				; `string'
CONST	ENDS
;	COMDAT ??_C@_0FE@LKAOFKOF@?$FLnav?$FN?5NavInitRequest?3?5from?5NavI@
CONST	SEGMENT
??_C@_0FE@LKAOFKOF@?$FLnav?$FN?5NavInitRequest?3?5from?5NavI@ DB '[nav] N'
	DB	'avInitRequest: from NavInitWindow(), init_for_nav=%d, window='
	DB	'"%s", layer=%d', 0aH, 00H			; `string'
CONST	ENDS
;	COMDAT ??_C@_0DK@NLPDJHKG@?$FLfocus?$FN?5NavRestoreLayer?3?5from?5?$CC@
CONST	SEGMENT
??_C@_0DK@NLPDJHKG@?$FLfocus?$FN?5NavRestoreLayer?3?5from?5?$CC@ DB '[foc'
	DB	'us] NavRestoreLayer: from "%s" to SetNavWindow("%s")', 0aH, 00H ; `string'
CONST	ENDS
;	COMDAT ??_C@_0BM@CFDBCOKD@?$FLfocus?$FN?5SetNavWindow?$CI?$CC?$CFs?$CC?$CJ?6@
CONST	SEGMENT
??_C@_0BM@CFDBCOKD@?$FLfocus?$FN?5SetNavWindow?$CI?$CC?$CFs?$CC?$CJ?6@ DB '['
	DB	'focus] SetNavWindow("%s")', 0aH, 00H	; `string'
CONST	ENDS
;	COMDAT ??_C@_0N@OOFNFKBH@void_context@
CONST	SEGMENT
??_C@_0N@OOFNFKBH@void_context@ DB 'void_context', 00H	; `string'
CONST	ENDS
;	COMDAT ??_C@_0P@DCJGJLLM@window_context@
CONST	SEGMENT
??_C@_0P@DCJGJLLM@window_context@ DB 'window_context', 00H ; `string'
CONST	ENDS
;	COMDAT ??_C@_0N@PIPFDMLM@?$CD?$CDPopup_?$CF08x@
CONST	SEGMENT
??_C@_0N@PIPFDMLM@?$CD?$CDPopup_?$CF08x@ DB '##Popup_%08x', 00H ; `string'
CONST	ENDS
;	COMDAT ??_C@_0M@NANGKBBK@?$CD?$CDMenu_?$CF02d@
CONST	SEGMENT
??_C@_0M@NANGKBBK@?$CD?$CDMenu_?$CF02d@ DB '##Menu_%02d', 00H ; `string'
CONST	ENDS
;	COMDAT ??_C@_0CE@FCCNCIKM@?$FLpopup?$FN?5CloseCurrentPopup?5?$CFd?5?9?$DO@
CONST	SEGMENT
??_C@_0CE@FCCNCIKM@?$FLpopup?$FN?5CloseCurrentPopup?5?$CFd?5?9?$DO@ DB '['
	DB	'popup] CloseCurrentPopup %d -> %d', 0aH, 00H ; `string'
CONST	ENDS
;	COMDAT ??_C@_0EH@KLKAJAPF@?$FLpopup?$FN?5ClosePopupToLevel?$CI?$CFd?$CJ?0?5@
CONST	SEGMENT
??_C@_0EH@KLKAJAPF@?$FLpopup?$FN?5ClosePopupToLevel?$CI?$CFd?$CJ?0?5@ DB '['
	DB	'popup] ClosePopupToLevel(%d), restore_focus_to_window_under_p'
	DB	'opup=%d', 0aH, 00H				; `string'
CONST	ENDS
;	COMDAT ??_C@_0CF@KJFMKFLJ@?$FLpopup?$FN?5ClosePopupsOverWindow?$CI?$CC@
CONST	SEGMENT
??_C@_0CF@KJFMKFLJ@?$FLpopup?$FN?5ClosePopupsOverWindow?$CI?$CC@ DB '[pop'
	DB	'up] ClosePopupsOverWindow("%s")', 0aH, 00H	; `string'
CONST	ENDS
;	COMDAT ??_C@_06CBHGEMFM@?$DMNULL?$DO@
CONST	SEGMENT
??_C@_06CBHGEMFM@?$DMNULL?$DO@ DB '<NULL>', 00H		; `string'
CONST	ENDS
;	COMDAT ??_C@_0BN@MEGOLGEO@?$FLpopup?$FN?5OpenPopupEx?$CI0x?$CF08X?$CJ?6@
CONST	SEGMENT
??_C@_0BN@MEGOLGEO@?$FLpopup?$FN?5OpenPopupEx?$CI0x?$CF08X?$CJ?6@ DB '[po'
	DB	'pup] OpenPopupEx(0x%08X)', 0aH, 00H		; `string'
CONST	ENDS
;	COMDAT ??_C@_0CC@GFIPBLLA@?$FLpopup?$FN?5OpenPopup?$CI?$CC?$CFs?$CC?5?9?$DO?50x?$CF08@
CONST	SEGMENT
??_C@_0CC@GFIPBLLA@?$FLpopup?$FN?5OpenPopup?$CI?$CC?$CFs?$CC?5?9?$DO?50x?$CF08@ DB '['
	DB	'popup] OpenPopup("%s" -> 0x%08X', 0aH, 00H	; `string'
CONST	ENDS
;	COMDAT ??_C@_0P@DHLMFJKK@?$CD?$CDTooltip_?$CF02d@
CONST	SEGMENT
??_C@_0P@DHLMFJKK@?$CD?$CDTooltip_?$CF02d@ DB '##Tooltip_%02d', 00H ; `string'
CONST	ENDS
;	COMDAT ??_C@_0CP@NEGGJCEB@Recovered?5from?5missing?5PopFocus@
CONST	SEGMENT
??_C@_0CP@NEGGJCEB@Recovered?5from?5missing?5PopFocus@ DB 'Recovered from'
	DB	' missing PopFocusScope() in ''%s''', 00H	; `string'
CONST	ENDS
;	COMDAT ??_C@_0CN@EFPNNJDL@Recovered?5from?5missing?5PopStyle@
CONST	SEGMENT
??_C@_0CN@EFPNNJDL@Recovered?5from?5missing?5PopStyle@ DB 'Recovered from'
	DB	' missing PopStyleVar() in ''%s''', 00H	; `string'
CONST	ENDS
;	COMDAT ??_C@_0CN@HDGJMJNM@Recovered?5from?5missing?5PopItemF@
CONST	SEGMENT
??_C@_0CN@HDGJMJNM@Recovered?5from?5missing?5PopItemF@ DB 'Recovered from'
	DB	' missing PopItemFlag() in ''%s''', 00H	; `string'
CONST	ENDS
;	COMDAT ??_C@_0DP@GKCPPFKN@Recovered?5from?5missing?5PopStyle@
CONST	SEGMENT
??_C@_0DP@GKCPPFKN@Recovered?5from?5missing?5PopStyle@ DB 'Recovered from'
	DB	' missing PopStyleColor() in ''%s'' for ImGuiCol_%s', 00H ; `string'
CONST	ENDS
;	COMDAT ??_C@_0CN@OIBMKKFF@Recovered?5from?5missing?5EndDisab@
CONST	SEGMENT
??_C@_0CN@OIBMKKFF@Recovered?5from?5missing?5EndDisab@ DB 'Recovered from'
	DB	' missing EndDisabled() in ''%s''', 00H	; `string'
CONST	ENDS
;	COMDAT ??_C@_0CH@CBEJECIE@Recovered?5from?5missing?5PopID?$CI?$CJ?5@
CONST	SEGMENT
??_C@_0CH@CBEJECIE@Recovered?5from?5missing?5PopID?$CI?$CJ?5@ DB 'Recover'
	DB	'ed from missing PopID() in ''%s''', 00H	; `string'
CONST	ENDS
;	COMDAT ??_C@_0CK@EIGPLJIB@Recovered?5from?5missing?5EndGroup@
CONST	SEGMENT
??_C@_0CK@EIGPLJIB@Recovered?5from?5missing?5EndGroup@ DB 'Recovered from'
	DB	' missing EndGroup() in ''%s''', 00H		; `string'
CONST	ENDS
;	COMDAT ??_C@_0CJ@OIELACHL@Recovered?5from?5missing?5TreePop?$CI@
CONST	SEGMENT
??_C@_0CJ@OIELACHL@Recovered?5from?5missing?5TreePop?$CI@ DB 'Recovered f'
	DB	'rom missing TreePop() in ''%s''', 00H	; `string'
CONST	ENDS
;	COMDAT ??_C@_0CL@PFJDIEBE@Recovered?5from?5missing?5EndTabBa@
CONST	SEGMENT
??_C@_0CL@PFJDIEBE@Recovered?5from?5missing?5EndTabBa@ DB 'Recovered from'
	DB	' missing EndTabBar() in ''%s''', 00H	; `string'
CONST	ENDS
;	COMDAT ??_C@_0CK@MCEMIAFO@Recovered?5from?5missing?5EndTable@
CONST	SEGMENT
??_C@_0CK@MCEMIAFO@Recovered?5from?5missing?5EndTable@ DB 'Recovered from'
	DB	' missing EndTable() in ''%s''', 00H		; `string'
CONST	ENDS
;	COMDAT ??_C@_0CG@PCFKFCHL@Recovered?5from?5missing?5End?$CI?$CJ?5fo@
CONST	SEGMENT
??_C@_0CG@PCFKFCHL@Recovered?5from?5missing?5End?$CI?$CJ?5fo@ DB 'Recover'
	DB	'ed from missing End() for ''%s''', 00H	; `string'
CONST	ENDS
;	COMDAT ??_C@_0CL@PKEBJEJO@Recovered?5from?5missing?5EndChild@
CONST	SEGMENT
??_C@_0CL@PKEBJEJO@Recovered?5from?5missing?5EndChild@ DB 'Recovered from'
	DB	' missing EndChild() for ''%s''', 00H	; `string'
CONST	ENDS
;	COMDAT ??_C@_09PGGNMDFB@Remaining@
CONST	SEGMENT
??_C@_09PGGNMDFB@Remaining@ DB 'Remaining', 00H		; `string'
CONST	ENDS
;	COMDAT ??_C@_09BIONLCBB@Processed@
CONST	SEGMENT
??_C@_09BIONLCBB@Processed@ DB 'Processed', 00H		; `string'
CONST	ENDS
;	COMDAT ??_C@_0BD@DGNDOOOH@?$CFs?3?5AppFocused?5?$CFd?6@
CONST	SEGMENT
??_C@_0BD@DGNDOOOH@?$CFs?3?5AppFocused?5?$CFd?6@ DB '%s: AppFocused %d', 0aH
	DB	00H						; `string'
CONST	ENDS
;	COMDAT ??_C@_0BH@OGDHKMOD@?$CFs?3?5Text?3?5?$CFc?5?$CIU?$CL?$CF08X?$CJ?6@
CONST	SEGMENT
??_C@_0BH@OGDHKMOD@?$CFs?3?5Text?3?5?$CFc?5?$CIU?$CL?$CF08X?$CJ?6@ DB '%s'
	DB	': Text: %c (U+%08X)', 0aH, 00H		; `string'
CONST	ENDS
;	COMDAT ??_C@_0BB@CMPIMPGB@?$CFs?3?5Key?5?$CC?$CFs?$CC?5?$CFs?6@
CONST	SEGMENT
??_C@_0BB@CMPIMPGB@?$CFs?3?5Key?5?$CC?$CFs?$CC?5?$CFs?6@ DB '%s: Key "%s"'
	DB	' %s', 0aH, 00H				; `string'
CONST	ENDS
;	COMDAT ??_C@_0BN@FHINFNEJ@?$CFs?3?5MouseWheel?5?$CI?$CF?41f?0?5?$CF?41f?$CJ?6@
CONST	SEGMENT
??_C@_0BN@FHINFNEJ@?$CFs?3?5MouseWheel?5?$CI?$CF?41f?0?5?$CF?41f?$CJ?6@ DB '%'
	DB	's: MouseWheel (%.1f, %.1f)', 0aH, 00H	; `string'
CONST	ENDS
;	COMDAT ??_C@_0BH@GKKCHOFG@?$CFs?3?5MouseButton?5?$CFd?5?$CFs?6@
CONST	SEGMENT
??_C@_0BH@GKKCHOFG@?$CFs?3?5MouseButton?5?$CFd?5?$CFs?6@ DB '%s: MouseBut'
	DB	'ton %d %s', 0aH, 00H			; `string'
CONST	ENDS
;	COMDAT ??_C@_02EFPGLDEA@Up@
CONST	SEGMENT
??_C@_02EFPGLDEA@Up@ DB 'Up', 00H			; `string'
CONST	ENDS
;	COMDAT ??_C@_04FNCLCJMC@Down@
CONST	SEGMENT
??_C@_04FNCLCJMC@Down@ DB 'Down', 00H			; `string'
CONST	ENDS
;	COMDAT ??_C@_0BL@MGABEGBA@?$CFs?3?5MousePos?5?$CI?$CF?41f?0?5?$CF?41f?$CJ?6@
CONST	SEGMENT
??_C@_0BL@MGABEGBA@?$CFs?3?5MousePos?5?$CI?$CF?41f?0?5?$CF?41f?$CJ?6@ DB '%'
	DB	's: MousePos (%.1f, %.1f)', 0aH, 00H		; `string'
CONST	ENDS
;	COMDAT ??_C@_0CD@LELIKCBN@?$CFs?3?5MousePos?5?$CI?9FLT_MAX?0?5?9FLT_MA@
CONST	SEGMENT
??_C@_0CD@LELIKCBN@?$CFs?3?5MousePos?5?$CI?9FLT_MAX?0?5?9FLT_MA@ DB '%s: '
	DB	'MousePos (-FLT_MAX, -FLT_MAX)', 0aH, 00H	; `string'
CONST	ENDS
;	COMDAT ??_C@_09HLEDPOBH@Clipboard@
CONST	SEGMENT
??_C@_09HLEDPOBH@Clipboard@ DB 'Clipboard', 00H		; `string'
CONST	ENDS
;	COMDAT ??_C@_03JFAAHAIK@Nav@
CONST	SEGMENT
??_C@_03JFAAHAIK@Nav@ DB 'Nav', 00H			; `string'
CONST	ENDS
;	COMDAT ??_C@_07FCEHOHKC@Gamepad@
CONST	SEGMENT
??_C@_07FCEHOHKC@Gamepad@ DB 'Gamepad', 00H		; `string'
CONST	ENDS
;	COMDAT ??_C@_08CPOKIBJK@Keyboard@
CONST	SEGMENT
??_C@_08CPOKIBJK@Keyboard@ DB 'Keyboard', 00H		; `string'
CONST	ENDS
;	COMDAT ??_C@_05PEEFLODH@Mouse@
CONST	SEGMENT
??_C@_05PEEFLODH@Mouse@ DB 'Mouse', 00H			; `string'
CONST	ENDS
;	COMDAT ??_C@_0L@MOHIGKOO@?$CFs?$CFs?$CFs?$CFs?$CFs@
CONST	SEGMENT
??_C@_0L@MOHIGKOO@?$CFs?$CFs?$CFs?$CFs?$CFs@ DB '%s%s%s%s%s', 00H ; `string'
CONST	ENDS
;	COMDAT ??_C@_05DNCIMHKL@Ctrl?$CL@
CONST	SEGMENT
??_C@_05DNCIMHKL@Ctrl?$CL@ DB 'Ctrl+', 00H		; `string'
CONST	ENDS
;	COMDAT ??_C@_06DLOONOJK@Shift?$CL@
CONST	SEGMENT
??_C@_06DLOONOJK@Shift?$CL@ DB 'Shift+', 00H		; `string'
CONST	ENDS
;	COMDAT ??_C@_04IDGAMEF@Alt?$CL@
CONST	SEGMENT
??_C@_04IDGAMEF@Alt?$CL@ DB 'Alt+', 00H			; `string'
CONST	ENDS
;	COMDAT ??_C@_06PPGOOJHA@Super?$CL@
CONST	SEGMENT
??_C@_06PPGOOJHA@Super?$CL@ DB 'Super+', 00H		; `string'
CONST	ENDS
;	COMDAT ??_C@_04NGGMJLDA@Cmd?$CL@
CONST	SEGMENT
??_C@_04NGGMJLDA@Cmd?$CL@ DB 'Cmd+', 00H		; `string'
CONST	ENDS
;	COMDAT ??_C@_04OHJIHAFH@None@
CONST	SEGMENT
??_C@_04OHJIHAFH@None@ DB 'None', 00H			; `string'
CONST	ENDS
;	COMDAT ??_C@_03HPADHAHE@N?1A@
CONST	SEGMENT
??_C@_03HPADHAHE@N?1A@ DB 'N/A', 00H			; `string'
CONST	ENDS
;	COMDAT ??_C@_08MDBLHCCF@ModSuper@
CONST	SEGMENT
??_C@_08MDBLHCCF@ModSuper@ DB 'ModSuper', 00H		; `string'
CONST	ENDS
;	COMDAT ??_C@_06PLGJOJNE@ModAlt@
CONST	SEGMENT
??_C@_06PLGJOJNE@ModAlt@ DB 'ModAlt', 00H		; `string'
CONST	ENDS
;	COMDAT ??_C@_08CCGGCANM@ModShift@
CONST	SEGMENT
??_C@_08CCGGCANM@ModShift@ DB 'ModShift', 00H		; `string'
CONST	ENDS
;	COMDAT ??_C@_07KDONALCN@ModCtrl@
CONST	SEGMENT
??_C@_07KDONALCN@ModCtrl@ DB 'ModCtrl', 00H		; `string'
CONST	ENDS
;	COMDAT ??_C@_0M@NNMEIDDI@MouseWheelY@
CONST	SEGMENT
??_C@_0M@NNMEIDDI@MouseWheelY@ DB 'MouseWheelY', 00H	; `string'
CONST	ENDS
;	COMDAT ??_C@_0M@MENPLCHJ@MouseWheelX@
CONST	SEGMENT
??_C@_0M@MENPLCHJ@MouseWheelX@ DB 'MouseWheelX', 00H	; `string'
CONST	ENDS
;	COMDAT ??_C@_07DDABOBID@MouseX2@
CONST	SEGMENT
??_C@_07DDABOBID@MouseX2@ DB 'MouseX2', 00H		; `string'
CONST	ENDS
;	COMDAT ??_C@_07BICMLCEA@MouseX1@
CONST	SEGMENT
??_C@_07BICMLCEA@MouseX1@ DB 'MouseX1', 00H		; `string'
CONST	ENDS
;	COMDAT ??_C@_0M@CDBJKEDH@MouseMiddle@
CONST	SEGMENT
??_C@_0M@CDBJKEDH@MouseMiddle@ DB 'MouseMiddle', 00H	; `string'
CONST	ENDS
;	COMDAT ??_C@_0L@JGCPGDLN@MouseRight@
CONST	SEGMENT
??_C@_0L@JGCPGDLN@MouseRight@ DB 'MouseRight', 00H	; `string'
CONST	ENDS
;	COMDAT ??_C@_09DBACHFO@MouseLeft@
CONST	SEGMENT
??_C@_09DBACHFO@MouseLeft@ DB 'MouseLeft', 00H		; `string'
CONST	ENDS
;	COMDAT ??_C@_0BC@MIGJPNIC@GamepadRStickDown@
CONST	SEGMENT
??_C@_0BC@MIGJPNIC@GamepadRStickDown@ DB 'GamepadRStickDown', 00H ; `string'
CONST	ENDS
;	COMDAT ??_C@_0BA@LJMNABFK@GamepadRStickUp@
CONST	SEGMENT
??_C@_0BA@LJMNABFK@GamepadRStickUp@ DB 'GamepadRStickUp', 00H ; `string'
CONST	ENDS
;	COMDAT ??_C@_0BD@EGHGAIAI@GamepadRStickRight@
CONST	SEGMENT
??_C@_0BD@EGHGAIAI@GamepadRStickRight@ DB 'GamepadRStickRight', 00H ; `string'
CONST	ENDS
;	COMDAT ??_C@_0BC@DKGNGFLL@GamepadRStickLeft@
CONST	SEGMENT
??_C@_0BC@DKGNGFLL@GamepadRStickLeft@ DB 'GamepadRStickLeft', 00H ; `string'
CONST	ENDS
;	COMDAT ??_C@_0BC@DEOJBCEP@GamepadLStickDown@
CONST	SEGMENT
??_C@_0BC@DEOJBCEP@GamepadLStickDown@ DB 'GamepadLStickDown', 00H ; `string'
CONST	ENDS
;	COMDAT ??_C@_0BA@NNMPJILJ@GamepadLStickUp@
CONST	SEGMENT
??_C@_0BA@NNMPJILJ@GamepadLStickUp@ DB 'GamepadLStickUp', 00H ; `string'
CONST	ENDS
;	COMDAT ??_C@_0BD@KDFPDGOK@GamepadLStickRight@
CONST	SEGMENT
??_C@_0BD@KDFPDGOK@GamepadLStickRight@ DB 'GamepadLStickRight', 00H ; `string'
CONST	ENDS
;	COMDAT ??_C@_0BC@MGONIKHG@GamepadLStickLeft@
CONST	SEGMENT
??_C@_0BC@MGONIKHG@GamepadLStickLeft@ DB 'GamepadLStickLeft', 00H ; `string'
CONST	ENDS
;	COMDAT ??_C@_09DJAMGEBJ@GamepadR3@
CONST	SEGMENT
??_C@_09DJAMGEBJ@GamepadR3@ DB 'GamepadR3', 00H		; `string'
CONST	ENDS
;	COMDAT ??_C@_09CPLEOKGD@GamepadL3@
CONST	SEGMENT
??_C@_09CPLEOKGD@GamepadL3@ DB 'GamepadL3', 00H		; `string'
CONST	ENDS
;	COMDAT ??_C@_09CABHFFFI@GamepadR2@
CONST	SEGMENT
??_C@_09CABHFFFI@GamepadR2@ DB 'GamepadR2', 00H		; `string'
CONST	ENDS
;	COMDAT ??_C@_09DGKPNLCC@GamepadL2@
CONST	SEGMENT
??_C@_09DGKPNLCC@GamepadL2@ DB 'GamepadL2', 00H		; `string'
CONST	ENDS
;	COMDAT ??_C@_09LDKAGJL@GamepadR1@
CONST	SEGMENT
??_C@_09LDKAGJL@GamepadR1@ DB 'GamepadR1', 00H		; `string'
CONST	ENDS
;	COMDAT ??_C@_09BNICIIOB@GamepadL1@
CONST	SEGMENT
??_C@_09BNICIIOB@GamepadL1@ DB 'GamepadL1', 00H		; `string'
CONST	ENDS
;	COMDAT ??_C@_0BA@ILJNDGLB@GamepadDpadDown@
CONST	SEGMENT
??_C@_0BA@ILJNDGLB@GamepadDpadDown@ DB 'GamepadDpadDown', 00H ; `string'
CONST	ENDS
;	COMDAT ??_C@_0O@EJODMGNP@GamepadDpadUp@
CONST	SEGMENT
??_C@_0O@EJODMGNP@GamepadDpadUp@ DB 'GamepadDpadUp', 00H ; `string'
CONST	ENDS
;	COMDAT ??_C@_0BB@PJOFJNNF@GamepadDpadRight@
CONST	SEGMENT
??_C@_0BB@PJOFJNNF@GamepadDpadRight@ DB 'GamepadDpadRight', 00H ; `string'
CONST	ENDS
;	COMDAT ??_C@_0BA@HJJJKOII@GamepadDpadLeft@
CONST	SEGMENT
??_C@_0BA@HJJJKOII@GamepadDpadLeft@ DB 'GamepadDpadLeft', 00H ; `string'
CONST	ENDS
;	COMDAT ??_C@_0BA@EJLJONAO@GamepadFaceDown@
CONST	SEGMENT
??_C@_0BA@EJLJONAO@GamepadFaceDown@ DB 'GamepadFaceDown', 00H ; `string'
CONST	ENDS
;	COMDAT ??_C@_0O@NEIKDCMN@GamepadFaceUp@
CONST	SEGMENT
??_C@_0O@NEIKDCMN@GamepadFaceUp@ DB 'GamepadFaceUp', 00H ; `string'
CONST	ENDS
;	COMDAT ??_C@_0BB@KCPJBHBD@GamepadFaceRight@
CONST	SEGMENT
??_C@_0BB@KCPJBHBD@GamepadFaceRight@ DB 'GamepadFaceRight', 00H ; `string'
CONST	ENDS
;	COMDAT ??_C@_0BA@LLLNHFDH@GamepadFaceLeft@
CONST	SEGMENT
??_C@_0BA@LLLNHFDH@GamepadFaceLeft@ DB 'GamepadFaceLeft', 00H ; `string'
CONST	ENDS
;	COMDAT ??_C@_0M@BMKDKCOL@GamepadBack@
CONST	SEGMENT
??_C@_0M@BMKDKCOL@GamepadBack@ DB 'GamepadBack', 00H	; `string'
CONST	ENDS
;	COMDAT ??_C@_0N@KFODLNBI@GamepadStart@
CONST	SEGMENT
??_C@_0N@KFODLNBI@GamepadStart@ DB 'GamepadStart', 00H	; `string'
CONST	ENDS
;	COMDAT ??_C@_0M@DKIEDCPC@KeypadEqual@
CONST	SEGMENT
??_C@_0M@DKIEDCPC@KeypadEqual@ DB 'KeypadEqual', 00H	; `string'
CONST	ENDS
;	COMDAT ??_C@_0M@LDMAMCMH@KeypadEnter@
CONST	SEGMENT
??_C@_0M@LDMAMCMH@KeypadEnter@ DB 'KeypadEnter', 00H	; `string'
CONST	ENDS
;	COMDAT ??_C@_09PBFBAKNA@KeypadAdd@
CONST	SEGMENT
??_C@_09PBFBAKNA@KeypadAdd@ DB 'KeypadAdd', 00H		; `string'
CONST	ENDS
;	COMDAT ??_C@_0P@EGJPMAKL@KeypadSubtract@
CONST	SEGMENT
??_C@_0P@EGJPMAKL@KeypadSubtract@ DB 'KeypadSubtract', 00H ; `string'
CONST	ENDS
;	COMDAT ??_C@_0P@DDMFINAM@KeypadMultiply@
CONST	SEGMENT
??_C@_0P@DDMFINAM@KeypadMultiply@ DB 'KeypadMultiply', 00H ; `string'
CONST	ENDS
;	COMDAT ??_C@_0N@IOPGAACF@KeypadDivide@
CONST	SEGMENT
??_C@_0N@IOPGAACF@KeypadDivide@ DB 'KeypadDivide', 00H	; `string'
CONST	ENDS
;	COMDAT ??_C@_0O@GMHIBIOG@KeypadDecimal@
CONST	SEGMENT
??_C@_0O@GMHIBIOG@KeypadDecimal@ DB 'KeypadDecimal', 00H ; `string'
CONST	ENDS
;	COMDAT ??_C@_07CAJLFPIJ@Keypad9@
CONST	SEGMENT
??_C@_07CAJLFPIJ@Keypad9@ DB 'Keypad9', 00H		; `string'
CONST	ENDS
;	COMDAT ??_C@_07DJIAGOMI@Keypad8@
CONST	SEGMENT
??_C@_07DJIAGOMI@Keypad8@ DB 'Keypad8', 00H		; `string'
CONST	ENDS
;	COMDAT ??_C@_07LOBIHCAH@Keypad7@
CONST	SEGMENT
??_C@_07LOBIHCAH@Keypad7@ DB 'Keypad7', 00H		; `string'
CONST	ENDS
;	COMDAT ??_C@_07KHADEDEG@Keypad6@
CONST	SEGMENT
??_C@_07KHADEDEG@Keypad6@ DB 'Keypad6', 00H		; `string'
CONST	ENDS
;	COMDAT ??_C@_07IMCOBAIF@Keypad5@
CONST	SEGMENT
??_C@_07IMCOBAIF@Keypad5@ DB 'Keypad5', 00H		; `string'
CONST	ENDS
;	COMDAT ??_C@_07JFDFCBME@Keypad4@
CONST	SEGMENT
??_C@_07JFDFCBME@Keypad4@ DB 'Keypad4', 00H		; `string'
CONST	ENDS
;	COMDAT ??_C@_07NKHELHAD@Keypad3@
CONST	SEGMENT
??_C@_07NKHELHAD@Keypad3@ DB 'Keypad3', 00H		; `string'
CONST	ENDS
;	COMDAT ??_C@_07MDGPIGEC@Keypad2@
CONST	SEGMENT
??_C@_07MDGPIGEC@Keypad2@ DB 'Keypad2', 00H		; `string'
CONST	ENDS
;	COMDAT ??_C@_07OIECNFIB@Keypad1@
CONST	SEGMENT
??_C@_07OIECNFIB@Keypad1@ DB 'Keypad1', 00H		; `string'
CONST	ENDS
;	COMDAT ??_C@_07PBFJOEMA@Keypad0@
CONST	SEGMENT
??_C@_07PBFJOEMA@Keypad0@ DB 'Keypad0', 00H		; `string'
CONST	ENDS
;	COMDAT ??_C@_05PEDNBBBD@Pause@
CONST	SEGMENT
??_C@_05PEDNBBBD@Pause@ DB 'Pause', 00H			; `string'
CONST	ENDS
;	COMDAT ??_C@_0M@CJIDBHOK@PrintScreen@
CONST	SEGMENT
??_C@_0M@CJIDBHOK@PrintScreen@ DB 'PrintScreen', 00H	; `string'
CONST	ENDS
;	COMDAT ??_C@_07JOCOIGEJ@NumLock@
CONST	SEGMENT
??_C@_07JOCOIGEJ@NumLock@ DB 'NumLock', 00H		; `string'
CONST	ENDS
;	COMDAT ??_C@_0L@JJJEGPLJ@ScrollLock@
CONST	SEGMENT
??_C@_0L@JJJEGPLJ@ScrollLock@ DB 'ScrollLock', 00H	; `string'
CONST	ENDS
;	COMDAT ??_C@_08LBKIEOPK@CapsLock@
CONST	SEGMENT
??_C@_08LBKIEOPK@CapsLock@ DB 'CapsLock', 00H		; `string'
CONST	ENDS
;	COMDAT ??_C@_0M@PEGEKEFO@GraveAccent@
CONST	SEGMENT
??_C@_0M@PEGEKEFO@GraveAccent@ DB 'GraveAccent', 00H	; `string'
CONST	ENDS
;	COMDAT ??_C@_0N@NOCLCIPD@RightBracket@
CONST	SEGMENT
??_C@_0N@NOCLCIPD@RightBracket@ DB 'RightBracket', 00H	; `string'
CONST	ENDS
;	COMDAT ??_C@_09LDIKCIFH@Backslash@
CONST	SEGMENT
??_C@_09LDIKCIFH@Backslash@ DB 'Backslash', 00H		; `string'
CONST	ENDS
;	COMDAT ??_C@_0M@FGLAPLO@LeftBracket@
CONST	SEGMENT
??_C@_0M@FGLAPLO@LeftBracket@ DB 'LeftBracket', 00H	; `string'
CONST	ENDS
;	COMDAT ??_C@_05JKGNJOO@Equal@
CONST	SEGMENT
??_C@_05JKGNJOO@Equal@ DB 'Equal', 00H			; `string'
CONST	ENDS
;	COMDAT ??_C@_09FBGFMNJC@Semicolon@
CONST	SEGMENT
??_C@_09FBGFMNJC@Semicolon@ DB 'Semicolon', 00H		; `string'
CONST	ENDS
;	COMDAT ??_C@_05OAOMBJIJ@Slash@
CONST	SEGMENT
??_C@_05OAOMBJIJ@Slash@ DB 'Slash', 00H			; `string'
CONST	ENDS
;	COMDAT ??_C@_06JOFJHOEH@Period@
CONST	SEGMENT
??_C@_06JOFJHOEH@Period@ DB 'Period', 00H		; `string'
CONST	ENDS
;	COMDAT ??_C@_05OEAIFCGM@Minus@
CONST	SEGMENT
??_C@_05OEAIFCGM@Minus@ DB 'Minus', 00H			; `string'
CONST	ENDS
;	COMDAT ??_C@_05CJDGOLEJ@Comma@
CONST	SEGMENT
??_C@_05CJDGOLEJ@Comma@ DB 'Comma', 00H			; `string'
CONST	ENDS
;	COMDAT ??_C@_0L@KECMMICK@Apostrophe@
CONST	SEGMENT
??_C@_0L@KECMMICK@Apostrophe@ DB 'Apostrophe', 00H	; `string'
CONST	ENDS
;	COMDAT ??_C@_03KIBNPMNE@F12@
CONST	SEGMENT
??_C@_03KIBNPMNE@F12@ DB 'F12', 00H			; `string'
CONST	ENDS
;	COMDAT ??_C@_03IDDAKPBH@F11@
CONST	SEGMENT
??_C@_03IDDAKPBH@F11@ DB 'F11', 00H			; `string'
CONST	ENDS
;	COMDAT ??_C@_03JKCLJOFG@F10@
CONST	SEGMENT
??_C@_03JKCLJOFG@F10@ DB 'F10', 00H			; `string'
CONST	ENDS
;	COMDAT ??_C@_02HKCNFKCF@F9@
CONST	SEGMENT
??_C@_02HKCNFKCF@F9@ DB 'F9', 00H			; `string'
CONST	ENDS
;	COMDAT ??_C@_02GDDGGLGE@F8@
CONST	SEGMENT
??_C@_02GDDGGLGE@F8@ DB 'F8', 00H			; `string'
CONST	ENDS
;	COMDAT ??_C@_02OEKOHHKL@F7@
CONST	SEGMENT
??_C@_02OEKOHHKL@F7@ DB 'F7', 00H			; `string'
CONST	ENDS
;	COMDAT ??_C@_02PNLFEGOK@F6@
CONST	SEGMENT
??_C@_02PNLFEGOK@F6@ DB 'F6', 00H			; `string'
CONST	ENDS
;	COMDAT ??_C@_02NGJIBFCJ@F5@
CONST	SEGMENT
??_C@_02NGJIBFCJ@F5@ DB 'F5', 00H			; `string'
CONST	ENDS
;	COMDAT ??_C@_02MPIDCEGI@F4@
CONST	SEGMENT
??_C@_02MPIDCEGI@F4@ DB 'F4', 00H			; `string'
CONST	ENDS
;	COMDAT ??_C@_02IAMCLCKP@F3@
CONST	SEGMENT
??_C@_02IAMCLCKP@F3@ DB 'F3', 00H			; `string'
CONST	ENDS
;	COMDAT ??_C@_02JJNJIDOO@F2@
CONST	SEGMENT
??_C@_02JJNJIDOO@F2@ DB 'F2', 00H			; `string'
CONST	ENDS
;	COMDAT ??_C@_02LCPENACN@F1@
CONST	SEGMENT
??_C@_02LCPENACN@F1@ DB 'F1', 00H			; `string'
CONST	ENDS
;	COMDAT ??_C@_01POHCFINO@Z@
CONST	SEGMENT
??_C@_01POHCFINO@Z@ DB 'Z', 00H				; `string'
CONST	ENDS
;	COMDAT ??_C@_01NFFPALBN@Y@
CONST	SEGMENT
??_C@_01NFFPALBN@Y@ DB 'Y', 00H				; `string'
CONST	ENDS
;	COMDAT ??_C@_01MMEEDKFM@X@
CONST	SEGMENT
??_C@_01MMEEDKFM@X@ DB 'X', 00H				; `string'
CONST	ENDS
;	COMDAT ??_C@_01ELNMCGJD@W@
CONST	SEGMENT
??_C@_01ELNMCGJD@W@ DB 'W', 00H				; `string'
CONST	ENDS
;	COMDAT ??_C@_01FCMHBHNC@V@
CONST	SEGMENT
??_C@_01FCMHBHNC@V@ DB 'V', 00H				; `string'
CONST	ENDS
;	COMDAT ??_C@_01HJOKEEBB@U@
CONST	SEGMENT
??_C@_01HJOKEEBB@U@ DB 'U', 00H				; `string'
CONST	ENDS
;	COMDAT ??_C@_01GAPBHFFA@T@
CONST	SEGMENT
??_C@_01GAPBHFFA@T@ DB 'T', 00H				; `string'
CONST	ENDS
;	COMDAT ??_C@_01CPLAODJH@S@
CONST	SEGMENT
??_C@_01CPLAODJH@S@ DB 'S', 00H				; `string'
CONST	ENDS
;	COMDAT ??_C@_01DGKLNCNG@R@
CONST	SEGMENT
??_C@_01DGKLNCNG@R@ DB 'R', 00H				; `string'
CONST	ENDS
;	COMDAT ??_C@_01BNIGIBBF@Q@
CONST	SEGMENT
??_C@_01BNIGIBBF@Q@ DB 'Q', 00H				; `string'
CONST	ENDS
;	COMDAT ??_C@_01EJNLAFE@P@
CONST	SEGMENT
??_C@_01EJNLAFE@P@ DB 'P', 00H				; `string'
CONST	ENDS
;	COMDAT ??_C@_01MJMHLOMK@O@
CONST	SEGMENT
??_C@_01MJMHLOMK@O@ DB 'O', 00H				; `string'
CONST	ENDS
;	COMDAT ??_C@_01NANMIPIL@N@
CONST	SEGMENT
??_C@_01NANMIPIL@N@ DB 'N', 00H				; `string'
CONST	ENDS
;	COMDAT ??_C@_01PLPBNMEI@M@
CONST	SEGMENT
??_C@_01PLPBNMEI@M@ DB 'M', 00H				; `string'
CONST	ENDS
;	COMDAT ??_C@_01OCOKONAJ@L@
CONST	SEGMENT
??_C@_01OCOKONAJ@L@ DB 'L', 00H				; `string'
CONST	ENDS
;	COMDAT ??_C@_01KNKLHLMO@K@
CONST	SEGMENT
??_C@_01KNKLHLMO@K@ DB 'K', 00H				; `string'
CONST	ENDS
;	COMDAT ??_C@_01LELAEKIP@J@
CONST	SEGMENT
??_C@_01LELAEKIP@J@ DB 'J', 00H				; `string'
CONST	ENDS
;	COMDAT ??_C@_01JPJNBJEM@I@
CONST	SEGMENT
??_C@_01JPJNBJEM@I@ DB 'I', 00H				; `string'
CONST	ENDS
;	COMDAT ??_C@_01IGIGCIAN@H@
CONST	SEGMENT
??_C@_01IGIGCIAN@H@ DB 'H', 00H				; `string'
CONST	ENDS
;	COMDAT ??_C@_01BBODEMC@G@
CONST	SEGMENT
??_C@_01BBODEMC@G@ DB 'G', 00H				; `string'
CONST	ENDS
;	COMDAT ??_C@_01BIAFAFID@F@
CONST	SEGMENT
??_C@_01BIAFAFID@F@ DB 'F', 00H				; `string'
CONST	ENDS
;	COMDAT ??_C@_01DDCIFGEA@E@
CONST	SEGMENT
??_C@_01DDCIFGEA@E@ DB 'E', 00H				; `string'
CONST	ENDS
;	COMDAT ??_C@_01CKDDGHAB@D@
CONST	SEGMENT
??_C@_01CKDDGHAB@D@ DB 'D', 00H				; `string'
CONST	ENDS
;	COMDAT ??_C@_01GFHCPBMG@C@
CONST	SEGMENT
??_C@_01GFHCPBMG@C@ DB 'C', 00H				; `string'
CONST	ENDS
;	COMDAT ??_C@_01HMGJMAIH@B@
CONST	SEGMENT
??_C@_01HMGJMAIH@B@ DB 'B', 00H				; `string'
CONST	ENDS
;	COMDAT ??_C@_01FHEEJDEE@A@
CONST	SEGMENT
??_C@_01FHEEJDEE@A@ DB 'A', 00H				; `string'
CONST	ENDS
;	COMDAT ??_C@_01LAKCGALK@9@
CONST	SEGMENT
??_C@_01LAKCGALK@9@ DB '9', 00H				; `string'
CONST	ENDS
;	COMDAT ??_C@_01KJLJFBPL@8@
CONST	SEGMENT
??_C@_01KJLJFBPL@8@ DB '8', 00H				; `string'
CONST	ENDS
;	COMDAT ??_C@_01COCBENDE@7@
CONST	SEGMENT
??_C@_01COCBENDE@7@ DB '7', 00H				; `string'
CONST	ENDS
;	COMDAT ??_C@_01DHDKHMHF@6@
CONST	SEGMENT
??_C@_01DHDKHMHF@6@ DB '6', 00H				; `string'
CONST	ENDS
;	COMDAT ??_C@_01BMBHCPLG@5@
CONST	SEGMENT
??_C@_01BMBHCPLG@5@ DB '5', 00H				; `string'
CONST	ENDS
;	COMDAT ??_C@_01FAMBOPH@4@
CONST	SEGMENT
??_C@_01FAMBOPH@4@ DB '4', 00H				; `string'
CONST	ENDS
;	COMDAT ??_C@_01EKENIIDA@3@
CONST	SEGMENT
??_C@_01EKENIIDA@3@ DB '3', 00H				; `string'
CONST	ENDS
;	COMDAT ??_C@_01FDFGLJHB@2@
CONST	SEGMENT
??_C@_01FDFGLJHB@2@ DB '2', 00H				; `string'
CONST	ENDS
;	COMDAT ??_C@_01HIHLOKLC@1@
CONST	SEGMENT
??_C@_01HIHLOKLC@1@ DB '1', 00H				; `string'
CONST	ENDS
;	COMDAT ??_C@_01GBGANLPD@0@
CONST	SEGMENT
??_C@_01GBGANLPD@0@ DB '0', 00H				; `string'
CONST	ENDS
;	COMDAT ??_C@_04IFEHPILC@Menu@
CONST	SEGMENT
??_C@_04IFEHPILC@Menu@ DB 'Menu', 00H			; `string'
CONST	ENDS
;	COMDAT ??_C@_0L@DJHBABNC@RightSuper@
CONST	SEGMENT
??_C@_0L@DJHBABNC@RightSuper@ DB 'RightSuper', 00H	; `string'
CONST	ENDS
;	COMDAT ??_C@_08FCEDBIM@RightAlt@
CONST	SEGMENT
??_C@_08FCEDBIM@RightAlt@ DB 'RightAlt', 00H		; `string'
CONST	ENDS
;	COMDAT ??_C@_0L@NIAMFDCL@RightShift@
CONST	SEGMENT
??_C@_0L@NIAMFDCL@RightShift@ DB 'RightShift', 00H	; `string'
CONST	ENDS
;	COMDAT ??_C@_09MGKDJPDD@RightCtrl@
CONST	SEGMENT
??_C@_09MGKDJPDD@RightCtrl@ DB 'RightCtrl', 00H		; `string'
CONST	ENDS
;	COMDAT ??_C@_09DKGEOIN@LeftSuper@
CONST	SEGMENT
??_C@_09DKGEOIN@LeftSuper@ DB 'LeftSuper', 00H		; `string'
CONST	ENDS
;	COMDAT ??_C@_07MGKIIPNA@LeftAlt@
CONST	SEGMENT
??_C@_07MGKIIPNA@LeftAlt@ DB 'LeftAlt', 00H		; `string'
CONST	ENDS
;	COMDAT ??_C@_09OCNLBMHE@LeftShift@
CONST	SEGMENT
??_C@_09OCNLBMHE@LeftShift@ DB 'LeftShift', 00H		; `string'
CONST	ENDS
;	COMDAT ??_C@_08KELNAOFC@LeftCtrl@
CONST	SEGMENT
??_C@_08KELNAOFC@LeftCtrl@ DB 'LeftCtrl', 00H		; `string'
CONST	ENDS
;	COMDAT ??_C@_06OIGFGPHJ@Escape@
CONST	SEGMENT
??_C@_06OIGFGPHJ@Escape@ DB 'Escape', 00H		; `string'
CONST	ENDS
;	COMDAT ??_C@_05IAOCCJNL@Enter@
CONST	SEGMENT
??_C@_05IAOCCJNL@Enter@ DB 'Enter', 00H			; `string'
CONST	ENDS
;	COMDAT ??_C@_05OMHELODH@Space@
CONST	SEGMENT
??_C@_05OMHELODH@Space@ DB 'Space', 00H			; `string'
CONST	ENDS
;	COMDAT ??_C@_09LPBCIPOJ@Backspace@
CONST	SEGMENT
??_C@_09LPBCIPOJ@Backspace@ DB 'Backspace', 00H		; `string'
CONST	ENDS
;	COMDAT ??_C@_06JBKGCNBB@Delete@
CONST	SEGMENT
??_C@_06JBKGCNBB@Delete@ DB 'Delete', 00H		; `string'
CONST	ENDS
;	COMDAT ??_C@_06CPFCODOD@Insert@
CONST	SEGMENT
??_C@_06CPFCODOD@Insert@ DB 'Insert', 00H		; `string'
CONST	ENDS
;	COMDAT ??_C@_03DBKJMAGF@End@
CONST	SEGMENT
??_C@_03DBKJMAGF@End@ DB 'End', 00H			; `string'
CONST	ENDS
;	COMDAT ??_C@_04GKJODLKO@Home@
CONST	SEGMENT
??_C@_04GKJODLKO@Home@ DB 'Home', 00H			; `string'
CONST	ENDS
;	COMDAT ??_C@_08FDLMHKA@PageDown@
CONST	SEGMENT
??_C@_08FDLMHKA@PageDown@ DB 'PageDown', 00H		; `string'
CONST	ENDS
;	COMDAT ??_C@_06OAEMCMAI@PageUp@
CONST	SEGMENT
??_C@_06OAEMCMAI@PageUp@ DB 'PageUp', 00H		; `string'
CONST	ENDS
;	COMDAT ??_C@_09NADHLAEK@DownArrow@
CONST	SEGMENT
??_C@_09NADHLAEK@DownArrow@ DB 'DownArrow', 00H		; `string'
CONST	ENDS
;	COMDAT ??_C@_07MOKGGMEC@UpArrow@
CONST	SEGMENT
??_C@_07MOKGGMEC@UpArrow@ DB 'UpArrow', 00H		; `string'
CONST	ENDS
;	COMDAT ??_C@_0L@BPKGMHEK@RightArrow@
CONST	SEGMENT
??_C@_0L@BPKGMHEK@RightArrow@ DB 'RightArrow', 00H	; `string'
CONST	ENDS
;	COMDAT ??_C@_09CFHBIIBF@LeftArrow@
CONST	SEGMENT
??_C@_09CFHBIIBF@LeftArrow@ DB 'LeftArrow', 00H		; `string'
CONST	ENDS
;	COMDAT ??_C@_0DG@HEGBDNMN@SetKeyboardFocusHere?$CI?$CJ?5ignored?5@
CONST	SEGMENT
??_C@_0DG@HEGBDNMN@SetKeyboardFocusHere?$CI?$CJ?5ignored?5@ DB 'SetKeyboa'
	DB	'rdFocusHere() ignored while DragDropActive!', 0aH, 00H ; `string'
CONST	ENDS
;	COMDAT ??_C@_0CJ@HBEFDIPK@SetKeyboardFocusHere?$CI?$CFd?$CJ?5in?5win@
CONST	SEGMENT
??_C@_0CJ@HBEFDIPK@SetKeyboardFocusHere?$CI?$CFd?$CJ?5in?5win@ DB 'SetKey'
	DB	'boardFocusHere(%d) in window "%s"', 0aH, 00H ; `string'
CONST	ENDS
;	COMDAT ??_C@_06KIIKKNMI@?$CDCLOSE@
CONST	SEGMENT
??_C@_06KIIKKNMI@?$CDCLOSE@ DB '#CLOSE', 00H		; `string'
CONST	ENDS
;	COMDAT ??_C@_09BJOGEADB@?$CDCOLLAPSE@
CONST	SEGMENT
??_C@_09BJOGEADB@?$CDCOLLAPSE@ DB '#COLLAPSE', 00H	; `string'
CONST	ENDS
;	COMDAT ??_C@_07HDHBJEOI@?$CDRESIZE@
CONST	SEGMENT
??_C@_07HDHBJEOI@?$CDRESIZE@ DB '#RESIZE', 00H		; `string'
CONST	ENDS
;	COMDAT ??_C@_07KBCBAKFA@?$CFs?1?$CF08X@
CONST	SEGMENT
??_C@_07KBCBAKFA@?$CFs?1?$CF08X@ DB '%s/%08X', 00H	; `string'
CONST	ENDS
;	COMDAT ??_C@_0L@BDFLDJGI@?$CFs?1?$CFs_?$CF08X@
CONST	SEGMENT
??_C@_0L@BDFLDJGI@?$CFs?1?$CFs_?$CF08X@ DB '%s/%s_%08X', 00H ; `string'
CONST	ENDS
;	COMDAT ??_C@_03KHICJKCI@?4?4?4@
CONST	SEGMENT
??_C@_03KHICJKCI@?4?4?4@ DB '...', 00H			; `string'
CONST	ENDS
;	COMDAT ??_C@_06BKKJGDHO@Window@
CONST	SEGMENT
??_C@_06BKKJGDHO@Window@ DB 'Window', 00H		; `string'
CONST	ENDS
;	COMDAT ??_C@_0L@JOJOIPFK@?$CIUntitled?$CJ@
CONST	SEGMENT
??_C@_0L@JOJOIPFK@?$CIUntitled?$CJ@ DB '(Untitled)', 00H ; `string'
CONST	ENDS
;	COMDAT ??_C@_07NPLNEKJH@?$CIPopup?$CJ@
CONST	SEGMENT
??_C@_07NPLNEKJH@?$CIPopup?$CJ@ DB '(Popup)', 00H	; `string'
CONST	ENDS
;	COMDAT ??_C@_0BA@KDPNEDEH@?$CIMain?5menu?5bar?$CJ@
CONST	SEGMENT
??_C@_0BA@KDPNEDEH@?$CIMain?5menu?5bar?$CJ@ DB '(Main menu bar)', 00H ; `string'
CONST	ENDS
;	COMDAT ??_C@_0BJ@BBKAOKNK@Reset?5order?$CD?$CD?$CDResetOrder@
CONST	SEGMENT
??_C@_0BJ@BBKAOKNK@Reset?5order?$CD?$CD?$CDResetOrder@ DB 'Reset order###'
	DB	'ResetOrder', 00H				; `string'
CONST	ENDS
;	COMDAT ??_C@_0CG@CFICKNDA@Size?5all?5columns?5to?5default?$CD?$CD?$CDS@
CONST	SEGMENT
??_C@_0CG@CFICKNDA@Size?5all?5columns?5to?5default?$CD?$CD?$CDS@ DB 'Size'
	DB	' all columns to default###SizeAll', 00H	; `string'
CONST	ENDS
;	COMDAT ??_C@_0CC@MJIBPDCL@Size?5all?5columns?5to?5fit?$CD?$CD?$CDSizeA@
CONST	SEGMENT
??_C@_0CC@MJIBPDCL@Size?5all?5columns?5to?5fit?$CD?$CD?$CDSizeA@ DB 'Size'
	DB	' all columns to fit###SizeAll', 00H		; `string'
CONST	ENDS
;	COMDAT ??_C@_0BN@CNPDCOK@Size?5column?5to?5fit?$CD?$CD?$CDSizeOne@
CONST	SEGMENT
??_C@_0BN@CNPDCOK@Size?5column?5to?5fit?$CD?$CD?$CDSizeOne@ DB 'Size colu'
	DB	'mn to fit###SizeOne', 00H			; `string'
CONST	ENDS
;	COMDAT ??_C@_0P@IMLDNMEK@Debug?$CD?$CDDefault@
CONST	SEGMENT
??_C@_0P@IMLDNMEK@Debug?$CD?$CDDefault@ DB 'Debug##Default', 00H ; `string'
CONST	ENDS
;	COMDAT ??_C@_0EE@CAHEIKBO@NewFrame?$CI?$CJ?3?5ClearActiveID?$CI?$CJ?5bec@
CONST	SEGMENT
??_C@_0EE@CAHEIKBO@NewFrame?$CI?$CJ?3?5ClearActiveID?$CI?$CJ?5bec@ DB 'Ne'
	DB	'wFrame(): ClearActiveID() because it isn''t marked alive anym'
	DB	'ore!', 0aH, 00H				; `string'
CONST	ENDS
;	COMDAT ??_C@_0BL@JLLLOAEH@LockWheelingWindow?$CI?$CJ?5?$CC?$CFs?$CC?6@
CONST	SEGMENT
??_C@_0BL@JLLLOAEH@LockWheelingWindow?$CI?$CJ?5?$CC?$CFs?$CC?6@ DB 'LockW'
	DB	'heelingWindow() "%s"', 0aH, 00H		; `string'
CONST	ENDS
;	COMDAT ??_C@_04HIBGFPH@NULL@
CONST	SEGMENT
??_C@_04HIBGFPH@NULL@ DB 'NULL', 00H			; `string'
CONST	ENDS
;	COMDAT ??_C@_0N@MFHPHIIJ@?$CD?$CDForeground@
CONST	SEGMENT
??_C@_0N@MFHPHIIJ@?$CD?$CDForeground@ DB '##Foreground', 00H ; `string'
CONST	ENDS
;	COMDAT ??_C@_0N@MFFOHPLI@?$CD?$CDBackground@
CONST	SEGMENT
??_C@_0N@MFFOHPLI@?$CD?$CDBackground@ DB '##Background', 00H ; `string'
CONST	ENDS
;	COMDAT ??_C@_0L@CBCMKGPN@1?489?41?5WIP@
CONST	SEGMENT
??_C@_0L@CBCMKGPN@1?489?41?5WIP@ DB '1.89.1 WIP', 00H	; `string'
CONST	ENDS
;	COMDAT ??_C@_0EE@BGNDHHFI@SetActiveID?$CI?$CJ?5old?30x?$CF08X?5?$CIwindo@
CONST	SEGMENT
??_C@_0EE@BGNDHHFI@SetActiveID?$CI?$CJ?5old?30x?$CF08X?5?$CIwindo@ DB 'Se'
	DB	'tActiveID() old:0x%08X (window "%s") -> new:0x%08X (window "%'
	DB	's")', 0aH, 00H				; `string'
CONST	ENDS
;	COMDAT ??_C@_0CD@PNHNJJBD@SetActiveID?$CI?$CJ?5cancel?5MovingWind@
CONST	SEGMENT
??_C@_0CD@PNHNJJBD@SetActiveID?$CI?$CJ?5cancel?5MovingWind@ DB 'SetActive'
	DB	'ID() cancel MovingWindow', 0aH, 00H		; `string'
CONST	ENDS
;	COMDAT ??_C@_05EJCOBEBF@?$CDMOVE@
CONST	SEGMENT
??_C@_05EJCOBEBF@?$CDMOVE@ DB '#MOVE', 00H		; `string'
CONST	ENDS
;	COMDAT ??_C@_07NBCGADJA@Unknown@
CONST	SEGMENT
??_C@_07NBCGADJA@Unknown@ DB 'Unknown', 00H		; `string'
CONST	ENDS
;	COMDAT ??_C@_0BB@JOEAHKNC@ModalWindowDimBg@
CONST	SEGMENT
??_C@_0BB@JOEAHKNC@ModalWindowDimBg@ DB 'ModalWindowDimBg', 00H ; `string'
CONST	ENDS
;	COMDAT ??_C@_0BC@JHKONDGH@NavWindowingDimBg@
CONST	SEGMENT
??_C@_0BC@JHKONDGH@NavWindowingDimBg@ DB 'NavWindowingDimBg', 00H ; `string'
CONST	ENDS
;	COMDAT ??_C@_0BG@MCGDEFOI@NavWindowingHighlight@
CONST	SEGMENT
??_C@_0BG@MCGDEFOI@NavWindowingHighlight@ DB 'NavWindowingHighlight', 00H ; `string'
CONST	ENDS
;	COMDAT ??_C@_0N@ENCIHEPH@NavHighlight@
CONST	SEGMENT
??_C@_0N@ENCIHEPH@NavHighlight@ DB 'NavHighlight', 00H	; `string'
CONST	ENDS
;	COMDAT ??_C@_0P@GDDMCLOI@DragDropTarget@
CONST	SEGMENT
??_C@_0P@GDDMCLOI@DragDropTarget@ DB 'DragDropTarget', 00H ; `string'
CONST	ENDS
;	COMDAT ??_C@_0P@IBBLAEBJ@TextSelectedBg@
CONST	SEGMENT
??_C@_0P@IBBLAEBJ@TextSelectedBg@ DB 'TextSelectedBg', 00H ; `string'
CONST	ENDS
;	COMDAT ??_C@_0O@FGPLHMKP@TableRowBgAlt@
CONST	SEGMENT
??_C@_0O@FGPLHMKP@TableRowBgAlt@ DB 'TableRowBgAlt', 00H ; `string'
CONST	ENDS
;	COMDAT ??_C@_0L@LLALIFOE@TableRowBg@
CONST	SEGMENT
??_C@_0L@LLALIFOE@TableRowBg@ DB 'TableRowBg', 00H	; `string'
CONST	ENDS
;	COMDAT ??_C@_0BB@IPAPNNJD@TableBorderLight@
CONST	SEGMENT
??_C@_0BB@IPAPNNJD@TableBorderLight@ DB 'TableBorderLight', 00H ; `string'
CONST	ENDS
;	COMDAT ??_C@_0BC@EJINMLMM@TableBorderStrong@
CONST	SEGMENT
??_C@_0BC@EJINMLMM@TableBorderStrong@ DB 'TableBorderStrong', 00H ; `string'
CONST	ENDS
;	COMDAT ??_C@_0O@OAEMMJAA@TableHeaderBg@
CONST	SEGMENT
??_C@_0O@OAEMMJAA@TableHeaderBg@ DB 'TableHeaderBg', 00H ; `string'
CONST	ENDS
;	COMDAT ??_C@_0BF@GJALJGDC@PlotHistogramHovered@
CONST	SEGMENT
??_C@_0BF@GJALJGDC@PlotHistogramHovered@ DB 'PlotHistogramHovered', 00H ; `string'
CONST	ENDS
;	COMDAT ??_C@_0O@EEKOCENA@PlotHistogram@
CONST	SEGMENT
??_C@_0O@EEKOCENA@PlotHistogram@ DB 'PlotHistogram', 00H ; `string'
CONST	ENDS
;	COMDAT ??_C@_0BB@OMALNJLN@PlotLinesHovered@
CONST	SEGMENT
??_C@_0BB@OMALNJLN@PlotLinesHovered@ DB 'PlotLinesHovered', 00H ; `string'
CONST	ENDS
;	COMDAT ??_C@_09HDJFFJLL@PlotLines@
CONST	SEGMENT
??_C@_09HDJFFJLL@PlotLines@ DB 'PlotLines', 00H		; `string'
CONST	ENDS
;	COMDAT ??_C@_0BD@JMEALEPP@TabUnfocusedActive@
CONST	SEGMENT
??_C@_0BD@JMEALEPP@TabUnfocusedActive@ DB 'TabUnfocusedActive', 00H ; `string'
CONST	ENDS
;	COMDAT ??_C@_0N@KLEENDFP@TabUnfocused@
CONST	SEGMENT
??_C@_0N@KLEENDFP@TabUnfocused@ DB 'TabUnfocused', 00H	; `string'
CONST	ENDS
;	COMDAT ??_C@_09BLMKPFCF@TabActive@
CONST	SEGMENT
??_C@_09BLMKPFCF@TabActive@ DB 'TabActive', 00H		; `string'
CONST	ENDS
;	COMDAT ??_C@_0L@JFDLBKBD@TabHovered@
CONST	SEGMENT
??_C@_0L@JFDLBKBD@TabHovered@ DB 'TabHovered', 00H	; `string'
CONST	ENDS
;	COMDAT ??_C@_03IEAKBACE@Tab@
CONST	SEGMENT
??_C@_03IEAKBACE@Tab@ DB 'Tab', 00H			; `string'
CONST	ENDS
;	COMDAT ??_C@_0BB@NBBKHKIC@ResizeGripActive@
CONST	SEGMENT
??_C@_0BB@NBBKHKIC@ResizeGripActive@ DB 'ResizeGripActive', 00H ; `string'
CONST	ENDS
;	COMDAT ??_C@_0BC@NNEDPMNH@ResizeGripHovered@
CONST	SEGMENT
??_C@_0BC@NNEDPMNH@ResizeGripHovered@ DB 'ResizeGripHovered', 00H ; `string'
CONST	ENDS
;	COMDAT ??_C@_0L@NGBDNFNJ@ResizeGrip@
CONST	SEGMENT
??_C@_0L@NGBDNFNJ@ResizeGrip@ DB 'ResizeGrip', 00H	; `string'
CONST	ENDS
;	COMDAT ??_C@_0BA@BPNGFOJM@SeparatorActive@
CONST	SEGMENT
??_C@_0BA@BPNGFOJM@SeparatorActive@ DB 'SeparatorActive', 00H ; `string'
CONST	ENDS
;	COMDAT ??_C@_0BB@CHICANJA@SeparatorHovered@
CONST	SEGMENT
??_C@_0BB@CHICANJA@SeparatorHovered@ DB 'SeparatorHovered', 00H ; `string'
CONST	ENDS
;	COMDAT ??_C@_09IBFEOKHN@Separator@
CONST	SEGMENT
??_C@_09IBFEOKHN@Separator@ DB 'Separator', 00H		; `string'
CONST	ENDS
;	COMDAT ??_C@_0N@HILFCJOI@HeaderActive@
CONST	SEGMENT
??_C@_0N@HILFCJOI@HeaderActive@ DB 'HeaderActive', 00H	; `string'
CONST	ENDS
;	COMDAT ??_C@_0O@HAINNLMC@HeaderHovered@
CONST	SEGMENT
??_C@_0O@HAINNLMC@HeaderHovered@ DB 'HeaderHovered', 00H ; `string'
CONST	ENDS
;	COMDAT ??_C@_06OENKJGA@Header@
CONST	SEGMENT
??_C@_06OENKJGA@Header@ DB 'Header', 00H		; `string'
CONST	ENDS
;	COMDAT ??_C@_0N@IMHOFKJ@ButtonActive@
CONST	SEGMENT
??_C@_0N@IMHOFKJ@ButtonActive@ DB 'ButtonActive', 00H	; `string'
CONST	ENDS
;	COMDAT ??_C@_0O@HBCGNIAI@ButtonHovered@
CONST	SEGMENT
??_C@_0O@HBCGNIAI@ButtonHovered@ DB 'ButtonHovered', 00H ; `string'
CONST	ENDS
;	COMDAT ??_C@_06LKBCGDFD@Button@
CONST	SEGMENT
??_C@_06LKBCGDFD@Button@ DB 'Button', 00H		; `string'
CONST	ENDS
;	COMDAT ??_C@_0BB@HBOBMOMP@SliderGrabActive@
CONST	SEGMENT
??_C@_0BB@HBOBMOMP@SliderGrabActive@ DB 'SliderGrabActive', 00H ; `string'
CONST	ENDS
;	COMDAT ??_C@_0L@LAMBADIC@SliderGrab@
CONST	SEGMENT
??_C@_0L@LAMBADIC@SliderGrab@ DB 'SliderGrab', 00H	; `string'
CONST	ENDS
;	COMDAT ??_C@_09DMKAANGE@CheckMark@
CONST	SEGMENT
??_C@_09DMKAANGE@CheckMark@ DB 'CheckMark', 00H		; `string'
CONST	ENDS
;	COMDAT ??_C@_0BE@GODMFNCF@ScrollbarGrabActive@
CONST	SEGMENT
??_C@_0BE@GODMFNCF@ScrollbarGrabActive@ DB 'ScrollbarGrabActive', 00H ; `string'
CONST	ENDS
;	COMDAT ??_C@_0BF@JFEOOMLL@ScrollbarGrabHovered@
CONST	SEGMENT
??_C@_0BF@JFEOOMLL@ScrollbarGrabHovered@ DB 'ScrollbarGrabHovered', 00H ; `string'
CONST	ENDS
;	COMDAT ??_C@_0O@HABIDNBE@ScrollbarGrab@
CONST	SEGMENT
??_C@_0O@HABIDNBE@ScrollbarGrab@ DB 'ScrollbarGrab', 00H ; `string'
CONST	ENDS
;	COMDAT ??_C@_0M@MFDHPFJF@ScrollbarBg@
CONST	SEGMENT
??_C@_0M@MFDHPFJF@ScrollbarBg@ DB 'ScrollbarBg', 00H	; `string'
CONST	ENDS
;	COMDAT ??_C@_09GEKCKLDE@MenuBarBg@
CONST	SEGMENT
??_C@_09GEKCKLDE@MenuBarBg@ DB 'MenuBarBg', 00H		; `string'
CONST	ENDS
;	COMDAT ??_C@_0BB@EGCOMBJG@TitleBgCollapsed@
CONST	SEGMENT
??_C@_0BB@EGCOMBJG@TitleBgCollapsed@ DB 'TitleBgCollapsed', 00H ; `string'
CONST	ENDS
;	COMDAT ??_C@_0O@JHBFJHNE@TitleBgActive@
CONST	SEGMENT
??_C@_0O@JHBFJHNE@TitleBgActive@ DB 'TitleBgActive', 00H ; `string'
CONST	ENDS
;	COMDAT ??_C@_07MMLEKCPI@TitleBg@
CONST	SEGMENT
??_C@_07MMLEKCPI@TitleBg@ DB 'TitleBg', 00H		; `string'
CONST	ENDS
;	COMDAT ??_C@_0O@BGDCDDEA@FrameBgActive@
CONST	SEGMENT
??_C@_0O@BGDCDDEA@FrameBgActive@ DB 'FrameBgActive', 00H ; `string'
CONST	ENDS
;	COMDAT ??_C@_0P@KIOOHHAC@FrameBgHovered@
CONST	SEGMENT
??_C@_0P@KIOOHHAC@FrameBgHovered@ DB 'FrameBgHovered', 00H ; `string'
CONST	ENDS
;	COMDAT ??_C@_07PJIIOGAC@FrameBg@
CONST	SEGMENT
??_C@_07PJIIOGAC@FrameBg@ DB 'FrameBg', 00H		; `string'
CONST	ENDS
;	COMDAT ??_C@_0N@DECGFAEC@BorderShadow@
CONST	SEGMENT
??_C@_0N@DECGFAEC@BorderShadow@ DB 'BorderShadow', 00H	; `string'
CONST	ENDS
;	COMDAT ??_C@_06CMOGDIBK@Border@
CONST	SEGMENT
??_C@_06CMOGDIBK@Border@ DB 'Border', 00H		; `string'
CONST	ENDS
;	COMDAT ??_C@_07LKIIIJHA@PopupBg@
CONST	SEGMENT
??_C@_07LKIIIJHA@PopupBg@ DB 'PopupBg', 00H		; `string'
CONST	ENDS
;	COMDAT ??_C@_07BLEJOHFO@ChildBg@
CONST	SEGMENT
??_C@_07BLEJOHFO@ChildBg@ DB 'ChildBg', 00H		; `string'
CONST	ENDS
;	COMDAT ??_C@_08DMKFNKPN@WindowBg@
CONST	SEGMENT
??_C@_08DMKFNKPN@WindowBg@ DB 'WindowBg', 00H		; `string'
CONST	ENDS
;	COMDAT ??_C@_0N@LNHHFNPK@TextDisabled@
CONST	SEGMENT
??_C@_0N@LNHHFNPK@TextDisabled@ DB 'TextDisabled', 00H	; `string'
CONST	ENDS
;	COMDAT ??_C@_04OJAHODMC@Text@
CONST	SEGMENT
??_C@_04OJAHODMC@Text@ DB 'Text', 00H			; `string'
CONST	ENDS
;	COMDAT ??_C@_0BH@MKOKNAKC@Clipper?3?5Step?$CI?$CJ?3?5End?4?6@
CONST	SEGMENT
??_C@_0BH@MKOKNAKC@Clipper?3?5Step?$CI?$CJ?3?5End?4?6@ DB 'Clipper: Step('
	DB	'): End.', 0aH, 00H				; `string'
CONST	ENDS
;	COMDAT ??_C@_0CE@JEMCBOCJ@Clipper?3?5Step?$CI?$CJ?3?5display?5?$CFd?5to?5@
CONST	SEGMENT
??_C@_0CE@JEMCBOCJ@Clipper?3?5Step?$CI?$CJ?3?5display?5?$CFd?5to?5@ DB 'C'
	DB	'lipper: Step(): display %d to %d.', 0aH, 00H ; `string'
CONST	ENDS
;	COMDAT ??_C@_0CO@DPDPBJBN@Clipper?3?5Step?$CI?$CJ?3?5computed?5Items@
CONST	SEGMENT
??_C@_0CO@DPDPBJBN@Clipper?3?5Step?$CI?$CJ?3?5computed?5Items@ DB 'Clippe'
	DB	'r: Step(): computed ItemsHeight: %.2f.', 0aH, 00H ; `string'
CONST	ENDS
;	COMDAT ??_C@_0CL@INMALPKG@Clipper?3?5Step?$CI?$CJ?3?5inside?5frozen?5@
CONST	SEGMENT
??_C@_0CL@INMALPKG@Clipper?3?5Step?$CI?$CJ?3?5inside?5frozen?5@ DB 'Clipp'
	DB	'er: Step(): inside frozen table row.', 0aH, 00H ; `string'
CONST	ENDS
;	COMDAT ??_C@_0BI@CAOKIKBG@Clipper?3?5End?$CI?$CJ?5in?5?8?$CFs?8?6@
CONST	SEGMENT
??_C@_0BI@CAOKIKBG@Clipper?3?5End?$CI?$CJ?5in?5?8?$CFs?8?6@ DB 'Clipper: '
	DB	'End() in ''%s''', 0aH, 00H			; `string'
CONST	ENDS
;	COMDAT ??_C@_0CB@GNIOCDHI@Clipper?3?5Begin?$CI?$CFd?0?$CF?42f?$CJ?5in?5?8?$CFs?8@
CONST	SEGMENT
??_C@_0CB@GNIOCDHI@Clipper?3?5Begin?$CI?$CFd?0?$CF?42f?$CJ?5in?5?8?$CFs?8@ DB 'C'
	DB	'lipper: Begin(%d,%.2f) in ''%s''', 0aH, 00H	; `string'
CONST	ENDS
;	COMDAT ??_C@_00CNPNBAHC@@
CONST	SEGMENT
??_C@_00CNPNBAHC@@ DB 00H				; `string'
CONST	ENDS
;	COMDAT ??_C@_0O@HCOAADPE@imgui_log?4txt@
CONST	SEGMENT
??_C@_0O@HCOAADPE@imgui_log?4txt@ DB 'imgui_log.txt', 00H ; `string'
CONST	ENDS
;	COMDAT ??_C@_09BJIHMJFE@imgui?4ini@
CONST	SEGMENT
??_C@_09BJIHMJFE@imgui?4ini@ DB 'imgui.ini', 00H	; `string'
CONST	ENDS
;	COMDAT ??_C@_0P@HEMCFMMD@?$CKMissing?5Text?$CK@
CONST	SEGMENT
??_C@_0P@HEMCFMMD@?$CKMissing?5Text?$CK@ DB '*Missing Text*', 00H ; `string'
PUBLIC	??_GImGuiWindow@@QEAAPEAXI@Z			; ImGuiWindow::`scalar deleting destructor'
PUBLIC	??_GImGuiViewportP@@QEAAPEAXI@Z			; ImGuiViewportP::`scalar deleting destructor'
PUBLIC	??_GImFontAtlas@@QEAAPEAXI@Z			; ImFontAtlas::`scalar deleting destructor'
PUBLIC	??1ImGuiContext@@QEAA@XZ			; ImGuiContext::~ImGuiContext
PUBLIC	??_GImGuiContext@@QEAAPEAXI@Z			; ImGuiContext::`scalar deleting destructor'
PUBLIC	??_GImDrawList@@QEAAPEAXI@Z			; ImDrawList::`scalar deleting destructor'
PUBLIC	??$IM_DELETE@UImGuiWindow@@@@YAXPEAUImGuiWindow@@@Z ; IM_DELETE<ImGuiWindow>
PUBLIC	??$IM_DELETE@UImGuiViewportP@@@@YAXPEAUImGuiViewportP@@@Z ; IM_DELETE<ImGuiViewportP>
PUBLIC	??$IM_DELETE@UImFontAtlas@@@@YAXPEAUImFontAtlas@@@Z ; IM_DELETE<ImFontAtlas>
PUBLIC	??$IM_DELETE@UImGuiContext@@@@YAXPEAUImGuiContext@@@Z ; IM_DELETE<ImGuiContext>
PUBLIC	??$IM_DELETE@D@@YAXPEAD@Z			; IM_DELETE<char>
PUBLIC	??$IM_DELETE@UImDrawList@@@@YAXPEAUImDrawList@@@Z ; IM_DELETE<ImDrawList>
PUBLIC	?_grow_capacity@?$ImVector@UImDrawCmd@@@@QEBAHH@Z ; ImVector<ImDrawCmd>::_grow_capacity
PUBLIC	?reserve@?$ImVector@UImDrawCmd@@@@QEAAXH@Z	; ImVector<ImDrawCmd>::reserve
PUBLIC	?_grow_capacity@?$ImVector@G@@QEBAHH@Z		; ImVector<unsigned short>::_grow_capacity
PUBLIC	?_grow_capacity@?$ImVector@D@@QEBAHH@Z		; ImVector<char>::_grow_capacity
PUBLIC	?_grow_capacity@?$ImVector@UImGuiStoragePair@ImGuiStorage@@@@QEBAHH@Z ; ImVector<ImGuiStorage::ImGuiStoragePair>::_grow_capacity
PUBLIC	?reserve@?$ImVector@UImGuiStoragePair@ImGuiStorage@@@@QEAAXH@Z ; ImVector<ImGuiStorage::ImGuiStoragePair>::reserve
PUBLIC	?push_back@?$ImVector@UImDrawCmd@@@@QEAAXAEBUImDrawCmd@@@Z ; ImVector<ImDrawCmd>::push_back
PUBLIC	?insert@?$ImVector@UImDrawCmd@@@@QEAAPEAUImDrawCmd@@PEBU2@AEBU2@@Z ; ImVector<ImDrawCmd>::insert
PUBLIC	?_grow_capacity@?$ImVector@UImVec2@@@@QEBAHH@Z	; ImVector<ImVec2>::_grow_capacity
PUBLIC	?reserve@?$ImVector@UImVec2@@@@QEAAXH@Z		; ImVector<ImVec2>::reserve
PUBLIC	?_grow_capacity@?$ImVector@I@@QEBAHH@Z		; ImVector<unsigned int>::_grow_capacity
PUBLIC	?reserve@?$ImVector@I@@QEAAXH@Z			; ImVector<unsigned int>::reserve
PUBLIC	?_grow_capacity@?$ImVector@PEAUImFont@@@@QEBAHH@Z ; ImVector<ImFont *>::_grow_capacity
PUBLIC	?reserve@?$ImVector@PEAUImFont@@@@QEAAXH@Z	; ImVector<ImFont *>::reserve
PUBLIC	?_grow_capacity@?$ImVector@M@@QEBAHH@Z		; ImVector<float>::_grow_capacity
PUBLIC	?reserve@?$ImVector@M@@QEAAXH@Z			; ImVector<float>::reserve
PUBLIC	?_grow_capacity@?$ImVector@H@@QEBAHH@Z		; ImVector<int>::_grow_capacity
PUBLIC	?reserve@?$ImVector@H@@QEAAXH@Z			; ImVector<int>::reserve
PUBLIC	?_grow_capacity@?$ImVector@PEAUImDrawList@@@@QEBAHH@Z ; ImVector<ImDrawList *>::_grow_capacity
PUBLIC	?reserve@?$ImVector@PEAUImDrawList@@@@QEAAXH@Z	; ImVector<ImDrawList *>::reserve
PUBLIC	?_grow_capacity@?$ImVector@UImGuiKeyRoutingData@@@@QEBAHH@Z ; ImVector<ImGuiKeyRoutingData>::_grow_capacity
PUBLIC	?reserve@?$ImVector@UImGuiKeyRoutingData@@@@QEAAXH@Z ; ImVector<ImGuiKeyRoutingData>::reserve
PUBLIC	?_grow_capacity@?$ImVector@UImGuiStackLevelInfo@@@@QEBAHH@Z ; ImVector<ImGuiStackLevelInfo>::_grow_capacity
PUBLIC	?reserve@?$ImVector@UImGuiStackLevelInfo@@@@QEAAXH@Z ; ImVector<ImGuiStackLevelInfo>::reserve
PUBLIC	?_grow_capacity@?$ImVector@UImGuiInputEvent@@@@QEBAHH@Z ; ImVector<ImGuiInputEvent>::_grow_capacity
PUBLIC	?reserve@?$ImVector@UImGuiInputEvent@@@@QEAAXH@Z ; ImVector<ImGuiInputEvent>::reserve
PUBLIC	?_grow_capacity@?$ImVector@PEAUImGuiWindow@@@@QEBAHH@Z ; ImVector<ImGuiWindow *>::_grow_capacity
PUBLIC	?insert@?$ImVector@PEAUImGuiWindow@@@@QEAAPEAPEAUImGuiWindow@@PEBQEAU2@AEBQEAU2@@Z ; ImVector<ImGuiWindow *>::insert
PUBLIC	?_grow_capacity@?$ImVector@UImGuiWindowStackData@@@@QEBAHH@Z ; ImVector<ImGuiWindowStackData>::_grow_capacity
PUBLIC	?reserve@?$ImVector@UImGuiWindowStackData@@@@QEAAXH@Z ; ImVector<ImGuiWindowStackData>::reserve
PUBLIC	?_grow_capacity@?$ImVector@UImGuiColorMod@@@@QEBAHH@Z ; ImVector<ImGuiColorMod>::_grow_capacity
PUBLIC	?reserve@?$ImVector@UImGuiColorMod@@@@QEAAXH@Z	; ImVector<ImGuiColorMod>::reserve
PUBLIC	?_grow_capacity@?$ImVector@UImGuiStyleMod@@@@QEBAHH@Z ; ImVector<ImGuiStyleMod>::_grow_capacity
PUBLIC	?reserve@?$ImVector@UImGuiStyleMod@@@@QEAAXH@Z	; ImVector<ImGuiStyleMod>::reserve
PUBLIC	?_grow_capacity@?$ImVector@UImGuiGroupData@@@@QEBAHH@Z ; ImVector<ImGuiGroupData>::_grow_capacity
PUBLIC	?reserve@?$ImVector@UImGuiGroupData@@@@QEAAXH@Z	; ImVector<ImGuiGroupData>::reserve
PUBLIC	?_grow_capacity@?$ImVector@UImGuiPopupData@@@@QEBAHH@Z ; ImVector<ImGuiPopupData>::_grow_capacity
PUBLIC	?reserve@?$ImVector@UImGuiPopupData@@@@QEAAXH@Z	; ImVector<ImGuiPopupData>::reserve
PUBLIC	?clear@?$ImVector@PEAUImGuiViewportP@@@@QEAAXXZ	; ImVector<ImGuiViewportP *>::clear
PUBLIC	?_grow_capacity@?$ImVector@PEAUImGuiViewportP@@@@QEBAHH@Z ; ImVector<ImGuiViewportP *>::_grow_capacity
PUBLIC	?reserve@?$ImVector@PEAUImGuiViewportP@@@@QEAAXH@Z ; ImVector<ImGuiViewportP *>::reserve
PUBLIC	?clear@?$ImVector@UImGuiListClipperData@@@@QEAAXXZ ; ImVector<ImGuiListClipperData>::clear
PUBLIC	?clear@?$ImVector@UImGuiTableTempData@@@@QEAAXXZ ; ImVector<ImGuiTableTempData>::clear
PUBLIC	??0?$ImVector@UImGuiTable@@@@QEAA@XZ		; ImVector<ImGuiTable>::ImVector<ImGuiTable>
PUBLIC	??1?$ImVector@UImGuiTable@@@@QEAA@XZ		; ImVector<ImGuiTable>::~ImVector<ImGuiTable>
PUBLIC	?clear@?$ImVector@UImGuiTable@@@@QEAAXXZ	; ImVector<ImGuiTable>::clear
PUBLIC	??A?$ImVector@UImGuiTable@@@@QEAAAEAUImGuiTable@@H@Z ; ImVector<ImGuiTable>::operator[]
PUBLIC	??0?$ImVector@UImGuiTabBar@@@@QEAA@XZ		; ImVector<ImGuiTabBar>::ImVector<ImGuiTabBar>
PUBLIC	??1?$ImVector@UImGuiTabBar@@@@QEAA@XZ		; ImVector<ImGuiTabBar>::~ImVector<ImGuiTabBar>
PUBLIC	?clear@?$ImVector@UImGuiTabBar@@@@QEAAXXZ	; ImVector<ImGuiTabBar>::clear
PUBLIC	??A?$ImVector@UImGuiTabBar@@@@QEAAAEAUImGuiTabBar@@H@Z ; ImVector<ImGuiTabBar>::operator[]
PUBLIC	?_grow_capacity@?$ImVector@UImGuiSettingsHandler@@@@QEBAHH@Z ; ImVector<ImGuiSettingsHandler>::_grow_capacity
PUBLIC	?reserve@?$ImVector@UImGuiSettingsHandler@@@@QEAAXH@Z ; ImVector<ImGuiSettingsHandler>::reserve
PUBLIC	?chunk_size@?$ImChunkStream@UImGuiWindowSettings@@@@QEAAHPEBUImGuiWindowSettings@@@Z ; ImChunkStream<ImGuiWindowSettings>::chunk_size
PUBLIC	?end@?$ImChunkStream@UImGuiWindowSettings@@@@QEAAPEAUImGuiWindowSettings@@XZ ; ImChunkStream<ImGuiWindowSettings>::end
PUBLIC	?chunk_size@?$ImChunkStream@UImGuiTableSettings@@@@QEAAHPEBUImGuiTableSettings@@@Z ; ImChunkStream<ImGuiTableSettings>::chunk_size
PUBLIC	?end@?$ImChunkStream@UImGuiTableSettings@@@@QEAAPEAUImGuiTableSettings@@XZ ; ImChunkStream<ImGuiTableSettings>::end
PUBLIC	?clear@?$ImVector@UImGuiOldColumns@@@@QEAAXXZ	; ImVector<ImGuiOldColumns>::clear
PUBLIC	??1?$ImVector@UImGuiTabItem@@@@QEAA@XZ		; ImVector<ImGuiTabItem>::~ImVector<ImGuiTabItem>
PUBLIC	?ClearAllBits@?$ImBitArray@$0CIM@$0A@@@QEAAXXZ	; ImBitArray<652,0>::ClearAllBits
PUBLIC	??_GImGuiListClipperData@@QEAAPEAXI@Z		; ImGuiListClipperData::`scalar deleting destructor'
PUBLIC	??1ImGuiTableTempData@@QEAA@XZ			; ImGuiTableTempData::~ImGuiTableTempData
PUBLIC	??_GImGuiTableTempData@@QEAAPEAXI@Z		; ImGuiTableTempData::`scalar deleting destructor'
PUBLIC	??_GImGuiTable@@QEAAPEAXI@Z			; ImGuiTable::`scalar deleting destructor'
PUBLIC	??1ImGuiTabBar@@QEAA@XZ				; ImGuiTabBar::~ImGuiTabBar
PUBLIC	??_GImGuiTabBar@@QEAAPEAXI@Z			; ImGuiTabBar::`scalar deleting destructor'
PUBLIC	??1ImGuiOldColumns@@QEAA@XZ			; ImGuiOldColumns::~ImGuiOldColumns
PUBLIC	??_GImGuiOldColumns@@QEAAPEAXI@Z		; ImGuiOldColumns::`scalar deleting destructor'
PUBLIC	??0?$ImVector@G@@QEAA@XZ			; ImVector<unsigned short>::ImVector<unsigned short>
PUBLIC	??1?$ImVector@G@@QEAA@XZ			; ImVector<unsigned short>::~ImVector<unsigned short>
PUBLIC	?clear@?$ImVector@G@@QEAAXXZ			; ImVector<unsigned short>::clear
PUBLIC	??A?$ImVector@G@@QEAAAEAGH@Z			; ImVector<unsigned short>::operator[]
PUBLIC	?resize@?$ImVector@G@@QEAAXH@Z			; ImVector<unsigned short>::resize
PUBLIC	?reserve@?$ImVector@G@@QEAAXH@Z			; ImVector<unsigned short>::reserve
PUBLIC	?push_back@?$ImVector@G@@QEAAXAEBG@Z		; ImVector<unsigned short>::push_back
PUBLIC	??1?$ImVector@UImGuiTextRange@ImGuiTextFilter@@@@QEAA@XZ ; ImVector<ImGuiTextFilter::ImGuiTextRange>::~ImVector<ImGuiTextFilter::ImGuiTextRange>
PUBLIC	??0?$ImVector@D@@QEAA@XZ			; ImVector<char>::ImVector<char>
PUBLIC	??1?$ImVector@D@@QEAA@XZ			; ImVector<char>::~ImVector<char>
PUBLIC	?clear@?$ImVector@D@@QEAAXXZ			; ImVector<char>::clear
PUBLIC	??A?$ImVector@D@@QEAAAEADH@Z			; ImVector<char>::operator[]
PUBLIC	?front@?$ImVector@D@@QEBAAEBDXZ			; ImVector<char>::front
PUBLIC	?resize@?$ImVector@D@@QEAAXH@Z			; ImVector<char>::resize
PUBLIC	?resize@?$ImVector@D@@QEAAXHAEBD@Z		; ImVector<char>::resize
PUBLIC	?reserve@?$ImVector@D@@QEAAXH@Z			; ImVector<char>::reserve
PUBLIC	?push_back@?$ImVector@D@@QEAAXAEBD@Z		; ImVector<char>::push_back
PUBLIC	??0?$ImVector@UImGuiStoragePair@ImGuiStorage@@@@QEAA@XZ ; ImVector<ImGuiStorage::ImGuiStoragePair>::ImVector<ImGuiStorage::ImGuiStoragePair>
PUBLIC	??1?$ImVector@UImGuiStoragePair@ImGuiStorage@@@@QEAA@XZ ; ImVector<ImGuiStorage::ImGuiStoragePair>::~ImVector<ImGuiStorage::ImGuiStoragePair>
PUBLIC	?clear@?$ImVector@UImGuiStoragePair@ImGuiStorage@@@@QEAAXXZ ; ImVector<ImGuiStorage::ImGuiStoragePair>::clear
PUBLIC	??A?$ImVector@UImGuiStoragePair@ImGuiStorage@@@@QEAAAEAUImGuiStoragePair@ImGuiStorage@@H@Z ; ImVector<ImGuiStorage::ImGuiStoragePair>::operator[]
PUBLIC	?end@?$ImVector@UImGuiStoragePair@ImGuiStorage@@@@QEAAPEAUImGuiStoragePair@ImGuiStorage@@XZ ; ImVector<ImGuiStorage::ImGuiStoragePair>::end
PUBLIC	?end@?$ImVector@UImGuiStoragePair@ImGuiStorage@@@@QEBAPEBUImGuiStoragePair@ImGuiStorage@@XZ ; ImVector<ImGuiStorage::ImGuiStoragePair>::end
PUBLIC	?insert@?$ImVector@UImGuiStoragePair@ImGuiStorage@@@@QEAAPEAUImGuiStoragePair@ImGuiStorage@@PEBU23@AEBU23@@Z ; ImVector<ImGuiStorage::ImGuiStoragePair>::insert
PUBLIC	??0?$ImVector@UImDrawCmd@@@@QEAA@XZ		; ImVector<ImDrawCmd>::ImVector<ImDrawCmd>
PUBLIC	??1?$ImVector@UImDrawCmd@@@@QEAA@XZ		; ImVector<ImDrawCmd>::~ImVector<ImDrawCmd>
PUBLIC	??A?$ImVector@UImDrawCmd@@@@QEAAAEAUImDrawCmd@@H@Z ; ImVector<ImDrawCmd>::operator[]
PUBLIC	?back@?$ImVector@UImDrawCmd@@@@QEAAAEAUImDrawCmd@@XZ ; ImVector<ImDrawCmd>::back
PUBLIC	?pop_back@?$ImVector@UImDrawCmd@@@@QEAAXXZ	; ImVector<ImDrawCmd>::pop_back
PUBLIC	?push_front@?$ImVector@UImDrawCmd@@@@QEAAXAEBUImDrawCmd@@@Z ; ImVector<ImDrawCmd>::push_front
PUBLIC	??0?$ImVector@UImDrawChannel@@@@QEAA@XZ		; ImVector<ImDrawChannel>::ImVector<ImDrawChannel>
PUBLIC	??1?$ImVector@UImDrawChannel@@@@QEAA@XZ		; ImVector<ImDrawChannel>::~ImVector<ImDrawChannel>
PUBLIC	?clear@?$ImVector@UImDrawChannel@@@@QEAAXXZ	; ImVector<ImDrawChannel>::clear
PUBLIC	??0?$ImVector@UImDrawVert@@@@QEAA@XZ		; ImVector<ImDrawVert>::ImVector<ImDrawVert>
PUBLIC	??1?$ImVector@UImDrawVert@@@@QEAA@XZ		; ImVector<ImDrawVert>::~ImVector<ImDrawVert>
PUBLIC	?reserve@?$ImVector@UImDrawVert@@@@QEAAXH@Z	; ImVector<ImDrawVert>::reserve
PUBLIC	??0?$ImVector@UImVec4@@@@QEAA@XZ		; ImVector<ImVec4>::ImVector<ImVec4>
PUBLIC	??1?$ImVector@UImVec4@@@@QEAA@XZ		; ImVector<ImVec4>::~ImVector<ImVec4>
PUBLIC	?back@?$ImVector@UImVec4@@@@QEAAAEAUImVec4@@XZ	; ImVector<ImVec4>::back
PUBLIC	??0?$ImVector@PEAX@@QEAA@XZ			; ImVector<void *>::ImVector<void *>
PUBLIC	??1?$ImVector@PEAX@@QEAA@XZ			; ImVector<void *>::~ImVector<void *>
PUBLIC	??0?$ImVector@UImVec2@@@@QEAA@XZ		; ImVector<ImVec2>::ImVector<ImVec2>
PUBLIC	??1?$ImVector@UImVec2@@@@QEAA@XZ		; ImVector<ImVec2>::~ImVector<ImVec2>
PUBLIC	?clear@?$ImVector@UImVec2@@@@QEAAXXZ		; ImVector<ImVec2>::clear
PUBLIC	?push_back@?$ImVector@UImVec2@@@@QEAAXAEBUImVec2@@@Z ; ImVector<ImVec2>::push_back
PUBLIC	??0?$ImVector@I@@QEAA@XZ			; ImVector<unsigned int>::ImVector<unsigned int>
PUBLIC	??1?$ImVector@I@@QEAA@XZ			; ImVector<unsigned int>::~ImVector<unsigned int>
PUBLIC	?clear@?$ImVector@I@@QEAAXXZ			; ImVector<unsigned int>::clear
PUBLIC	??A?$ImVector@I@@QEAAAEAIH@Z			; ImVector<unsigned int>::operator[]
PUBLIC	?back@?$ImVector@I@@QEAAAEAIXZ			; ImVector<unsigned int>::back
PUBLIC	?resize@?$ImVector@I@@QEAAXH@Z			; ImVector<unsigned int>::resize
PUBLIC	?push_back@?$ImVector@I@@QEAAXAEBI@Z		; ImVector<unsigned int>::push_back
PUBLIC	?pop_back@?$ImVector@I@@QEAAXXZ			; ImVector<unsigned int>::pop_back
PUBLIC	??0?$ImVector@PEAUImFont@@@@QEAA@XZ		; ImVector<ImFont *>::ImVector<ImFont *>
PUBLIC	??1?$ImVector@PEAUImFont@@@@QEAA@XZ		; ImVector<ImFont *>::~ImVector<ImFont *>
PUBLIC	?clear@?$ImVector@PEAUImFont@@@@QEAAXXZ		; ImVector<ImFont *>::clear
PUBLIC	?empty@?$ImVector@PEAUImFont@@@@QEBA_NXZ	; ImVector<ImFont *>::empty
PUBLIC	??A?$ImVector@PEAUImFont@@@@QEAAAEAPEAUImFont@@H@Z ; ImVector<ImFont *>::operator[]
PUBLIC	?back@?$ImVector@PEAUImFont@@@@QEAAAEAPEAUImFont@@XZ ; ImVector<ImFont *>::back
PUBLIC	?push_back@?$ImVector@PEAUImFont@@@@QEAAXAEBQEAUImFont@@@Z ; ImVector<ImFont *>::push_back
PUBLIC	?pop_back@?$ImVector@PEAUImFont@@@@QEAAXXZ	; ImVector<ImFont *>::pop_back
PUBLIC	??0?$ImVector@M@@QEAA@XZ			; ImVector<float>::ImVector<float>
PUBLIC	??1?$ImVector@M@@QEAA@XZ			; ImVector<float>::~ImVector<float>
PUBLIC	?clear@?$ImVector@M@@QEAAXXZ			; ImVector<float>::clear
PUBLIC	??A?$ImVector@M@@QEAAAEAMH@Z			; ImVector<float>::operator[]
PUBLIC	?back@?$ImVector@M@@QEAAAEAMXZ			; ImVector<float>::back
PUBLIC	?resize@?$ImVector@M@@QEAAXH@Z			; ImVector<float>::resize
PUBLIC	?pop_back@?$ImVector@M@@QEAAXXZ			; ImVector<float>::pop_back
PUBLIC	??0?$ImVector@H@@QEAA@XZ			; ImVector<int>::ImVector<int>
PUBLIC	??1?$ImVector@H@@QEAA@XZ			; ImVector<int>::~ImVector<int>
PUBLIC	?clear@?$ImVector@H@@QEAAXXZ			; ImVector<int>::clear
PUBLIC	??A?$ImVector@H@@QEAAAEAHH@Z			; ImVector<int>::operator[]
PUBLIC	?back@?$ImVector@H@@QEAAAEAHXZ			; ImVector<int>::back
PUBLIC	?resize@?$ImVector@H@@QEAAXH@Z			; ImVector<int>::resize
PUBLIC	?push_back@?$ImVector@H@@QEAAXAEBH@Z		; ImVector<int>::push_back
PUBLIC	?pop_back@?$ImVector@H@@QEAAXXZ			; ImVector<int>::pop_back
PUBLIC	??0?$ImVector@PEAUImDrawList@@@@QEAA@XZ		; ImVector<ImDrawList *>::ImVector<ImDrawList *>
PUBLIC	??1?$ImVector@PEAUImDrawList@@@@QEAA@XZ		; ImVector<ImDrawList *>::~ImVector<ImDrawList *>
PUBLIC	?empty@?$ImVector@PEAUImDrawList@@@@QEBA_NXZ	; ImVector<ImDrawList *>::empty
PUBLIC	??A?$ImVector@PEAUImDrawList@@@@QEAAAEAPEAUImDrawList@@H@Z ; ImVector<ImDrawList *>::operator[]
PUBLIC	?resize@?$ImVector@PEAUImDrawList@@@@QEAAXH@Z	; ImVector<ImDrawList *>::resize
PUBLIC	?push_back@?$ImVector@PEAUImDrawList@@@@QEAAXAEBQEAUImDrawList@@@Z ; ImVector<ImDrawList *>::push_back
PUBLIC	??0?$ImVector@UImGuiKeyRoutingData@@@@QEAA@XZ	; ImVector<ImGuiKeyRoutingData>::ImVector<ImGuiKeyRoutingData>
PUBLIC	??1?$ImVector@UImGuiKeyRoutingData@@@@QEAA@XZ	; ImVector<ImGuiKeyRoutingData>::~ImVector<ImGuiKeyRoutingData>
PUBLIC	?clear@?$ImVector@UImGuiKeyRoutingData@@@@QEAAXXZ ; ImVector<ImGuiKeyRoutingData>::clear
PUBLIC	??A?$ImVector@UImGuiKeyRoutingData@@@@QEAAAEAUImGuiKeyRoutingData@@H@Z ; ImVector<ImGuiKeyRoutingData>::operator[]
PUBLIC	?swap@?$ImVector@UImGuiKeyRoutingData@@@@QEAAXAEAU1@@Z ; ImVector<ImGuiKeyRoutingData>::swap
PUBLIC	?resize@?$ImVector@UImGuiKeyRoutingData@@@@QEAAXH@Z ; ImVector<ImGuiKeyRoutingData>::resize
PUBLIC	?push_back@?$ImVector@UImGuiKeyRoutingData@@@@QEAAXAEBUImGuiKeyRoutingData@@@Z ; ImVector<ImGuiKeyRoutingData>::push_back
PUBLIC	??1?$ImVector@UImGuiListClipperRange@@@@QEAA@XZ	; ImVector<ImGuiListClipperRange>::~ImVector<ImGuiListClipperRange>
PUBLIC	??1?$ImVector@UImGuiOldColumnData@@@@QEAA@XZ	; ImVector<ImGuiOldColumnData>::~ImVector<ImGuiOldColumnData>
PUBLIC	??A?$ImVector@UImGuiOldColumnData@@@@QEAAAEAUImGuiOldColumnData@@H@Z ; ImVector<ImGuiOldColumnData>::operator[]
PUBLIC	??0?$ImVector@UImGuiStackLevelInfo@@@@QEAA@XZ	; ImVector<ImGuiStackLevelInfo>::ImVector<ImGuiStackLevelInfo>
PUBLIC	??1?$ImVector@UImGuiStackLevelInfo@@@@QEAA@XZ	; ImVector<ImGuiStackLevelInfo>::~ImVector<ImGuiStackLevelInfo>
PUBLIC	??A?$ImVector@UImGuiStackLevelInfo@@@@QEAAAEAUImGuiStackLevelInfo@@H@Z ; ImVector<ImGuiStackLevelInfo>::operator[]
PUBLIC	?resize@?$ImVector@UImGuiStackLevelInfo@@@@QEAAXH@Z ; ImVector<ImGuiStackLevelInfo>::resize
PUBLIC	?resize@?$ImVector@UImGuiStackLevelInfo@@@@QEAAXHAEBUImGuiStackLevelInfo@@@Z ; ImVector<ImGuiStackLevelInfo>::resize
PUBLIC	??0?$ImVector@UImGuiInputEvent@@@@QEAA@XZ	; ImVector<ImGuiInputEvent>::ImVector<ImGuiInputEvent>
PUBLIC	??1?$ImVector@UImGuiInputEvent@@@@QEAA@XZ	; ImVector<ImGuiInputEvent>::~ImVector<ImGuiInputEvent>
PUBLIC	??A?$ImVector@UImGuiInputEvent@@@@QEAAAEAUImGuiInputEvent@@H@Z ; ImVector<ImGuiInputEvent>::operator[]
PUBLIC	?resize@?$ImVector@UImGuiInputEvent@@@@QEAAXH@Z	; ImVector<ImGuiInputEvent>::resize
PUBLIC	?push_back@?$ImVector@UImGuiInputEvent@@@@QEAAXAEBUImGuiInputEvent@@@Z ; ImVector<ImGuiInputEvent>::push_back
PUBLIC	?erase@?$ImVector@UImGuiInputEvent@@@@QEAAPEAUImGuiInputEvent@@PEBU2@0@Z ; ImVector<ImGuiInputEvent>::erase
PUBLIC	??0?$ImVector@PEAUImGuiWindow@@@@QEAA@XZ	; ImVector<ImGuiWindow *>::ImVector<ImGuiWindow *>
PUBLIC	??1?$ImVector@PEAUImGuiWindow@@@@QEAA@XZ	; ImVector<ImGuiWindow *>::~ImVector<ImGuiWindow *>
PUBLIC	?clear@?$ImVector@PEAUImGuiWindow@@@@QEAAXXZ	; ImVector<ImGuiWindow *>::clear
PUBLIC	?clear_delete@?$ImVector@PEAUImGuiWindow@@@@QEAAXXZ ; ImVector<ImGuiWindow *>::clear_delete
PUBLIC	??A?$ImVector@PEAUImGuiWindow@@@@QEAAAEAPEAUImGuiWindow@@H@Z ; ImVector<ImGuiWindow *>::operator[]
PUBLIC	?back@?$ImVector@PEAUImGuiWindow@@@@QEAAAEAPEAUImGuiWindow@@XZ ; ImVector<ImGuiWindow *>::back
PUBLIC	?swap@?$ImVector@PEAUImGuiWindow@@@@QEAAXAEAU1@@Z ; ImVector<ImGuiWindow *>::swap
PUBLIC	?resize@?$ImVector@PEAUImGuiWindow@@@@QEAAXH@Z	; ImVector<ImGuiWindow *>::resize
PUBLIC	?reserve@?$ImVector@PEAUImGuiWindow@@@@QEAAXH@Z	; ImVector<ImGuiWindow *>::reserve
PUBLIC	?push_back@?$ImVector@PEAUImGuiWindow@@@@QEAAXAEBQEAUImGuiWindow@@@Z ; ImVector<ImGuiWindow *>::push_back
PUBLIC	?push_front@?$ImVector@PEAUImGuiWindow@@@@QEAAXAEBQEAUImGuiWindow@@@Z ; ImVector<ImGuiWindow *>::push_front
PUBLIC	?erase@?$ImVector@PEAUImGuiWindow@@@@QEAAPEAPEAUImGuiWindow@@PEBQEAU2@@Z ; ImVector<ImGuiWindow *>::erase
PUBLIC	?find@?$ImVector@PEAUImGuiWindow@@@@QEAAPEAPEAUImGuiWindow@@AEBQEAU2@@Z ; ImVector<ImGuiWindow *>::find
PUBLIC	?index_from_ptr@?$ImVector@PEAUImGuiWindow@@@@QEBAHPEBQEAUImGuiWindow@@@Z ; ImVector<ImGuiWindow *>::index_from_ptr
PUBLIC	??0?$ImVector@UImGuiWindowStackData@@@@QEAA@XZ	; ImVector<ImGuiWindowStackData>::ImVector<ImGuiWindowStackData>
PUBLIC	??1?$ImVector@UImGuiWindowStackData@@@@QEAA@XZ	; ImVector<ImGuiWindowStackData>::~ImVector<ImGuiWindowStackData>
PUBLIC	?clear@?$ImVector@UImGuiWindowStackData@@@@QEAAXXZ ; ImVector<ImGuiWindowStackData>::clear
PUBLIC	?empty@?$ImVector@UImGuiWindowStackData@@@@QEBA_NXZ ; ImVector<ImGuiWindowStackData>::empty
PUBLIC	??A?$ImVector@UImGuiWindowStackData@@@@QEAAAEAUImGuiWindowStackData@@H@Z ; ImVector<ImGuiWindowStackData>::operator[]
PUBLIC	?back@?$ImVector@UImGuiWindowStackData@@@@QEAAAEAUImGuiWindowStackData@@XZ ; ImVector<ImGuiWindowStackData>::back
PUBLIC	?resize@?$ImVector@UImGuiWindowStackData@@@@QEAAXH@Z ; ImVector<ImGuiWindowStackData>::resize
PUBLIC	?push_back@?$ImVector@UImGuiWindowStackData@@@@QEAAXAEBUImGuiWindowStackData@@@Z ; ImVector<ImGuiWindowStackData>::push_back
PUBLIC	?pop_back@?$ImVector@UImGuiWindowStackData@@@@QEAAXXZ ; ImVector<ImGuiWindowStackData>::pop_back
PUBLIC	??0?$ImVector@UImGuiColorMod@@@@QEAA@XZ		; ImVector<ImGuiColorMod>::ImVector<ImGuiColorMod>
PUBLIC	??1?$ImVector@UImGuiColorMod@@@@QEAA@XZ		; ImVector<ImGuiColorMod>::~ImVector<ImGuiColorMod>
PUBLIC	?clear@?$ImVector@UImGuiColorMod@@@@QEAAXXZ	; ImVector<ImGuiColorMod>::clear
PUBLIC	?back@?$ImVector@UImGuiColorMod@@@@QEAAAEAUImGuiColorMod@@XZ ; ImVector<ImGuiColorMod>::back
PUBLIC	?push_back@?$ImVector@UImGuiColorMod@@@@QEAAXAEBUImGuiColorMod@@@Z ; ImVector<ImGuiColorMod>::push_back
PUBLIC	?pop_back@?$ImVector@UImGuiColorMod@@@@QEAAXXZ	; ImVector<ImGuiColorMod>::pop_back
PUBLIC	??0?$ImVector@UImGuiStyleMod@@@@QEAA@XZ		; ImVector<ImGuiStyleMod>::ImVector<ImGuiStyleMod>
PUBLIC	??1?$ImVector@UImGuiStyleMod@@@@QEAA@XZ		; ImVector<ImGuiStyleMod>::~ImVector<ImGuiStyleMod>
PUBLIC	?clear@?$ImVector@UImGuiStyleMod@@@@QEAAXXZ	; ImVector<ImGuiStyleMod>::clear
PUBLIC	?back@?$ImVector@UImGuiStyleMod@@@@QEAAAEAUImGuiStyleMod@@XZ ; ImVector<ImGuiStyleMod>::back
PUBLIC	?push_back@?$ImVector@UImGuiStyleMod@@@@QEAAXAEBUImGuiStyleMod@@@Z ; ImVector<ImGuiStyleMod>::push_back
PUBLIC	?pop_back@?$ImVector@UImGuiStyleMod@@@@QEAAXXZ	; ImVector<ImGuiStyleMod>::pop_back
PUBLIC	??0?$ImVector@UImGuiGroupData@@@@QEAA@XZ	; ImVector<ImGuiGroupData>::ImVector<ImGuiGroupData>
PUBLIC	??1?$ImVector@UImGuiGroupData@@@@QEAA@XZ	; ImVector<ImGuiGroupData>::~ImVector<ImGuiGroupData>
PUBLIC	?clear@?$ImVector@UImGuiGroupData@@@@QEAAXXZ	; ImVector<ImGuiGroupData>::clear
PUBLIC	?back@?$ImVector@UImGuiGroupData@@@@QEAAAEAUImGuiGroupData@@XZ ; ImVector<ImGuiGroupData>::back
PUBLIC	?resize@?$ImVector@UImGuiGroupData@@@@QEAAXH@Z	; ImVector<ImGuiGroupData>::resize
PUBLIC	?pop_back@?$ImVector@UImGuiGroupData@@@@QEAAXXZ	; ImVector<ImGuiGroupData>::pop_back
PUBLIC	??0?$ImVector@UImGuiPopupData@@@@QEAA@XZ	; ImVector<ImGuiPopupData>::ImVector<ImGuiPopupData>
PUBLIC	??1?$ImVector@UImGuiPopupData@@@@QEAA@XZ	; ImVector<ImGuiPopupData>::~ImVector<ImGuiPopupData>
PUBLIC	?clear@?$ImVector@UImGuiPopupData@@@@QEAAXXZ	; ImVector<ImGuiPopupData>::clear
PUBLIC	??A?$ImVector@UImGuiPopupData@@@@QEAAAEAUImGuiPopupData@@H@Z ; ImVector<ImGuiPopupData>::operator[]
PUBLIC	?back@?$ImVector@UImGuiPopupData@@@@QEAAAEAUImGuiPopupData@@XZ ; ImVector<ImGuiPopupData>::back
PUBLIC	?resize@?$ImVector@UImGuiPopupData@@@@QEAAXH@Z	; ImVector<ImGuiPopupData>::resize
PUBLIC	?push_back@?$ImVector@UImGuiPopupData@@@@QEAAXAEBUImGuiPopupData@@@Z ; ImVector<ImGuiPopupData>::push_back
PUBLIC	?pop_back@?$ImVector@UImGuiPopupData@@@@QEAAXXZ	; ImVector<ImGuiPopupData>::pop_back
PUBLIC	??0?$ImVector@PEAUImGuiViewportP@@@@QEAA@XZ	; ImVector<ImGuiViewportP *>::ImVector<ImGuiViewportP *>
PUBLIC	??1?$ImVector@PEAUImGuiViewportP@@@@QEAA@XZ	; ImVector<ImGuiViewportP *>::~ImVector<ImGuiViewportP *>
PUBLIC	?clear_delete@?$ImVector@PEAUImGuiViewportP@@@@QEAAXXZ ; ImVector<ImGuiViewportP *>::clear_delete
PUBLIC	??A?$ImVector@PEAUImGuiViewportP@@@@QEAAAEAPEAUImGuiViewportP@@H@Z ; ImVector<ImGuiViewportP *>::operator[]
PUBLIC	?push_back@?$ImVector@PEAUImGuiViewportP@@@@QEAAXAEBQEAUImGuiViewportP@@@Z ; ImVector<ImGuiViewportP *>::push_back
PUBLIC	??0?$ImVector@E@@QEAA@XZ			; ImVector<unsigned char>::ImVector<unsigned char>
PUBLIC	??1?$ImVector@E@@QEAA@XZ			; ImVector<unsigned char>::~ImVector<unsigned char>
PUBLIC	?clear@?$ImVector@E@@QEAAXXZ			; ImVector<unsigned char>::clear
PUBLIC	??0?$ImVector@UImGuiListClipperData@@@@QEAA@XZ	; ImVector<ImGuiListClipperData>::ImVector<ImGuiListClipperData>
PUBLIC	??1?$ImVector@UImGuiListClipperData@@@@QEAA@XZ	; ImVector<ImGuiListClipperData>::~ImVector<ImGuiListClipperData>
PUBLIC	?clear_destruct@?$ImVector@UImGuiListClipperData@@@@QEAAXXZ ; ImVector<ImGuiListClipperData>::clear_destruct
PUBLIC	??A?$ImVector@UImGuiListClipperData@@@@QEAAAEAUImGuiListClipperData@@H@Z ; ImVector<ImGuiListClipperData>::operator[]
PUBLIC	??0?$ImVector@UImGuiTableTempData@@@@QEAA@XZ	; ImVector<ImGuiTableTempData>::ImVector<ImGuiTableTempData>
PUBLIC	??1?$ImVector@UImGuiTableTempData@@@@QEAA@XZ	; ImVector<ImGuiTableTempData>::~ImVector<ImGuiTableTempData>
PUBLIC	?clear_destruct@?$ImVector@UImGuiTableTempData@@@@QEAAXXZ ; ImVector<ImGuiTableTempData>::clear_destruct
PUBLIC	??A?$ImVector@UImGuiTableTempData@@@@QEAAAEAUImGuiTableTempData@@H@Z ; ImVector<ImGuiTableTempData>::operator[]
PUBLIC	??0?$ImPool@UImGuiTable@@@@QEAA@XZ		; ImPool<ImGuiTable>::ImPool<ImGuiTable>
PUBLIC	??1?$ImPool@UImGuiTable@@@@QEAA@XZ		; ImPool<ImGuiTable>::~ImPool<ImGuiTable>
PUBLIC	?GetByIndex@?$ImPool@UImGuiTable@@@@QEAAPEAUImGuiTable@@H@Z ; ImPool<ImGuiTable>::GetByIndex
PUBLIC	?Clear@?$ImPool@UImGuiTable@@@@QEAAXXZ		; ImPool<ImGuiTable>::Clear
PUBLIC	?GetMapSize@?$ImPool@UImGuiTable@@@@QEBAHXZ	; ImPool<ImGuiTable>::GetMapSize
PUBLIC	?TryGetMapData@?$ImPool@UImGuiTable@@@@QEAAPEAUImGuiTable@@H@Z ; ImPool<ImGuiTable>::TryGetMapData
PUBLIC	??0?$ImPool@UImGuiTabBar@@@@QEAA@XZ		; ImPool<ImGuiTabBar>::ImPool<ImGuiTabBar>
PUBLIC	??1?$ImPool@UImGuiTabBar@@@@QEAA@XZ		; ImPool<ImGuiTabBar>::~ImPool<ImGuiTabBar>
PUBLIC	?Clear@?$ImPool@UImGuiTabBar@@@@QEAAXXZ		; ImPool<ImGuiTabBar>::Clear
PUBLIC	??0?$ImVector@UImGuiPtrOrIndex@@@@QEAA@XZ	; ImVector<ImGuiPtrOrIndex>::ImVector<ImGuiPtrOrIndex>
PUBLIC	??1?$ImVector@UImGuiPtrOrIndex@@@@QEAA@XZ	; ImVector<ImGuiPtrOrIndex>::~ImVector<ImGuiPtrOrIndex>
PUBLIC	?clear@?$ImVector@UImGuiPtrOrIndex@@@@QEAAXXZ	; ImVector<ImGuiPtrOrIndex>::clear
PUBLIC	??0?$ImVector@UImGuiShrinkWidthItem@@@@QEAA@XZ	; ImVector<ImGuiShrinkWidthItem>::ImVector<ImGuiShrinkWidthItem>
PUBLIC	??1?$ImVector@UImGuiShrinkWidthItem@@@@QEAA@XZ	; ImVector<ImGuiShrinkWidthItem>::~ImVector<ImGuiShrinkWidthItem>
PUBLIC	?clear@?$ImVector@UImGuiShrinkWidthItem@@@@QEAAXXZ ; ImVector<ImGuiShrinkWidthItem>::clear
PUBLIC	??0?$ImVector@UImGuiSettingsHandler@@@@QEAA@XZ	; ImVector<ImGuiSettingsHandler>::ImVector<ImGuiSettingsHandler>
PUBLIC	??1?$ImVector@UImGuiSettingsHandler@@@@QEAA@XZ	; ImVector<ImGuiSettingsHandler>::~ImVector<ImGuiSettingsHandler>
PUBLIC	?clear@?$ImVector@UImGuiSettingsHandler@@@@QEAAXXZ ; ImVector<ImGuiSettingsHandler>::clear
PUBLIC	??A?$ImVector@UImGuiSettingsHandler@@@@QEAAAEAUImGuiSettingsHandler@@H@Z ; ImVector<ImGuiSettingsHandler>::operator[]
PUBLIC	?push_back@?$ImVector@UImGuiSettingsHandler@@@@QEAAXAEBUImGuiSettingsHandler@@@Z ; ImVector<ImGuiSettingsHandler>::push_back
PUBLIC	?clear@?$ImChunkStream@UImGuiWindowSettings@@@@QEAAXXZ ; ImChunkStream<ImGuiWindowSettings>::clear
PUBLIC	?size@?$ImChunkStream@UImGuiWindowSettings@@@@QEBAHXZ ; ImChunkStream<ImGuiWindowSettings>::size
PUBLIC	?alloc_chunk@?$ImChunkStream@UImGuiWindowSettings@@@@QEAAPEAUImGuiWindowSettings@@_K@Z ; ImChunkStream<ImGuiWindowSettings>::alloc_chunk
PUBLIC	?begin@?$ImChunkStream@UImGuiWindowSettings@@@@QEAAPEAUImGuiWindowSettings@@XZ ; ImChunkStream<ImGuiWindowSettings>::begin
PUBLIC	?next_chunk@?$ImChunkStream@UImGuiWindowSettings@@@@QEAAPEAUImGuiWindowSettings@@PEAU2@@Z ; ImChunkStream<ImGuiWindowSettings>::next_chunk
PUBLIC	?offset_from_ptr@?$ImChunkStream@UImGuiWindowSettings@@@@QEAAHPEBUImGuiWindowSettings@@@Z ; ImChunkStream<ImGuiWindowSettings>::offset_from_ptr
PUBLIC	?ptr_from_offset@?$ImChunkStream@UImGuiWindowSettings@@@@QEAAPEAUImGuiWindowSettings@@H@Z ; ImChunkStream<ImGuiWindowSettings>::ptr_from_offset
PUBLIC	?begin@?$ImChunkStream@UImGuiTableSettings@@@@QEAAPEAUImGuiTableSettings@@XZ ; ImChunkStream<ImGuiTableSettings>::begin
PUBLIC	?next_chunk@?$ImChunkStream@UImGuiTableSettings@@@@QEAAPEAUImGuiTableSettings@@PEAU2@@Z ; ImChunkStream<ImGuiTableSettings>::next_chunk
PUBLIC	??0?$ImVector@UImGuiContextHook@@@@QEAA@XZ	; ImVector<ImGuiContextHook>::ImVector<ImGuiContextHook>
PUBLIC	??1?$ImVector@UImGuiContextHook@@@@QEAA@XZ	; ImVector<ImGuiContextHook>::~ImVector<ImGuiContextHook>
PUBLIC	??A?$ImVector@UImGuiContextHook@@@@QEAAAEAUImGuiContextHook@@H@Z ; ImVector<ImGuiContextHook>::operator[]
PUBLIC	?erase@?$ImVector@UImGuiContextHook@@@@QEAAPEAUImGuiContextHook@@PEBU2@@Z ; ImVector<ImGuiContextHook>::erase
PUBLIC	??0?$ImVector@UImGuiOldColumns@@@@QEAA@XZ	; ImVector<ImGuiOldColumns>::ImVector<ImGuiOldColumns>
PUBLIC	??1?$ImVector@UImGuiOldColumns@@@@QEAA@XZ	; ImVector<ImGuiOldColumns>::~ImVector<ImGuiOldColumns>
PUBLIC	?clear_destruct@?$ImVector@UImGuiOldColumns@@@@QEAAXXZ ; ImVector<ImGuiOldColumns>::clear_destruct
PUBLIC	??A?$ImSpan@UImGuiTableColumn@@@@QEAAAEAUImGuiTableColumn@@H@Z ; ImSpan<ImGuiTableColumn>::operator[]
PUBLIC	??1?$ImVector@UImGuiTableInstanceData@@@@QEAA@XZ ; ImVector<ImGuiTableInstanceData>::~ImVector<ImGuiTableInstanceData>
PUBLIC	??A?$ImVector@UImGuiTableInstanceData@@@@QEAAAEAUImGuiTableInstanceData@@H@Z ; ImVector<ImGuiTableInstanceData>::operator[]
PUBLIC	??1?$ImVector@UImGuiTableColumnSortSpecs@@@@QEAA@XZ ; ImVector<ImGuiTableColumnSortSpecs>::~ImVector<ImGuiTableColumnSortSpecs>
PUBLIC	??0?$ImBitArray@$0CIM@$0A@@@QEAA@XZ		; ImBitArray<652,0>::ImBitArray<652,0>
PUBLIC	?TestBit@?$ImBitArray@$0CIM@$0A@@@QEBA_NH@Z	; ImBitArray<652,0>::TestBit
PUBLIC	?SetBit@?$ImBitArray@$0CIM@$0A@@@QEAAXH@Z	; ImBitArray<652,0>::SetBit
PUBLIC	?DebugHookIdInfo@ImGui@@YAXIHPEBX0@Z		; ImGui::DebugHookIdInfo
PUBLIC	?DebugLocateItemResolveWithLastItem@ImGui@@YAXXZ ; ImGui::DebugLocateItemResolveWithLastItem
PUBLIC	?DebugLogV@ImGui@@YAXPEBDPEAD@Z			; ImGui::DebugLogV
PUBLIC	?DebugLog@ImGui@@YAXPEBDZZ			; ImGui::DebugLog
PUBLIC	?SetWindowViewport@ImGui@@YAXPEAUImGuiWindow@@PEAUImGuiViewportP@@@Z ; ImGui::SetWindowViewport
PUBLIC	?GetMainViewport@ImGui@@YAPEAUImGuiViewport@@XZ	; ImGui::GetMainViewport
PUBLIC	?LocalizeRegisterEntries@ImGui@@YAXPEBUImGuiLocEntry@@H@Z ; ImGui::LocalizeRegisterEntries
PUBLIC	?SaveIniSettingsToMemory@ImGui@@YAPEBDPEA_K@Z	; ImGui::SaveIniSettingsToMemory
PUBLIC	?SaveIniSettingsToDisk@ImGui@@YAXPEBD@Z		; ImGui::SaveIniSettingsToDisk
PUBLIC	?LoadIniSettingsFromMemory@ImGui@@YAXPEBD_K@Z	; ImGui::LoadIniSettingsFromMemory
PUBLIC	?LoadIniSettingsFromDisk@ImGui@@YAXPEBD@Z	; ImGui::LoadIniSettingsFromDisk
PUBLIC	?FindSettingsHandler@ImGui@@YAPEAUImGuiSettingsHandler@@PEBD@Z ; ImGui::FindSettingsHandler
PUBLIC	?AddSettingsHandler@ImGui@@YAXPEBUImGuiSettingsHandler@@@Z ; ImGui::AddSettingsHandler
PUBLIC	?FindOrCreateWindowSettings@ImGui@@YAPEAUImGuiWindowSettings@@PEBD@Z ; ImGui::FindOrCreateWindowSettings
PUBLIC	?FindWindowSettings@ImGui@@YAPEAUImGuiWindowSettings@@I@Z ; ImGui::FindWindowSettings
PUBLIC	?CreateNewWindowSettings@ImGui@@YAPEAUImGuiWindowSettings@@PEBD@Z ; ImGui::CreateNewWindowSettings
PUBLIC	?MarkIniSettingsDirty@ImGui@@YAXPEAUImGuiWindow@@@Z ; ImGui::MarkIniSettingsDirty
PUBLIC	?LogFinish@ImGui@@YAXXZ				; ImGui::LogFinish
PUBLIC	?LogSetNextTextDecoration@ImGui@@YAXPEBD0@Z	; ImGui::LogSetNextTextDecoration
PUBLIC	?LogRenderedText@ImGui@@YAXPEBUImVec2@@PEBD1@Z	; ImGui::LogRenderedText
PUBLIC	?LogText@ImGui@@YAXPEBDZZ			; ImGui::LogText
PUBLIC	?ClearDragDrop@ImGui@@YAXXZ			; ImGui::ClearDragDrop
PUBLIC	?NavMoveRequestApplyResult@ImGui@@YAXXZ		; ImGui::NavMoveRequestApplyResult
PUBLIC	?NavInitRequestApplyResult@ImGui@@YAXXZ		; ImGui::NavInitRequestApplyResult
PUBLIC	?GetNavTweakPressedAmount@ImGui@@YAMW4ImGuiAxis@@@Z ; ImGui::GetNavTweakPressedAmount
PUBLIC	?NavInitWindow@ImGui@@YAXPEAUImGuiWindow@@_N@Z	; ImGui::NavInitWindow
PUBLIC	?NavMoveRequestForward@ImGui@@YAXHHHH@Z		; ImGui::NavMoveRequestForward
PUBLIC	?NavMoveRequestCancel@ImGui@@YAXXZ		; ImGui::NavMoveRequestCancel
PUBLIC	?NavMoveRequestResolveWithLastItem@ImGui@@YAXPEAUImGuiNavItemData@@@Z ; ImGui::NavMoveRequestResolveWithLastItem
PUBLIC	?NavMoveRequestSubmit@ImGui@@YAXHHHH@Z		; ImGui::NavMoveRequestSubmit
PUBLIC	?NavMoveRequestButNoResultYet@ImGui@@YA_NXZ	; ImGui::NavMoveRequestButNoResultYet
PUBLIC	?ImGetDirQuadrantFromDelta@@YAHMM@Z		; ImGetDirQuadrantFromDelta
PUBLIC	?SetFocusID@ImGui@@YAXIPEAUImGuiWindow@@@Z	; ImGui::SetFocusID
PUBLIC	?SetNavID@ImGui@@YAXIW4ImGuiNavLayer@@IAEBUImRect@@@Z ; ImGui::SetNavID
PUBLIC	?SetNavWindow@ImGui@@YAXPEAUImGuiWindow@@@Z	; ImGui::SetNavWindow
PUBLIC	?FindBestWindowPosForPopup@ImGui@@YA?AUImVec2@@PEAUImGuiWindow@@@Z ; ImGui::FindBestWindowPosForPopup
PUBLIC	?GetPopupAllowedExtentRect@ImGui@@YA?AUImRect@@PEAUImGuiWindow@@@Z ; ImGui::GetPopupAllowedExtentRect
PUBLIC	?FindBestWindowPosForPopupEx@ImGui@@YA?AUImVec2@@AEBU2@0PEAHAEBUImRect@@2W4ImGuiPopupPositionPolicy@@@Z ; ImGui::FindBestWindowPosForPopupEx
PUBLIC	?CloseCurrentPopup@ImGui@@YAXXZ			; ImGui::CloseCurrentPopup
PUBLIC	?ClosePopupToLevel@ImGui@@YAXH_N@Z		; ImGui::ClosePopupToLevel
PUBLIC	?ClosePopupsOverWindow@ImGui@@YAXPEAUImGuiWindow@@_N@Z ; ImGui::ClosePopupsOverWindow
PUBLIC	?GetTopMostAndVisiblePopupModal@ImGui@@YAPEAUImGuiWindow@@XZ ; ImGui::GetTopMostAndVisiblePopupModal
PUBLIC	?GetTopMostPopupModal@ImGui@@YAPEAUImGuiWindow@@XZ ; ImGui::GetTopMostPopupModal
PUBLIC	?IsPopupOpen@ImGui@@YA_NIH@Z			; ImGui::IsPopupOpen
PUBLIC	?SetTooltip@ImGui@@YAXPEBDZZ			; ImGui::SetTooltip
PUBLIC	?SetTooltipV@ImGui@@YAXPEBDPEAD@Z		; ImGui::SetTooltipV
PUBLIC	?EndTooltip@ImGui@@YAXXZ			; ImGui::EndTooltip
PUBLIC	?BeginTooltipEx@ImGui@@YAXHH@Z			; ImGui::BeginTooltipEx
PUBLIC	?BeginTooltip@ImGui@@YAXXZ			; ImGui::BeginTooltip
PUBLIC	?SetScrollFromPosY@ImGui@@YAXPEAUImGuiWindow@@MM@Z ; ImGui::SetScrollFromPosY
PUBLIC	?SetScrollFromPosX@ImGui@@YAXPEAUImGuiWindow@@MM@Z ; ImGui::SetScrollFromPosX
PUBLIC	?SetScrollY@ImGui@@YAXPEAUImGuiWindow@@M@Z	; ImGui::SetScrollY
PUBLIC	?SetScrollX@ImGui@@YAXPEAUImGuiWindow@@M@Z	; ImGui::SetScrollX
PUBLIC	?GetScrollMaxY@ImGui@@YAMXZ			; ImGui::GetScrollMaxY
PUBLIC	?ScrollToRectEx@ImGui@@YA?AUImVec2@@PEAUImGuiWindow@@AEBUImRect@@H@Z ; ImGui::ScrollToRectEx
PUBLIC	?EndGroup@ImGui@@YAXXZ				; ImGui::EndGroup
PUBLIC	?BeginGroup@ImGui@@YAXXZ			; ImGui::BeginGroup
PUBLIC	?GetContentRegionAvail@ImGui@@YA?AUImVec2@@XZ	; ImGui::GetContentRegionAvail
PUBLIC	?GetContentRegionMaxAbs@ImGui@@YA?AUImVec2@@XZ	; ImGui::GetContentRegionMaxAbs
PUBLIC	?GetFrameHeight@ImGui@@YAMXZ			; ImGui::GetFrameHeight
PUBLIC	?GetTextLineHeight@ImGui@@YAMXZ			; ImGui::GetTextLineHeight
PUBLIC	?CalcItemSize@ImGui@@YA?AUImVec2@@U2@MM@Z	; ImGui::CalcItemSize
PUBLIC	?CalcItemWidth@ImGui@@YAMXZ			; ImGui::CalcItemWidth
PUBLIC	?PopItemWidth@ImGui@@YAXXZ			; ImGui::PopItemWidth
PUBLIC	?SameLine@ImGui@@YAXMM@Z			; ImGui::SameLine
PUBLIC	?ItemAdd@ImGui@@YA_NAEBUImRect@@IPEBU2@H@Z	; ImGui::ItemAdd
PUBLIC	?ItemSize@ImGui@@YAXAEBUImVec2@@M@Z		; ImGui::ItemSize
PUBLIC	?CompareWithCurrentState@ImGuiStackSizes@@QEAAXXZ ; ImGuiStackSizes::CompareWithCurrentState
PUBLIC	?SetToCurrentState@ImGuiStackSizes@@QEAAXXZ	; ImGuiStackSizes::SetToCurrentState
PUBLIC	?ErrorCheckUsingSetCursorPosToExtendParentBoundaries@ImGui@@YAXXZ ; ImGui::ErrorCheckUsingSetCursorPosToExtendParentBoundaries
PUBLIC	?Shortcut@ImGui@@YA_NHIH@Z			; ImGui::Shortcut
PUBLIC	?SetKeyOwner@ImGui@@YAXW4ImGuiKey@@IH@Z		; ImGui::SetKeyOwner
PUBLIC	?TestKeyOwner@ImGui@@YA_NW4ImGuiKey@@I@Z	; ImGui::TestKeyOwner
PUBLIC	?UpdateInputEvents@ImGui@@YAX_N@Z		; ImGui::UpdateInputEvents
PUBLIC	?SetMouseCursor@ImGui@@YAXH@Z			; ImGui::SetMouseCursor
PUBLIC	?GetMouseCursor@ImGui@@YAHXZ			; ImGui::GetMouseCursor
PUBLIC	?IsMousePosValid@ImGui@@YA_NPEBUImVec2@@@Z	; ImGui::IsMousePosValid
PUBLIC	?IsMouseDragging@ImGui@@YA_NHM@Z		; ImGui::IsMouseDragging
PUBLIC	?IsMouseDragPastThreshold@ImGui@@YA_NHM@Z	; ImGui::IsMouseDragPastThreshold
PUBLIC	?IsMouseReleased@ImGui@@YA_NHI@Z		; ImGui::IsMouseReleased
PUBLIC	?IsMouseClicked@ImGui@@YA_NHIH@Z		; ImGui::IsMouseClicked
PUBLIC	?IsMouseClicked@ImGui@@YA_NH_N@Z		; ImGui::IsMouseClicked
PUBLIC	?IsMouseDown@ImGui@@YA_NHI@Z			; ImGui::IsMouseDown
PUBLIC	?IsMouseDown@ImGui@@YA_NH@Z			; ImGui::IsMouseDown
PUBLIC	?IsKeyReleased@ImGui@@YA_NW4ImGuiKey@@I@Z	; ImGui::IsKeyReleased
PUBLIC	?IsKeyReleased@ImGui@@YA_NW4ImGuiKey@@@Z	; ImGui::IsKeyReleased
PUBLIC	?IsKeyPressed@ImGui@@YA_NW4ImGuiKey@@IH@Z	; ImGui::IsKeyPressed
PUBLIC	?IsKeyPressed@ImGui@@YA_NW4ImGuiKey@@_N@Z	; ImGui::IsKeyPressed
PUBLIC	?IsKeyDown@ImGui@@YA_NW4ImGuiKey@@I@Z		; ImGui::IsKeyDown
PUBLIC	?IsKeyDown@ImGui@@YA_NW4ImGuiKey@@@Z		; ImGui::IsKeyDown
PUBLIC	?SetShortcutRouting@ImGui@@YA_NHIH@Z		; ImGui::SetShortcutRouting
PUBLIC	?GetShortcutRoutingData@ImGui@@YAPEAUImGuiKeyRoutingData@@H@Z ; ImGui::GetShortcutRoutingData
PUBLIC	?GetKeyVector2d@ImGui@@YA?AUImVec2@@W4ImGuiKey@@000@Z ; ImGui::GetKeyVector2d
PUBLIC	?GetKeyPressedAmount@ImGui@@YAHW4ImGuiKey@@MM@Z	; ImGui::GetKeyPressedAmount
PUBLIC	?GetTypematicRepeatRate@ImGui@@YAXHPEAM0@Z	; ImGui::GetTypematicRepeatRate
PUBLIC	?CalcTypematicRepeatAmount@ImGui@@YAHMMMM@Z	; ImGui::CalcTypematicRepeatAmount
PUBLIC	?GetKeyName@ImGui@@YAPEBDW4ImGuiKey@@@Z		; ImGui::GetKeyName
PUBLIC	?GetKeyData@ImGui@@YAPEAUImGuiKeyData@@W4ImGuiKey@@@Z ; ImGui::GetKeyData
PUBLIC	?IsMouseHoveringRect@ImGui@@YA_NAEBUImVec2@@0_N@Z ; ImGui::IsMouseHoveringRect
PUBLIC	?PopID@ImGui@@YAXXZ				; ImGui::PopID
PUBLIC	?PushID@ImGui@@YAXPEBD@Z			; ImGui::PushID
PUBLIC	?PopFocusScope@ImGui@@YAXXZ			; ImGui::PopFocusScope
PUBLIC	?PushFocusScope@ImGui@@YAXI@Z			; ImGui::PushFocusScope
PUBLIC	?SetNextWindowBgAlpha@ImGui@@YAXM@Z		; ImGui::SetNextWindowBgAlpha
PUBLIC	?SetNextWindowSizeConstraints@ImGui@@YAXAEBUImVec2@@0P6AXPEAUImGuiSizeCallbackData@@@ZPEAX@Z ; ImGui::SetNextWindowSizeConstraints
PUBLIC	?SetNextWindowSize@ImGui@@YAXAEBUImVec2@@H@Z	; ImGui::SetNextWindowSize
PUBLIC	?SetNextWindowPos@ImGui@@YAXAEBUImVec2@@H0@Z	; ImGui::SetNextWindowPos
PUBLIC	?SetWindowCollapsed@ImGui@@YAXPEAUImGuiWindow@@_NH@Z ; ImGui::SetWindowCollapsed
PUBLIC	?SetWindowSize@ImGui@@YAXPEAUImGuiWindow@@AEBUImVec2@@H@Z ; ImGui::SetWindowSize
PUBLIC	?SetWindowPos@ImGui@@YAXPEAUImGuiWindow@@AEBUImVec2@@H@Z ; ImGui::SetWindowPos
PUBLIC	?IsWindowNavFocusable@ImGui@@YA_NPEAUImGuiWindow@@@Z ; ImGui::IsWindowNavFocusable
PUBLIC	?IsWindowAbove@ImGui@@YA_NPEAUImGuiWindow@@0@Z	; ImGui::IsWindowAbove
PUBLIC	?IsWindowWithinBeginStackOf@ImGui@@YA_NPEAUImGuiWindow@@0@Z ; ImGui::IsWindowWithinBeginStackOf
PUBLIC	?EndDisabled@ImGui@@YAXXZ			; ImGui::EndDisabled
PUBLIC	?BeginDisabled@ImGui@@YAX_N@Z			; ImGui::BeginDisabled
PUBLIC	?PopFont@ImGui@@YAXXZ				; ImGui::PopFont
PUBLIC	?PushFont@ImGui@@YAXPEAUImFont@@@Z		; ImGui::PushFont
PUBLIC	?SetCurrentFont@ImGui@@YAXPEAUImFont@@@Z	; ImGui::SetCurrentFont
PUBLIC	?FocusTopMostWindowUnderOne@ImGui@@YAXPEAUImGuiWindow@@0@Z ; ImGui::FocusTopMostWindowUnderOne
PUBLIC	?FocusWindow@ImGui@@YAXPEAUImGuiWindow@@@Z	; ImGui::FocusWindow
PUBLIC	?FindWindowDisplayIndex@ImGui@@YAHPEAUImGuiWindow@@@Z ; ImGui::FindWindowDisplayIndex
PUBLIC	?BringWindowToDisplayBehind@ImGui@@YAXPEAUImGuiWindow@@0@Z ; ImGui::BringWindowToDisplayBehind
PUBLIC	?BringWindowToDisplayFront@ImGui@@YAXPEAUImGuiWindow@@@Z ; ImGui::BringWindowToDisplayFront
PUBLIC	?BringWindowToFocusFront@ImGui@@YAXPEAUImGuiWindow@@@Z ; ImGui::BringWindowToFocusFront
PUBLIC	?End@ImGui@@YAXXZ				; ImGui::End
PUBLIC	??0ImGuiWindowStackData@@QEAA@XZ		; ImGuiWindowStackData::ImGuiWindowStackData
PUBLIC	?Begin@ImGui@@YA_NPEBDPEA_NH@Z			; ImGui::Begin
PUBLIC	?UpdateWindowParentAndRootLinks@ImGui@@YAXPEAUImGuiWindow@@H0@Z ; ImGui::UpdateWindowParentAndRootLinks
PUBLIC	??0ImGuiSizeCallbackData@@QEAA@XZ		; ImGuiSizeCallbackData::ImGuiSizeCallbackData
PUBLIC	?FindWindowByName@ImGui@@YAPEAUImGuiWindow@@PEBD@Z ; ImGui::FindWindowByName
PUBLIC	?FindWindowByID@ImGui@@YAPEAUImGuiWindow@@I@Z	; ImGui::FindWindowByID
PUBLIC	?EndChild@ImGui@@YAXXZ				; ImGui::EndChild
PUBLIC	?BeginChildEx@ImGui@@YA_NPEBDIAEBUImVec2@@_NH@Z	; ImGui::BeginChildEx
PUBLIC	?SetActiveIdUsingAllKeyboardKeys@ImGui@@YAXXZ	; ImGui::SetActiveIdUsingAllKeyboardKeys
PUBLIC	?SetItemAllowOverlap@ImGui@@YAXXZ		; ImGui::SetItemAllowOverlap
PUBLIC	?IsItemFocused@ImGui@@YA_NXZ			; ImGui::IsItemFocused
PUBLIC	?IsItemActive@ImGui@@YA_NXZ			; ImGui::IsItemActive
PUBLIC	?CalcTextSize@ImGui@@YA?AUImVec2@@PEBD0_NM@Z	; ImGui::CalcTextSize
PUBLIC	?Render@ImGui@@YAXXZ				; ImGui::Render
PUBLIC	?EndFrame@ImGui@@YAXXZ				; ImGui::EndFrame
PUBLIC	?FindBottomMostVisibleWindowWithinBeginStack@ImGui@@YAPEAUImGuiWindow@@PEAU2@@Z ; ImGui::FindBottomMostVisibleWindowWithinBeginStack
PUBLIC	?PopClipRect@ImGui@@YAXXZ			; ImGui::PopClipRect
PUBLIC	?PushClipRect@ImGui@@YAXAEBUImVec2@@0_N@Z	; ImGui::PushClipRect
PUBLIC	?FlattenIntoSingleLayer@ImDrawDataBuilder@@QEAAXXZ ; ImDrawDataBuilder::FlattenIntoSingleLayer
PUBLIC	?Shutdown@ImGui@@YAXXZ				; ImGui::Shutdown
PUBLIC	?Initialize@ImGui@@YAXXZ			; ImGui::Initialize
PUBLIC	?NewFrame@ImGui@@YAXXZ				; ImGui::NewFrame
PUBLIC	?UpdateHoveredWindowAndCaptureFlags@ImGui@@YAXXZ ; ImGui::UpdateHoveredWindowAndCaptureFlags
PUBLIC	?UpdateMouseMovingWindowEndFrame@ImGui@@YAXXZ	; ImGui::UpdateMouseMovingWindowEndFrame
PUBLIC	?UpdateMouseMovingWindowNewFrame@ImGui@@YAXXZ	; ImGui::UpdateMouseMovingWindowNewFrame
PUBLIC	?StartMouseMovingWindow@ImGui@@YAXPEAUImGuiWindow@@@Z ; ImGui::StartMouseMovingWindow
PUBLIC	?GetForegroundDrawList@ImGui@@YAPEAUImDrawList@@XZ ; ImGui::GetForegroundDrawList
PUBLIC	?GetForegroundDrawList@ImGui@@YAPEAUImDrawList@@PEAUImGuiViewport@@@Z ; ImGui::GetForegroundDrawList
PUBLIC	?GetBackgroundDrawList@ImGui@@YAPEAUImDrawList@@PEAUImGuiViewport@@@Z ; ImGui::GetBackgroundDrawList
PUBLIC	?GetDrawData@ImGui@@YAPEAUImDrawData@@XZ	; ImGui::GetDrawData
PUBLIC	?GetIO@ImGui@@YAAEAUImGuiIO@@XZ			; ImGui::GetIO
PUBLIC	?CallContextHooks@ImGui@@YAXPEAUImGuiContext@@W4ImGuiContextHookType@@@Z ; ImGui::CallContextHooks
PUBLIC	?DestroyContext@ImGui@@YAXPEAUImGuiContext@@@Z	; ImGui::DestroyContext
PUBLIC	?CreateContext@ImGui@@YAPEAUImGuiContext@@PEAUImFontAtlas@@@Z ; ImGui::CreateContext
PUBLIC	?SetCurrentContext@ImGui@@YAXPEAUImGuiContext@@@Z ; ImGui::SetCurrentContext
PUBLIC	?GetCurrentContext@ImGui@@YAPEAUImGuiContext@@XZ ; ImGui::GetCurrentContext
PUBLIC	?SetClipboardText@ImGui@@YAXPEBD@Z		; ImGui::SetClipboardText
PUBLIC	?GetClipboardText@ImGui@@YAPEBDXZ		; ImGui::GetClipboardText
PUBLIC	?MemFree@ImGui@@YAXPEAX@Z			; ImGui::MemFree
PUBLIC	?MemAlloc@ImGui@@YAPEAX_K@Z			; ImGui::MemAlloc
PUBLIC	?CalcWrapWidthForPos@ImGui@@YAMAEBUImVec2@@M@Z	; ImGui::CalcWrapWidthForPos
PUBLIC	?SetLastItemData@ImGui@@YAXIHHAEBUImRect@@@Z	; ImGui::SetLastItemData
PUBLIC	?IsClippedEx@ImGui@@YA_NAEBUImRect@@I@Z		; ImGui::IsClippedEx
PUBLIC	?ItemHoverable@ImGui@@YA_NAEBUImRect@@I@Z	; ImGui::ItemHoverable
PUBLIC	?IsItemHovered@ImGui@@YA_NH@Z			; ImGui::IsItemHovered
PUBLIC	?MarkItemEdited@ImGui@@YAXI@Z			; ImGui::MarkItemEdited
PUBLIC	?KeepAliveID@ImGui@@YAXI@Z			; ImGui::KeepAliveID
PUBLIC	?SetHoveredID@ImGui@@YAXI@Z			; ImGui::SetHoveredID
PUBLIC	?ClearActiveID@ImGui@@YAXXZ			; ImGui::ClearActiveID
PUBLIC	?SetActiveID@ImGui@@YAXIPEAUImGuiWindow@@@Z	; ImGui::SetActiveID
PUBLIC	?GcAwakeTransientWindowBuffers@ImGui@@YAXPEAUImGuiWindow@@@Z ; ImGui::GcAwakeTransientWindowBuffers
PUBLIC	?GcCompactTransientWindowBuffers@ImGui@@YAXPEAUImGuiWindow@@@Z ; ImGui::GcCompactTransientWindowBuffers
PUBLIC	?GcCompactTransientMiscBuffers@ImGui@@YAXXZ	; ImGui::GcCompactTransientMiscBuffers
PUBLIC	?GetIDFromRectangle@ImGuiWindow@@QEAAIAEBUImRect@@@Z ; ImGuiWindow::GetIDFromRectangle
PUBLIC	?GetID@ImGuiWindow@@QEAAIH@Z			; ImGuiWindow::GetID
PUBLIC	?GetID@ImGuiWindow@@QEAAIPEBD0@Z		; ImGuiWindow::GetID
PUBLIC	??1ImGuiWindow@@QEAA@XZ				; ImGuiWindow::~ImGuiWindow
PUBLIC	??1ImGuiWindowTempData@@QEAA@XZ			; ImGuiWindowTempData::~ImGuiWindowTempData
PUBLIC	??0ImGuiWindowTempData@@QEAA@XZ			; ImGuiWindowTempData::ImGuiWindowTempData
PUBLIC	??0ImGuiWindow@@QEAA@PEAUImGuiContext@@PEBD@Z	; ImGuiWindow::ImGuiWindow
PUBLIC	?RenderMouseCursor@ImGui@@YAXUImVec2@@MHIII@Z	; ImGui::RenderMouseCursor
PUBLIC	?RenderNavHighlight@ImGui@@YAXAEBUImRect@@IH@Z	; ImGui::RenderNavHighlight
PUBLIC	?RenderFrame@ImGui@@YAXUImVec2@@0I_NM@Z		; ImGui::RenderFrame
PUBLIC	?RenderTextClipped@ImGui@@YAXAEBUImVec2@@0PEBD1PEBU2@0PEBUImRect@@@Z ; ImGui::RenderTextClipped
PUBLIC	?RenderTextClippedEx@ImGui@@YAXPEAUImDrawList@@AEBUImVec2@@1PEBD2PEBU3@1PEBUImRect@@@Z ; ImGui::RenderTextClippedEx
PUBLIC	?RenderTextWrapped@ImGui@@YAXUImVec2@@PEBD1M@Z	; ImGui::RenderTextWrapped
PUBLIC	?RenderText@ImGui@@YAXUImVec2@@PEBD1_N@Z	; ImGui::RenderText
PUBLIC	?FindRenderedTextEnd@ImGui@@YAPEBDPEBD0@Z	; ImGui::FindRenderedTextEnd
PUBLIC	?PopStyleVar@ImGui@@YAXH@Z			; ImGui::PopStyleVar
PUBLIC	?PushStyleVar@ImGui@@YAXHAEBUImVec2@@@Z		; ImGui::PushStyleVar
PUBLIC	?PushStyleVar@ImGui@@YAXHM@Z			; ImGui::PushStyleVar
PUBLIC	?GetVarPtr@ImGuiStyleVarInfo@@QEBAPEAXPEAUImGuiStyle@@@Z ; ImGuiStyleVarInfo::GetVarPtr
PUBLIC	?PopStyleColor@ImGui@@YAXH@Z			; ImGui::PopStyleColor
PUBLIC	?PushStyleColor@ImGui@@YAXHAEBUImVec4@@@Z	; ImGui::PushStyleColor
PUBLIC	??0ImGuiColorMod@@QEAA@XZ			; ImGuiColorMod::ImGuiColorMod
PUBLIC	?GetStyleColorVec4@ImGui@@YAAEBUImVec4@@H@Z	; ImGui::GetStyleColorVec4
PUBLIC	?GetColorU32@ImGui@@YAIHM@Z			; ImGui::GetColorU32
PUBLIC	?GetStyle@ImGui@@YAAEAUImGuiStyle@@XZ		; ImGui::GetStyle
PUBLIC	?End@ImGuiListClipper@@QEAAXXZ			; ImGuiListClipper::End
PUBLIC	??1ImGuiListClipperData@@QEAA@XZ		; ImGuiListClipperData::~ImGuiListClipperData
PUBLIC	??1ImGuiListClipper@@QEAA@XZ			; ImGuiListClipper::~ImGuiListClipper
PUBLIC	?append@ImGuiTextIndex@@QEAAXPEBDHH@Z		; ImGuiTextIndex::append
PUBLIC	?appendfv@ImGuiTextBuffer@@QEAAXPEBDPEAD@Z	; ImGuiTextBuffer::appendfv
PUBLIC	?appendf@ImGuiTextBuffer@@QEAAXPEBDZZ		; ImGuiTextBuffer::appendf
PUBLIC	?append@ImGuiTextBuffer@@QEAAXPEBD0@Z		; ImGuiTextBuffer::append
PUBLIC	?SetVoidPtr@ImGuiStorage@@QEAAXIPEAX@Z		; ImGuiStorage::SetVoidPtr
PUBLIC	?GetVoidPtr@ImGuiStorage@@QEBAPEAXI@Z		; ImGuiStorage::GetVoidPtr
PUBLIC	?ColorConvertFloat4ToU32@ImGui@@YAIAEBUImVec4@@@Z ; ImGui::ColorConvertFloat4ToU32
PUBLIC	?ImTextCountUtf8BytesFromStr@@YAHPEBG0@Z	; ImTextCountUtf8BytesFromStr
PUBLIC	?ImTextStrToUtf8@@YAHPEADHPEBG1@Z		; ImTextStrToUtf8
PUBLIC	?ImTextCountCharsFromUtf8@@YAHPEBD0@Z		; ImTextCountCharsFromUtf8
PUBLIC	?ImTextStrFromUtf8@@YAHPEAGHPEBD1PEAPEBD@Z	; ImTextStrFromUtf8
PUBLIC	?ImTextCharFromUtf8@@YAHPEAIPEBD1@Z		; ImTextCharFromUtf8
PUBLIC	?ImFileLoadToMemory@@YAPEAXPEBD0PEA_KH@Z	; ImFileLoadToMemory
PUBLIC	?ImFileWrite@@YA_KPEBX_K1PEAU_iobuf@@@Z		; ImFileWrite
PUBLIC	?ImFileRead@@YA_KPEAX_K1PEAU_iobuf@@@Z		; ImFileRead
PUBLIC	?ImFileGetSize@@YA_KPEAU_iobuf@@@Z		; ImFileGetSize
PUBLIC	?ImFileClose@@YA_NPEAU_iobuf@@@Z		; ImFileClose
PUBLIC	?ImFileOpen@@YAPEAU_iobuf@@PEBD0@Z		; ImFileOpen
PUBLIC	?ImHashStr@@YAIPEBD_KI@Z			; ImHashStr
PUBLIC	?ImHashData@@YAIPEBX_KI@Z			; ImHashData
PUBLIC	?ImFormatStringToTempBufferV@@YAXPEAPEBD0PEBDPEAD@Z ; ImFormatStringToTempBufferV
PUBLIC	?ImFormatStringToTempBuffer@@YAXPEAPEBD0PEBDZZ	; ImFormatStringToTempBuffer
PUBLIC	?ImFormatStringV@@YAHPEAD_KPEBD0@Z		; ImFormatStringV
PUBLIC	?ImFormatString@@YAHPEAD_KPEBDZZ		; ImFormatString
PUBLIC	?ImStrSkipBlank@@YAPEBDPEBD@Z			; ImStrSkipBlank
PUBLIC	?ImStrTrimBlanks@@YAXPEAD@Z			; ImStrTrimBlanks
PUBLIC	?ImStrbolW@@YAPEBGPEBG0@Z			; ImStrbolW
PUBLIC	?ImStreolRange@@YAPEBDPEBD0@Z			; ImStreolRange
PUBLIC	?ImStrchrRange@@YAPEBDPEBD0D@Z			; ImStrchrRange
PUBLIC	?ImStrdupcpy@@YAPEADPEADPEA_KPEBD@Z		; ImStrdupcpy
PUBLIC	?ImStrdup@@YAPEADPEBD@Z				; ImStrdup
PUBLIC	?ImStrncpy@@YAXPEADPEBD_K@Z			; ImStrncpy
PUBLIC	?AddFocusEvent@ImGuiIO@@QEAAX_N@Z		; ImGuiIO::AddFocusEvent
PUBLIC	?AddMouseWheelEvent@ImGuiIO@@QEAAXMM@Z		; ImGuiIO::AddMouseWheelEvent
PUBLIC	?AddMouseButtonEvent@ImGuiIO@@QEAAXH_N@Z	; ImGuiIO::AddMouseButtonEvent
PUBLIC	?AddMousePosEvent@ImGuiIO@@QEAAXMM@Z		; ImGuiIO::AddMousePosEvent
PUBLIC	?SetKeyEventNativeData@ImGuiIO@@QEAAXW4ImGuiKey@@HHH@Z ; ImGuiIO::SetKeyEventNativeData
PUBLIC	?AddKeyEvent@ImGuiIO@@QEAAXW4ImGuiKey@@_N@Z	; ImGuiIO::AddKeyEvent
PUBLIC	?AddKeyAnalogEvent@ImGuiIO@@QEAAXW4ImGuiKey@@_NM@Z ; ImGuiIO::AddKeyAnalogEvent
PUBLIC	?ClearInputKeys@ImGuiIO@@QEAAXXZ		; ImGuiIO::ClearInputKeys
PUBLIC	?AddInputCharacter@ImGuiIO@@QEAAXI@Z		; ImGuiIO::AddInputCharacter
PUBLIC	??0ImGuiIO@@QEAA@XZ				; ImGuiIO::ImGuiIO
PUBLIC	??0ImGuiStyle@@QEAA@XZ				; ImGuiStyle::ImGuiStyle
PUBLIC	?TableGetInstanceData@ImGui@@YAPEAUImGuiTableInstanceData@@PEAUImGuiTable@@H@Z ; ImGui::TableGetInstanceData
PUBLIC	?GetKeyOwnerData@ImGui@@YAPEAUImGuiKeyOwnerData@@W4ImGuiKey@@@Z ; ImGui::GetKeyOwnerData
PUBLIC	?IsActiveIdUsingNavDir@ImGui@@YA_NH@Z		; ImGui::IsActiveIdUsingNavDir
PUBLIC	?MouseButtonToKey@ImGui@@YA?AW4ImGuiKey@@H@Z	; ImGui::MouseButtonToKey
PUBLIC	?ConvertSingleModFlagToKey@ImGui@@YA?AW4ImGuiKey@@W42@@Z ; ImGui::ConvertSingleModFlagToKey
PUBLIC	?IsGamepadKey@ImGui@@YA_NW4ImGuiKey@@@Z		; ImGui::IsGamepadKey
PUBLIC	?IsLegacyKey@ImGui@@YA_NW4ImGuiKey@@@Z		; ImGui::IsLegacyKey
PUBLIC	?IsNamedKeyOrModKey@ImGui@@YA_NW4ImGuiKey@@@Z	; ImGui::IsNamedKeyOrModKey
PUBLIC	?IsNamedKey@ImGui@@YA_NW4ImGuiKey@@@Z		; ImGui::IsNamedKey
PUBLIC	?LocalizeGetMsg@ImGui@@YAPEBDW4ImGuiLocKey@@@Z	; ImGui::LocalizeGetMsg
PUBLIC	?GetForegroundDrawList@ImGui@@YAPEAUImDrawList@@PEAUImGuiWindow@@@Z ; ImGui::GetForegroundDrawList
PUBLIC	?GetDefaultFont@ImGui@@YAPEAUImFont@@XZ		; ImGui::GetDefaultFont
PUBLIC	?WindowRectRelToAbs@ImGui@@YA?AUImRect@@PEAUImGuiWindow@@AEBU2@@Z ; ImGui::WindowRectRelToAbs
PUBLIC	?WindowRectAbsToRel@ImGui@@YA?AUImRect@@PEAUImGuiWindow@@AEBU2@@Z ; ImGui::WindowRectAbsToRel
PUBLIC	?GetCurrentWindow@ImGui@@YAPEAUImGuiWindow@@XZ	; ImGui::GetCurrentWindow
PUBLIC	?GetCurrentWindowRead@ImGui@@YAPEAUImGuiWindow@@XZ ; ImGui::GetCurrentWindowRead
PUBLIC	??1ImGuiTable@@QEAA@XZ				; ImGuiTable::~ImGuiTable
PUBLIC	?MenuBarRect@ImGuiWindow@@QEBA?AUImRect@@XZ	; ImGuiWindow::MenuBarRect
PUBLIC	?MenuBarHeight@ImGuiWindow@@QEBAMXZ		; ImGuiWindow::MenuBarHeight
PUBLIC	?TitleBarRect@ImGuiWindow@@QEBA?AUImRect@@XZ	; ImGuiWindow::TitleBarRect
PUBLIC	?TitleBarHeight@ImGuiWindow@@QEBAMXZ		; ImGuiWindow::TitleBarHeight
PUBLIC	?CalcFontSize@ImGuiWindow@@QEBAMXZ		; ImGuiWindow::CalcFontSize
PUBLIC	?Rect@ImGuiWindow@@QEBA?AUImRect@@XZ		; ImGuiWindow::Rect
PUBLIC	??1ImGuiStackTool@@QEAA@XZ			; ImGuiStackTool::~ImGuiStackTool
PUBLIC	??1ImGuiTextIndex@@QEAA@XZ			; ImGuiTextIndex::~ImGuiTextIndex
PUBLIC	??1?$ImChunkStream@UImGuiTableSettings@@@@QEAA@XZ ; ImChunkStream<ImGuiTableSettings>::~ImChunkStream<ImGuiTableSettings>
PUBLIC	??0?$ImChunkStream@UImGuiTableSettings@@@@QEAA@XZ ; ImChunkStream<ImGuiTableSettings>::ImChunkStream<ImGuiTableSettings>
PUBLIC	??1?$ImChunkStream@UImGuiWindowSettings@@@@QEAA@XZ ; ImChunkStream<ImGuiWindowSettings>::~ImChunkStream<ImGuiWindowSettings>
PUBLIC	??0?$ImChunkStream@UImGuiWindowSettings@@@@QEAA@XZ ; ImChunkStream<ImGuiWindowSettings>::ImChunkStream<ImGuiWindowSettings>
PUBLIC	??1ImGuiTextBuffer@@QEAA@XZ			; ImGuiTextBuffer::~ImGuiTextBuffer
PUBLIC	??1ImGuiInputTextState@@QEAA@XZ			; ImGuiInputTextState::~ImGuiInputTextState
PUBLIC	??1ImGuiKeyRoutingTable@@QEAA@XZ		; ImGuiKeyRoutingTable::~ImGuiKeyRoutingTable
PUBLIC	??_H@YAXPEAX_K1P6APEAX0@Z@Z			; `vector constructor iterator'
PUBLIC	??1ImGuiStorage@@QEAA@XZ			; ImGuiStorage::~ImGuiStorage
PUBLIC	??0ImGuiStorage@@QEAA@XZ			; ImGuiStorage::ImGuiStorage
PUBLIC	??1ImDrawListSharedData@@QEAA@XZ		; ImDrawListSharedData::~ImDrawListSharedData
PUBLIC	??1ImGuiIO@@QEAA@XZ				; ImGuiIO::~ImGuiIO
PUBLIC	??0ImGuiTextIndex@@QEAA@XZ			; ImGuiTextIndex::ImGuiTextIndex
PUBLIC	??0ImGuiContext@@QEAA@PEAUImFontAtlas@@@Z	; ImGuiContext::ImGuiContext
PUBLIC	??0ImGuiStackTool@@QEAA@XZ			; ImGuiStackTool::ImGuiStackTool
PUBLIC	??0ImGuiStackLevelInfo@@QEAA@XZ			; ImGuiStackLevelInfo::ImGuiStackLevelInfo
PUBLIC	??0ImGuiMetricsConfig@@QEAA@XZ			; ImGuiMetricsConfig::ImGuiMetricsConfig
PUBLIC	??0ImGuiSettingsHandler@@QEAA@XZ		; ImGuiSettingsHandler::ImGuiSettingsHandler
PUBLIC	?GetName@ImGuiWindowSettings@@QEAAPEADXZ	; ImGuiWindowSettings::GetName
PUBLIC	??0ImGuiWindowSettings@@QEAA@XZ			; ImGuiWindowSettings::ImGuiWindowSettings
PUBLIC	??1ImDrawDataBuilder@@QEAA@XZ			; ImDrawDataBuilder::~ImDrawDataBuilder
PUBLIC	??0ImDrawDataBuilder@@QEAA@XZ			; ImDrawDataBuilder::ImDrawDataBuilder
PUBLIC	?GetWorkRect@ImGuiViewportP@@QEBA?AUImRect@@XZ	; ImGuiViewportP::GetWorkRect
PUBLIC	?GetMainRect@ImGuiViewportP@@QEBA?AUImRect@@XZ	; ImGuiViewportP::GetMainRect
PUBLIC	?UpdateWorkRect@ImGuiViewportP@@QEAAXXZ		; ImGuiViewportP::UpdateWorkRect
PUBLIC	?CalcWorkRectSize@ImGuiViewportP@@QEBA?AUImVec2@@AEBU2@0@Z ; ImGuiViewportP::CalcWorkRectSize
PUBLIC	?CalcWorkRectPos@ImGuiViewportP@@QEBA?AUImVec2@@AEBU2@@Z ; ImGuiViewportP::CalcWorkRectPos
PUBLIC	??1ImGuiViewportP@@QEAA@XZ			; ImGuiViewportP::~ImGuiViewportP
PUBLIC	??0ImGuiViewportP@@QEAA@XZ			; ImGuiViewportP::ImGuiViewportP
PUBLIC	?Clear@ImGuiNavItemData@@QEAAXXZ		; ImGuiNavItemData::Clear
PUBLIC	??0ImGuiNavItemData@@QEAA@XZ			; ImGuiNavItemData::ImGuiNavItemData
PUBLIC	??0ImGuiKeyOwnerData@@QEAA@XZ			; ImGuiKeyOwnerData::ImGuiKeyOwnerData
PUBLIC	?Clear@ImGuiKeyRoutingTable@@QEAAXXZ		; ImGuiKeyRoutingTable::Clear
PUBLIC	??0ImGuiKeyRoutingTable@@QEAA@XZ		; ImGuiKeyRoutingTable::ImGuiKeyRoutingTable
PUBLIC	??0ImGuiKeyRoutingData@@QEAA@XZ			; ImGuiKeyRoutingData::ImGuiKeyRoutingData
PUBLIC	??0ImGuiInputEvent@@QEAA@XZ			; ImGuiInputEvent::ImGuiInputEvent
PUBLIC	??0ImGuiStackSizes@@QEAA@XZ			; ImGuiStackSizes::ImGuiStackSizes
PUBLIC	??0ImGuiLastItemData@@QEAA@XZ			; ImGuiLastItemData::ImGuiLastItemData
PUBLIC	??0ImGuiNextItemData@@QEAA@XZ			; ImGuiNextItemData::ImGuiNextItemData
PUBLIC	?ClearFlags@ImGuiNextWindowData@@QEAAXXZ	; ImGuiNextWindowData::ClearFlags
PUBLIC	??0ImGuiNextWindowData@@QEAA@XZ			; ImGuiNextWindowData::ImGuiNextWindowData
PUBLIC	?ClearFreeMemory@ImGuiInputTextState@@QEAAXXZ	; ImGuiInputTextState::ClearFreeMemory
PUBLIC	??0ImGuiInputTextState@@QEAA@XZ			; ImGuiInputTextState::ImGuiInputTextState
PUBLIC	??0ImGuiMenuColumns@@QEAA@XZ			; ImGuiMenuColumns::ImGuiMenuColumns
PUBLIC	??0ImGuiComboPreviewData@@QEAA@XZ		; ImGuiComboPreviewData::ImGuiComboPreviewData
PUBLIC	??0ImGuiStyleMod@@QEAA@HUImVec2@@@Z		; ImGuiStyleMod::ImGuiStyleMod
PUBLIC	??0ImGuiStyleMod@@QEAA@HM@Z			; ImGuiStyleMod::ImGuiStyleMod
PUBLIC	?Clear@ImDrawDataBuilder@@QEAAXXZ		; ImDrawDataBuilder::Clear
PUBLIC	?clear@ImGuiTextIndex@@QEAAXXZ			; ImGuiTextIndex::clear
PUBLIC	?ImBitArraySetBit@@YAXPEAIH@Z			; ImBitArraySetBit
PUBLIC	?ImBitArrayTestBit@@YA_NPEBIH@Z			; ImBitArrayTestBit
PUBLIC	?ToVec4@ImRect@@QEBA?AUImVec4@@XZ		; ImRect::ToVec4
PUBLIC	?IsInverted@ImRect@@QEBA_NXZ			; ImRect::IsInverted
PUBLIC	?ClipWithFull@ImRect@@QEAAXAEBU1@@Z		; ImRect::ClipWithFull
PUBLIC	?ClipWith@ImRect@@QEAAXAEBU1@@Z			; ImRect::ClipWith
PUBLIC	?TranslateY@ImRect@@QEAAXM@Z			; ImRect::TranslateY
PUBLIC	?TranslateX@ImRect@@QEAAXM@Z			; ImRect::TranslateX
PUBLIC	?Translate@ImRect@@QEAAXAEBUImVec2@@@Z		; ImRect::Translate
PUBLIC	?Expand@ImRect@@QEAAXAEBUImVec2@@@Z		; ImRect::Expand
PUBLIC	?Expand@ImRect@@QEAAXM@Z			; ImRect::Expand
PUBLIC	?Add@ImRect@@QEAAXAEBU1@@Z			; ImRect::Add
PUBLIC	?Overlaps@ImRect@@QEBA_NAEBU1@@Z		; ImRect::Overlaps
PUBLIC	?Contains@ImRect@@QEBA_NAEBU1@@Z		; ImRect::Contains
PUBLIC	?Contains@ImRect@@QEBA_NAEBUImVec2@@@Z		; ImRect::Contains
PUBLIC	?GetBR@ImRect@@QEBA?AUImVec2@@XZ		; ImRect::GetBR
PUBLIC	?GetBL@ImRect@@QEBA?AUImVec2@@XZ		; ImRect::GetBL
PUBLIC	?GetHeight@ImRect@@QEBAMXZ			; ImRect::GetHeight
PUBLIC	?GetWidth@ImRect@@QEBAMXZ			; ImRect::GetWidth
PUBLIC	?GetSize@ImRect@@QEBA?AUImVec2@@XZ		; ImRect::GetSize
PUBLIC	??0ImRect@@QEAA@MMMM@Z				; ImRect::ImRect
PUBLIC	??0ImRect@@QEAA@AEBUImVec4@@@Z			; ImRect::ImRect
PUBLIC	??0ImRect@@QEAA@AEBUImVec2@@0@Z			; ImRect::ImRect
PUBLIC	??0ImRect@@QEAA@XZ				; ImRect::ImRect
PUBLIC	??0ImVec2ih@@QEAA@AEBUImVec2@@@Z		; ImVec2ih::ImVec2ih
PUBLIC	??0ImVec2ih@@QEAA@FF@Z				; ImVec2ih::ImVec2ih
PUBLIC	??0ImVec2ih@@QEAA@XZ				; ImVec2ih::ImVec2ih
PUBLIC	??0ImVec1@@QEAA@XZ				; ImVec1::ImVec1
PUBLIC	fabsf
PUBLIC	sscanf
PUBLIC	_vsscanf_l
PUBLIC	_vsnprintf
PUBLIC	_vsnprintf_l
PUBLIC	printf
PUBLIC	_vfprintf_l
PUBLIC	__local_stdio_printf_options
PUBLIC	??0ImGuiPlatformImeData@@QEAA@XZ		; ImGuiPlatformImeData::ImGuiPlatformImeData
PUBLIC	?GetCenter@ImGuiViewport@@QEBA?AUImVec2@@XZ	; ImGuiViewport::GetCenter
PUBLIC	??0ImGuiViewport@@QEAA@XZ			; ImGuiViewport::ImGuiViewport
PUBLIC	?Clear@ImDrawData@@QEAAXXZ			; ImDrawData::Clear
PUBLIC	??0ImDrawData@@QEAA@XZ				; ImDrawData::ImDrawData
PUBLIC	??0ImDrawCmdHeader@@QEAA@XZ			; ImDrawCmdHeader::ImDrawCmdHeader
PUBLIC	?PathStroke@ImDrawList@@QEAAXIHM@Z		; ImDrawList::PathStroke
PUBLIC	?PathFillConvex@ImDrawList@@QEAAXI@Z		; ImDrawList::PathFillConvex
PUBLIC	?PathLineTo@ImDrawList@@QEAAXAEBUImVec2@@@Z	; ImDrawList::PathLineTo
PUBLIC	??1ImDrawList@@QEAA@XZ				; ImDrawList::~ImDrawList
PUBLIC	??0ImDrawList@@QEAA@PEAUImDrawListSharedData@@@Z ; ImDrawList::ImDrawList
PUBLIC	??1ImDrawListSplitter@@QEAA@XZ			; ImDrawListSplitter::~ImDrawListSplitter
PUBLIC	??0ImDrawListSplitter@@QEAA@XZ			; ImDrawListSplitter::ImDrawListSplitter
PUBLIC	?Clear@ImGuiStorage@@QEAAXXZ			; ImGuiStorage::Clear
PUBLIC	??0ImGuiStoragePair@ImGuiStorage@@QEAA@IPEAX@Z	; ImGuiStorage::ImGuiStoragePair::ImGuiStoragePair
PUBLIC	?c_str@ImGuiTextBuffer@@QEBAPEBDXZ		; ImGuiTextBuffer::c_str
PUBLIC	?reserve@ImGuiTextBuffer@@QEAAXH@Z		; ImGuiTextBuffer::reserve
PUBLIC	?clear@ImGuiTextBuffer@@QEAAXXZ			; ImGuiTextBuffer::clear
PUBLIC	?empty@ImGuiTextBuffer@@QEBA_NXZ		; ImGuiTextBuffer::empty
PUBLIC	?size@ImGuiTextBuffer@@QEBAHXZ			; ImGuiTextBuffer::size
PUBLIC	?begin@ImGuiTextBuffer@@QEBAPEBDXZ		; ImGuiTextBuffer::begin
PUBLIC	??0ImGuiTextBuffer@@QEAA@XZ			; ImGuiTextBuffer::ImGuiTextBuffer
PUBLIC	?Clear@ImGuiPayload@@QEAAXXZ			; ImGuiPayload::Clear
PUBLIC	??0ImGuiPayload@@QEAA@XZ			; ImGuiPayload::ImGuiPayload
PUBLIC	??3@YAXPEAXUImNewWrapper@@0@Z			; operator delete
PUBLIC	??2@YAPEAX_KUImNewWrapper@@PEAX@Z		; operator new
PUBLIC	??0ImVec4@@QEAA@MMMM@Z				; ImVec4::ImVec4
PUBLIC	??0ImVec4@@QEAA@XZ				; ImVec4::ImVec4
PUBLIC	??AImVec2@@QEAAAEAM_K@Z				; ImVec2::operator[]
PUBLIC	??0ImVec2@@QEAA@MM@Z				; ImVec2::ImVec2
PUBLIC	??0ImVec2@@QEAA@XZ				; ImVec2::ImVec2
EXTRN	__std_terminate:PROC
EXTRN	__CxxFrameHandler4:PROC
;	COMDAT pdata
pdata	SEGMENT
$pdata$??_GImGuiWindow@@QEAAPEAXI@Z DD imagerel $LN6@scalar
	DD	imagerel $LN6@scalar+23
	DD	imagerel $unwind$??_GImGuiWindow@@QEAAPEAXI@Z
pdata	ENDS
;	COMDAT pdata
pdata	SEGMENT
$pdata$??_GImGuiViewportP@@QEAAPEAXI@Z DD imagerel $LN6@scalar
	DD	imagerel $LN6@scalar+23
	DD	imagerel $unwind$??_GImGuiViewportP@@QEAAPEAXI@Z
pdata	ENDS
;	COMDAT pdata
pdata	SEGMENT
$pdata$??_GImFontAtlas@@QEAAPEAXI@Z DD imagerel $LN6@scalar
	DD	imagerel $LN6@scalar+23
	DD	imagerel $unwind$??_GImFontAtlas@@QEAAPEAXI@Z
pdata	ENDS
;	COMDAT pdata
pdata	SEGMENT
$pdata$??1ImGuiContext@@QEAA@XZ DD imagerel $LN566@ImGuiConte
	DD	imagerel $LN566@ImGuiConte+1673
	DD	imagerel $unwind$??1ImGuiContext@@QEAA@XZ
pdata	ENDS
;	COMDAT pdata
pdata	SEGMENT
$pdata$??_GImGuiContext@@QEAAPEAXI@Z DD imagerel $LN6@scalar
	DD	imagerel $LN6@scalar+23
	DD	imagerel $unwind$??_GImGuiContext@@QEAAPEAXI@Z
pdata	ENDS
;	COMDAT pdata
pdata	SEGMENT
$pdata$??_GImDrawList@@QEAAPEAXI@Z DD imagerel $LN6@scalar
	DD	imagerel $LN6@scalar+23
	DD	imagerel $unwind$??_GImDrawList@@QEAAPEAXI@Z
pdata	ENDS
;	COMDAT pdata
pdata	SEGMENT
$pdata$??$IM_DELETE@UImGuiWindow@@@@YAXPEAUImGuiWindow@@@Z DD imagerel $LN18@IM_DELETE
	DD	imagerel $LN18@IM_DELETE+51
	DD	imagerel $unwind$??$IM_DELETE@UImGuiWindow@@@@YAXPEAUImGuiWindow@@@Z
pdata	ENDS
;	COMDAT pdata
pdata	SEGMENT
$pdata$??$IM_DELETE@UImGuiViewportP@@@@YAXPEAUImGuiViewportP@@@Z DD imagerel $LN18@IM_DELETE
	DD	imagerel $LN18@IM_DELETE+51
	DD	imagerel $unwind$??$IM_DELETE@UImGuiViewportP@@@@YAXPEAUImGuiViewportP@@@Z
pdata	ENDS
;	COMDAT pdata
pdata	SEGMENT
$pdata$??$IM_DELETE@UImFontAtlas@@@@YAXPEAUImFontAtlas@@@Z DD imagerel $LN18@IM_DELETE
	DD	imagerel $LN18@IM_DELETE+51
	DD	imagerel $unwind$??$IM_DELETE@UImFontAtlas@@@@YAXPEAUImFontAtlas@@@Z
pdata	ENDS
;	COMDAT pdata
pdata	SEGMENT
$pdata$??$IM_DELETE@UImGuiContext@@@@YAXPEAUImGuiContext@@@Z DD imagerel $LN18@IM_DELETE
	DD	imagerel $LN18@IM_DELETE+51
	DD	imagerel $unwind$??$IM_DELETE@UImGuiContext@@@@YAXPEAUImGuiContext@@@Z
pdata	ENDS
;	COMDAT pdata
pdata	SEGMENT
$pdata$??$IM_DELETE@D@@YAXPEAD@Z DD imagerel $LN13@IM_DELETE
	DD	imagerel $LN13@IM_DELETE+38
	DD	imagerel $unwind$??$IM_DELETE@D@@YAXPEAD@Z
pdata	ENDS
;	COMDAT pdata
pdata	SEGMENT
$pdata$??$IM_DELETE@UImDrawList@@@@YAXPEAUImDrawList@@@Z DD imagerel $LN18@IM_DELETE
	DD	imagerel $LN18@IM_DELETE+51
	DD	imagerel $unwind$??$IM_DELETE@UImDrawList@@@@YAXPEAUImDrawList@@@Z
pdata	ENDS
;	COMDAT pdata
pdata	SEGMENT
$pdata$?reserve@?$ImVector@UImDrawCmd@@@@QEAAXH@Z DD imagerel $LN21@reserve
	DD	imagerel $LN21@reserve+137
	DD	imagerel $unwind$?reserve@?$ImVector@UImDrawCmd@@@@QEAAXH@Z
pdata	ENDS
;	COMDAT pdata
pdata	SEGMENT
$pdata$?reserve@?$ImVector@UImGuiStoragePair@ImGuiStorage@@@@QEAAXH@Z DD imagerel $LN21@reserve
	DD	imagerel $LN21@reserve+140
	DD	imagerel $unwind$?reserve@?$ImVector@UImGuiStoragePair@ImGuiStorage@@@@QEAAXH@Z
pdata	ENDS
;	COMDAT pdata
pdata	SEGMENT
$pdata$?push_back@?$ImVector@UImDrawCmd@@@@QEAAXAEBUImDrawCmd@@@Z DD imagerel $LN9@push_back
	DD	imagerel $LN9@push_back+128
	DD	imagerel $unwind$?push_back@?$ImVector@UImDrawCmd@@@@QEAAXAEBUImDrawCmd@@@Z
pdata	ENDS
;	COMDAT pdata
pdata	SEGMENT
$pdata$?insert@?$ImVector@UImDrawCmd@@@@QEAAPEAUImDrawCmd@@PEBU2@AEBU2@@Z DD imagerel $LN11@insert
	DD	imagerel $LN11@insert+217
	DD	imagerel $unwind$?insert@?$ImVector@UImDrawCmd@@@@QEAAPEAUImDrawCmd@@PEBU2@AEBU2@@Z
pdata	ENDS
;	COMDAT pdata
pdata	SEGMENT
$pdata$?reserve@?$ImVector@UImVec2@@@@QEAAXH@Z DD imagerel $LN21@reserve
	DD	imagerel $LN21@reserve+140
	DD	imagerel $unwind$?reserve@?$ImVector@UImVec2@@@@QEAAXH@Z
pdata	ENDS
;	COMDAT pdata
pdata	SEGMENT
$pdata$?reserve@?$ImVector@I@@QEAAXH@Z DD imagerel $LN21@reserve
	DD	imagerel $LN21@reserve+140
	DD	imagerel $unwind$?reserve@?$ImVector@I@@QEAAXH@Z
pdata	ENDS
;	COMDAT pdata
pdata	SEGMENT
$pdata$?reserve@?$ImVector@PEAUImFont@@@@QEAAXH@Z DD imagerel $LN21@reserve
	DD	imagerel $LN21@reserve+140
	DD	imagerel $unwind$?reserve@?$ImVector@PEAUImFont@@@@QEAAXH@Z
pdata	ENDS
;	COMDAT pdata
pdata	SEGMENT
$pdata$?reserve@?$ImVector@M@@QEAAXH@Z DD imagerel $LN21@reserve
	DD	imagerel $LN21@reserve+140
	DD	imagerel $unwind$?reserve@?$ImVector@M@@QEAAXH@Z
pdata	ENDS
;	COMDAT pdata
pdata	SEGMENT
$pdata$?reserve@?$ImVector@H@@QEAAXH@Z DD imagerel $LN21@reserve
	DD	imagerel $LN21@reserve+140
	DD	imagerel $unwind$?reserve@?$ImVector@H@@QEAAXH@Z
pdata	ENDS
;	COMDAT pdata
pdata	SEGMENT
$pdata$?reserve@?$ImVector@PEAUImDrawList@@@@QEAAXH@Z DD imagerel $LN21@reserve
	DD	imagerel $LN21@reserve+140
	DD	imagerel $unwind$?reserve@?$ImVector@PEAUImDrawList@@@@QEAAXH@Z
pdata	ENDS
;	COMDAT pdata
pdata	SEGMENT
$pdata$?reserve@?$ImVector@UImGuiKeyRoutingData@@@@QEAAXH@Z DD imagerel $LN21@reserve
	DD	imagerel $LN21@reserve+140
	DD	imagerel $unwind$?reserve@?$ImVector@UImGuiKeyRoutingData@@@@QEAAXH@Z
pdata	ENDS
;	COMDAT pdata
pdata	SEGMENT
$pdata$?reserve@?$ImVector@UImGuiStackLevelInfo@@@@QEAAXH@Z DD imagerel $LN21@reserve
	DD	imagerel $LN21@reserve+145
	DD	imagerel $unwind$?reserve@?$ImVector@UImGuiStackLevelInfo@@@@QEAAXH@Z
pdata	ENDS
;	COMDAT pdata
pdata	SEGMENT
$pdata$?reserve@?$ImVector@UImGuiInputEvent@@@@QEAAXH@Z DD imagerel $LN21@reserve
	DD	imagerel $LN21@reserve+145
	DD	imagerel $unwind$?reserve@?$ImVector@UImGuiInputEvent@@@@QEAAXH@Z
pdata	ENDS
;	COMDAT pdata
pdata	SEGMENT
$pdata$?insert@?$ImVector@PEAUImGuiWindow@@@@QEAAPEAPEAUImGuiWindow@@PEBQEAU2@AEBQEAU2@@Z DD imagerel $LN11@insert
	DD	imagerel $LN11@insert+152
	DD	imagerel $unwind$?insert@?$ImVector@PEAUImGuiWindow@@@@QEAAPEAPEAUImGuiWindow@@PEBQEAU2@AEBQEAU2@@Z
pdata	ENDS
;	COMDAT pdata
pdata	SEGMENT
$pdata$?reserve@?$ImVector@UImGuiWindowStackData@@@@QEAAXH@Z DD imagerel $LN21@reserve
	DD	imagerel $LN21@reserve+137
	DD	imagerel $unwind$?reserve@?$ImVector@UImGuiWindowStackData@@@@QEAAXH@Z
pdata	ENDS
;	COMDAT pdata
pdata	SEGMENT
$pdata$?reserve@?$ImVector@UImGuiColorMod@@@@QEAAXH@Z DD imagerel $LN21@reserve
	DD	imagerel $LN21@reserve+145
	DD	imagerel $unwind$?reserve@?$ImVector@UImGuiColorMod@@@@QEAAXH@Z
pdata	ENDS
;	COMDAT pdata
pdata	SEGMENT
$pdata$?reserve@?$ImVector@UImGuiStyleMod@@@@QEAAXH@Z DD imagerel $LN21@reserve
	DD	imagerel $LN21@reserve+145
	DD	imagerel $unwind$?reserve@?$ImVector@UImGuiStyleMod@@@@QEAAXH@Z
pdata	ENDS
;	COMDAT pdata
pdata	SEGMENT
$pdata$?reserve@?$ImVector@UImGuiGroupData@@@@QEAAXH@Z DD imagerel $LN21@reserve
	DD	imagerel $LN21@reserve+145
	DD	imagerel $unwind$?reserve@?$ImVector@UImGuiGroupData@@@@QEAAXH@Z
pdata	ENDS
;	COMDAT pdata
pdata	SEGMENT
$pdata$?reserve@?$ImVector@UImGuiPopupData@@@@QEAAXH@Z DD imagerel $LN21@reserve
	DD	imagerel $LN21@reserve+137
	DD	imagerel $unwind$?reserve@?$ImVector@UImGuiPopupData@@@@QEAAXH@Z
pdata	ENDS
;	COMDAT pdata
pdata	SEGMENT
$pdata$?clear@?$ImVector@PEAUImGuiViewportP@@@@QEAAXXZ DD imagerel $LN13@clear
	DD	imagerel $LN13@clear+60
	DD	imagerel $unwind$?clear@?$ImVector@PEAUImGuiViewportP@@@@QEAAXXZ
pdata	ENDS
;	COMDAT pdata
pdata	SEGMENT
$pdata$?reserve@?$ImVector@PEAUImGuiViewportP@@@@QEAAXH@Z DD imagerel $LN21@reserve
	DD	imagerel $LN21@reserve+140
	DD	imagerel $unwind$?reserve@?$ImVector@PEAUImGuiViewportP@@@@QEAAXH@Z
pdata	ENDS
;	COMDAT pdata
pdata	SEGMENT
$pdata$?clear@?$ImVector@UImGuiListClipperData@@@@QEAAXXZ DD imagerel $LN13@clear
	DD	imagerel $LN13@clear+60
	DD	imagerel $unwind$?clear@?$ImVector@UImGuiListClipperData@@@@QEAAXXZ
pdata	ENDS
;	COMDAT pdata
pdata	SEGMENT
$pdata$?clear@?$ImVector@UImGuiTableTempData@@@@QEAAXXZ DD imagerel $LN13@clear
	DD	imagerel $LN13@clear+60
	DD	imagerel $unwind$?clear@?$ImVector@UImGuiTableTempData@@@@QEAAXXZ
pdata	ENDS
;	COMDAT pdata
pdata	SEGMENT
$pdata$??1?$ImVector@UImGuiTable@@@@QEAA@XZ DD imagerel $LN14@ImVector
	DD	imagerel $LN14@ImVector+43
	DD	imagerel $unwind$??1?$ImVector@UImGuiTable@@@@QEAA@XZ
pdata	ENDS
;	COMDAT pdata
pdata	SEGMENT
$pdata$?clear@?$ImVector@UImGuiTable@@@@QEAAXXZ DD imagerel $LN13@clear
	DD	imagerel $LN13@clear+60
	DD	imagerel $unwind$?clear@?$ImVector@UImGuiTable@@@@QEAAXXZ
pdata	ENDS
;	COMDAT pdata
pdata	SEGMENT
$pdata$??1?$ImVector@UImGuiTabBar@@@@QEAA@XZ DD imagerel $LN14@ImVector
	DD	imagerel $LN14@ImVector+43
	DD	imagerel $unwind$??1?$ImVector@UImGuiTabBar@@@@QEAA@XZ
pdata	ENDS
;	COMDAT pdata
pdata	SEGMENT
$pdata$?clear@?$ImVector@UImGuiTabBar@@@@QEAAXXZ DD imagerel $LN13@clear
	DD	imagerel $LN13@clear+60
	DD	imagerel $unwind$?clear@?$ImVector@UImGuiTabBar@@@@QEAAXXZ
pdata	ENDS
;	COMDAT pdata
pdata	SEGMENT
$pdata$?reserve@?$ImVector@UImGuiSettingsHandler@@@@QEAAXH@Z DD imagerel $LN21@reserve
	DD	imagerel $LN21@reserve+145
	DD	imagerel $unwind$?reserve@?$ImVector@UImGuiSettingsHandler@@@@QEAAXH@Z
pdata	ENDS
;	COMDAT pdata
pdata	SEGMENT
$pdata$?clear@?$ImVector@UImGuiOldColumns@@@@QEAAXXZ DD imagerel $LN13@clear
	DD	imagerel $LN13@clear+60
	DD	imagerel $unwind$?clear@?$ImVector@UImGuiOldColumns@@@@QEAAXXZ
pdata	ENDS
;	COMDAT pdata
pdata	SEGMENT
$pdata$??1?$ImVector@UImGuiTabItem@@@@QEAA@XZ DD imagerel $LN14@ImVector
	DD	imagerel $LN14@ImVector+43
	DD	imagerel $unwind$??1?$ImVector@UImGuiTabItem@@@@QEAA@XZ
pdata	ENDS
;	COMDAT pdata
pdata	SEGMENT
$pdata$??_GImGuiListClipperData@@QEAAPEAXI@Z DD imagerel $LN21@scalar
	DD	imagerel $LN21@scalar+52
	DD	imagerel $unwind$??_GImGuiListClipperData@@QEAAPEAXI@Z
pdata	ENDS
;	COMDAT pdata
pdata	SEGMENT
$pdata$??1ImGuiTableTempData@@QEAA@XZ DD imagerel $LN20@ImGuiTable
	DD	imagerel $LN20@ImGuiTable+59
	DD	imagerel $unwind$??1ImGuiTableTempData@@QEAA@XZ
pdata	ENDS
;	COMDAT pdata
pdata	SEGMENT
$pdata$??_GImGuiTableTempData@@QEAAPEAXI@Z DD imagerel $LN24@scalar
	DD	imagerel $LN24@scalar+71
	DD	imagerel $unwind$??_GImGuiTableTempData@@QEAAPEAXI@Z
pdata	ENDS
;	COMDAT pdata
pdata	SEGMENT
$pdata$??_GImGuiTable@@QEAAPEAXI@Z DD imagerel $LN6@scalar
	DD	imagerel $LN6@scalar+23
	DD	imagerel $unwind$??_GImGuiTable@@QEAAPEAXI@Z
pdata	ENDS
;	COMDAT pdata
pdata	SEGMENT
$pdata$??1ImGuiTabBar@@QEAA@XZ DD imagerel $LN32@ImGuiTabBa
	DD	imagerel $LN32@ImGuiTabBa+86
	DD	imagerel $unwind$??1ImGuiTabBar@@QEAA@XZ
pdata	ENDS
;	COMDAT pdata
pdata	SEGMENT
$pdata$??_GImGuiTabBar@@QEAAPEAXI@Z DD imagerel $LN36@scalar
	DD	imagerel $LN36@scalar+89
	DD	imagerel $unwind$??_GImGuiTabBar@@QEAAPEAXI@Z
pdata	ENDS
;	COMDAT pdata
pdata	SEGMENT
$pdata$??1ImGuiOldColumns@@QEAA@XZ DD imagerel $LN32@ImGuiOldCo
	DD	imagerel $LN32@ImGuiOldCo+105
	DD	imagerel $unwind$??1ImGuiOldColumns@@QEAA@XZ
pdata	ENDS
;	COMDAT pdata
pdata	SEGMENT
$pdata$??_GImGuiOldColumns@@QEAAPEAXI@Z DD imagerel $LN6@scalar
	DD	imagerel $LN6@scalar+23
	DD	imagerel $unwind$??_GImGuiOldColumns@@QEAAPEAXI@Z
pdata	ENDS
;	COMDAT pdata
pdata	SEGMENT
$pdata$??1?$ImVector@G@@QEAA@XZ DD imagerel $LN14@ImVector
	DD	imagerel $LN14@ImVector+43
	DD	imagerel $unwind$??1?$ImVector@G@@QEAA@XZ
pdata	ENDS
;	COMDAT pdata
pdata	SEGMENT
$pdata$?clear@?$ImVector@G@@QEAAXXZ DD imagerel $LN13@clear
	DD	imagerel $LN13@clear+60
	DD	imagerel $unwind$?clear@?$ImVector@G@@QEAAXXZ
pdata	ENDS
;	COMDAT pdata
pdata	SEGMENT
$pdata$?resize@?$ImVector@G@@QEAAXH@Z DD imagerel $LN9@resize
	DD	imagerel $LN9@resize+72
	DD	imagerel $unwind$?resize@?$ImVector@G@@QEAAXH@Z
pdata	ENDS
;	COMDAT pdata
pdata	SEGMENT
$pdata$?reserve@?$ImVector@G@@QEAAXH@Z DD imagerel $LN21@reserve
	DD	imagerel $LN21@reserve+138
	DD	imagerel $unwind$?reserve@?$ImVector@G@@QEAAXH@Z
pdata	ENDS
;	COMDAT pdata
pdata	SEGMENT
$pdata$?push_back@?$ImVector@G@@QEAAXAEBG@Z DD imagerel $LN9@push_back
	DD	imagerel $LN9@push_back+95
	DD	imagerel $unwind$?push_back@?$ImVector@G@@QEAAXAEBG@Z
pdata	ENDS
;	COMDAT pdata
pdata	SEGMENT
$pdata$??1?$ImVector@UImGuiTextRange@ImGuiTextFilter@@@@QEAA@XZ DD imagerel $LN14@ImVector
	DD	imagerel $LN14@ImVector+43
	DD	imagerel $unwind$??1?$ImVector@UImGuiTextRange@ImGuiTextFilter@@@@QEAA@XZ
pdata	ENDS
;	COMDAT pdata
pdata	SEGMENT
$pdata$??1?$ImVector@D@@QEAA@XZ DD imagerel $LN14@ImVector
	DD	imagerel $LN14@ImVector+43
	DD	imagerel $unwind$??1?$ImVector@D@@QEAA@XZ
pdata	ENDS
;	COMDAT pdata
pdata	SEGMENT
$pdata$?clear@?$ImVector@D@@QEAAXXZ DD imagerel $LN13@clear
	DD	imagerel $LN13@clear+60
	DD	imagerel $unwind$?clear@?$ImVector@D@@QEAAXXZ
pdata	ENDS
;	COMDAT pdata
pdata	SEGMENT
$pdata$?resize@?$ImVector@D@@QEAAXH@Z DD imagerel $LN9@resize
	DD	imagerel $LN9@resize+72
	DD	imagerel $unwind$?resize@?$ImVector@D@@QEAAXH@Z
pdata	ENDS
;	COMDAT pdata
pdata	SEGMENT
$pdata$?resize@?$ImVector@D@@QEAAXHAEBD@Z DD imagerel $LN18@resize
	DD	imagerel $LN18@resize+112
	DD	imagerel $unwind$?resize@?$ImVector@D@@QEAAXHAEBD@Z
pdata	ENDS
;	COMDAT pdata
pdata	SEGMENT
$pdata$?reserve@?$ImVector@D@@QEAAXH@Z DD imagerel $LN21@reserve
	DD	imagerel $LN21@reserve+132
	DD	imagerel $unwind$?reserve@?$ImVector@D@@QEAAXH@Z
pdata	ENDS
;	COMDAT pdata
pdata	SEGMENT
$pdata$?push_back@?$ImVector@D@@QEAAXAEBD@Z DD imagerel $LN9@push_back
	DD	imagerel $LN9@push_back+93
	DD	imagerel $unwind$?push_back@?$ImVector@D@@QEAAXAEBD@Z
pdata	ENDS
;	COMDAT pdata
pdata	SEGMENT
$pdata$??1?$ImVector@UImGuiStoragePair@ImGuiStorage@@@@QEAA@XZ DD imagerel $LN14@ImVector
	DD	imagerel $LN14@ImVector+43
	DD	imagerel $unwind$??1?$ImVector@UImGuiStoragePair@ImGuiStorage@@@@QEAA@XZ
pdata	ENDS
;	COMDAT pdata
pdata	SEGMENT
$pdata$?clear@?$ImVector@UImGuiStoragePair@ImGuiStorage@@@@QEAAXXZ DD imagerel $LN13@clear
	DD	imagerel $LN13@clear+60
	DD	imagerel $unwind$?clear@?$ImVector@UImGuiStoragePair@ImGuiStorage@@@@QEAAXXZ
pdata	ENDS
;	COMDAT pdata
pdata	SEGMENT
$pdata$?insert@?$ImVector@UImGuiStoragePair@ImGuiStorage@@@@QEAAPEAUImGuiStoragePair@ImGuiStorage@@PEBU23@AEBU23@@Z DD imagerel $LN30@insert
	DD	imagerel $LN30@insert+271
	DD	imagerel $unwind$?insert@?$ImVector@UImGuiStoragePair@ImGuiStorage@@@@QEAAPEAUImGuiStoragePair@ImGuiStorage@@PEBU23@AEBU23@@Z
pdata	ENDS
;	COMDAT pdata
pdata	SEGMENT
$pdata$??1?$ImVector@UImDrawCmd@@@@QEAA@XZ DD imagerel $LN14@ImVector
	DD	imagerel $LN14@ImVector+43
	DD	imagerel $unwind$??1?$ImVector@UImDrawCmd@@@@QEAA@XZ
pdata	ENDS
;	COMDAT pdata
pdata	SEGMENT
$pdata$?push_front@?$ImVector@UImDrawCmd@@@@QEAAXAEBUImDrawCmd@@@Z DD imagerel $LN15@push_front
	DD	imagerel $LN15@push_front+152
	DD	imagerel $unwind$?push_front@?$ImVector@UImDrawCmd@@@@QEAAXAEBUImDrawCmd@@@Z
pdata	ENDS
;	COMDAT pdata
pdata	SEGMENT
$pdata$??1?$ImVector@UImDrawChannel@@@@QEAA@XZ DD imagerel $LN14@ImVector
	DD	imagerel $LN14@ImVector+43
	DD	imagerel $unwind$??1?$ImVector@UImDrawChannel@@@@QEAA@XZ
pdata	ENDS
;	COMDAT pdata
pdata	SEGMENT
$pdata$?clear@?$ImVector@UImDrawChannel@@@@QEAAXXZ DD imagerel $LN13@clear
	DD	imagerel $LN13@clear+60
	DD	imagerel $unwind$?clear@?$ImVector@UImDrawChannel@@@@QEAAXXZ
pdata	ENDS
;	COMDAT pdata
pdata	SEGMENT
$pdata$??1?$ImVector@UImDrawVert@@@@QEAA@XZ DD imagerel $LN14@ImVector
	DD	imagerel $LN14@ImVector+43
	DD	imagerel $unwind$??1?$ImVector@UImDrawVert@@@@QEAA@XZ
pdata	ENDS
;	COMDAT pdata
pdata	SEGMENT
$pdata$?reserve@?$ImVector@UImDrawVert@@@@QEAAXH@Z DD imagerel $LN21@reserve
	DD	imagerel $LN21@reserve+145
	DD	imagerel $unwind$?reserve@?$ImVector@UImDrawVert@@@@QEAAXH@Z
pdata	ENDS
;	COMDAT pdata
pdata	SEGMENT
$pdata$??1?$ImVector@UImVec4@@@@QEAA@XZ DD imagerel $LN14@ImVector
	DD	imagerel $LN14@ImVector+43
	DD	imagerel $unwind$??1?$ImVector@UImVec4@@@@QEAA@XZ
pdata	ENDS
;	COMDAT pdata
pdata	SEGMENT
$pdata$??1?$ImVector@PEAX@@QEAA@XZ DD imagerel $LN14@ImVector
	DD	imagerel $LN14@ImVector+43
	DD	imagerel $unwind$??1?$ImVector@PEAX@@QEAA@XZ
pdata	ENDS
;	COMDAT pdata
pdata	SEGMENT
$pdata$??1?$ImVector@UImVec2@@@@QEAA@XZ DD imagerel $LN14@ImVector
	DD	imagerel $LN14@ImVector+43
	DD	imagerel $unwind$??1?$ImVector@UImVec2@@@@QEAA@XZ
pdata	ENDS
;	COMDAT pdata
pdata	SEGMENT
$pdata$?clear@?$ImVector@UImVec2@@@@QEAAXXZ DD imagerel $LN13@clear
	DD	imagerel $LN13@clear+60
	DD	imagerel $unwind$?clear@?$ImVector@UImVec2@@@@QEAAXXZ
pdata	ENDS
;	COMDAT pdata
pdata	SEGMENT
$pdata$?push_back@?$ImVector@UImVec2@@@@QEAAXAEBUImVec2@@@Z DD imagerel $LN9@push_back
	DD	imagerel $LN9@push_back+95
	DD	imagerel $unwind$?push_back@?$ImVector@UImVec2@@@@QEAAXAEBUImVec2@@@Z
pdata	ENDS
;	COMDAT pdata
pdata	SEGMENT
$pdata$??1?$ImVector@I@@QEAA@XZ DD imagerel $LN14@ImVector
	DD	imagerel $LN14@ImVector+43
	DD	imagerel $unwind$??1?$ImVector@I@@QEAA@XZ
pdata	ENDS
;	COMDAT pdata
pdata	SEGMENT
$pdata$?clear@?$ImVector@I@@QEAAXXZ DD imagerel $LN13@clear
	DD	imagerel $LN13@clear+60
	DD	imagerel $unwind$?clear@?$ImVector@I@@QEAAXXZ
pdata	ENDS
;	COMDAT pdata
pdata	SEGMENT
$pdata$?resize@?$ImVector@I@@QEAAXH@Z DD imagerel $LN28@resize
	DD	imagerel $LN28@resize+188
	DD	imagerel $unwind$?resize@?$ImVector@I@@QEAAXH@Z
pdata	ENDS
;	COMDAT pdata
pdata	SEGMENT
$pdata$?push_back@?$ImVector@I@@QEAAXAEBI@Z DD imagerel $LN28@push_back
	DD	imagerel $LN28@push_back+206
	DD	imagerel $unwind$?push_back@?$ImVector@I@@QEAAXAEBI@Z
pdata	ENDS
;	COMDAT pdata
pdata	SEGMENT
$pdata$??1?$ImVector@PEAUImFont@@@@QEAA@XZ DD imagerel $LN14@ImVector
	DD	imagerel $LN14@ImVector+43
	DD	imagerel $unwind$??1?$ImVector@PEAUImFont@@@@QEAA@XZ
pdata	ENDS
;	COMDAT pdata
pdata	SEGMENT
$pdata$?clear@?$ImVector@PEAUImFont@@@@QEAAXXZ DD imagerel $LN13@clear
	DD	imagerel $LN13@clear+60
	DD	imagerel $unwind$?clear@?$ImVector@PEAUImFont@@@@QEAAXXZ
pdata	ENDS
;	COMDAT pdata
pdata	SEGMENT
$pdata$?push_back@?$ImVector@PEAUImFont@@@@QEAAXAEBQEAUImFont@@@Z DD imagerel $LN28@push_back
	DD	imagerel $LN28@push_back+207
	DD	imagerel $unwind$?push_back@?$ImVector@PEAUImFont@@@@QEAAXAEBQEAUImFont@@@Z
pdata	ENDS
;	COMDAT pdata
pdata	SEGMENT
$pdata$??1?$ImVector@M@@QEAA@XZ DD imagerel $LN14@ImVector
	DD	imagerel $LN14@ImVector+43
	DD	imagerel $unwind$??1?$ImVector@M@@QEAA@XZ
pdata	ENDS
;	COMDAT pdata
pdata	SEGMENT
$pdata$?clear@?$ImVector@M@@QEAAXXZ DD imagerel $LN13@clear
	DD	imagerel $LN13@clear+60
	DD	imagerel $unwind$?clear@?$ImVector@M@@QEAAXXZ
pdata	ENDS
;	COMDAT pdata
pdata	SEGMENT
$pdata$?resize@?$ImVector@M@@QEAAXH@Z DD imagerel $LN9@resize
	DD	imagerel $LN9@resize+49
	DD	imagerel $unwind$?resize@?$ImVector@M@@QEAAXH@Z
pdata	ENDS
;	COMDAT pdata
pdata	SEGMENT
$pdata$??1?$ImVector@H@@QEAA@XZ DD imagerel $LN14@ImVector
	DD	imagerel $LN14@ImVector+43
	DD	imagerel $unwind$??1?$ImVector@H@@QEAA@XZ
pdata	ENDS
;	COMDAT pdata
pdata	SEGMENT
$pdata$?clear@?$ImVector@H@@QEAAXXZ DD imagerel $LN13@clear
	DD	imagerel $LN13@clear+60
	DD	imagerel $unwind$?clear@?$ImVector@H@@QEAAXXZ
pdata	ENDS
;	COMDAT pdata
pdata	SEGMENT
$pdata$?resize@?$ImVector@H@@QEAAXH@Z DD imagerel $LN9@resize
	DD	imagerel $LN9@resize+49
	DD	imagerel $unwind$?resize@?$ImVector@H@@QEAAXH@Z
pdata	ENDS
;	COMDAT pdata
pdata	SEGMENT
$pdata$?push_back@?$ImVector@H@@QEAAXAEBH@Z DD imagerel $LN9@push_back
	DD	imagerel $LN9@push_back+93
	DD	imagerel $unwind$?push_back@?$ImVector@H@@QEAAXAEBH@Z
pdata	ENDS
;	COMDAT pdata
pdata	SEGMENT
$pdata$??1?$ImVector@PEAUImDrawList@@@@QEAA@XZ DD imagerel $LN14@ImVector
	DD	imagerel $LN14@ImVector+43
	DD	imagerel $unwind$??1?$ImVector@PEAUImDrawList@@@@QEAA@XZ
pdata	ENDS
;	COMDAT pdata
pdata	SEGMENT
$pdata$?resize@?$ImVector@PEAUImDrawList@@@@QEAAXH@Z DD imagerel $LN28@resize
	DD	imagerel $LN28@resize+188
	DD	imagerel $unwind$?resize@?$ImVector@PEAUImDrawList@@@@QEAAXH@Z
pdata	ENDS
;	COMDAT pdata
pdata	SEGMENT
$pdata$?push_back@?$ImVector@PEAUImDrawList@@@@QEAAXAEBQEAUImDrawList@@@Z DD imagerel $LN28@push_back
	DD	imagerel $LN28@push_back+207
	DD	imagerel $unwind$?push_back@?$ImVector@PEAUImDrawList@@@@QEAAXAEBQEAUImDrawList@@@Z
pdata	ENDS
;	COMDAT pdata
pdata	SEGMENT
$pdata$??1?$ImVector@UImGuiKeyRoutingData@@@@QEAA@XZ DD imagerel $LN14@ImVector
	DD	imagerel $LN14@ImVector+43
	DD	imagerel $unwind$??1?$ImVector@UImGuiKeyRoutingData@@@@QEAA@XZ
pdata	ENDS
;	COMDAT pdata
pdata	SEGMENT
$pdata$?clear@?$ImVector@UImGuiKeyRoutingData@@@@QEAAXXZ DD imagerel $LN13@clear
	DD	imagerel $LN13@clear+60
	DD	imagerel $unwind$?clear@?$ImVector@UImGuiKeyRoutingData@@@@QEAAXXZ
pdata	ENDS
;	COMDAT pdata
pdata	SEGMENT
$pdata$?resize@?$ImVector@UImGuiKeyRoutingData@@@@QEAAXH@Z DD imagerel $LN29@resize
	DD	imagerel $LN29@resize+162
	DD	imagerel $unwind$?resize@?$ImVector@UImGuiKeyRoutingData@@@@QEAAXH@Z
pdata	ENDS
;	COMDAT pdata
pdata	SEGMENT
$pdata$?push_back@?$ImVector@UImGuiKeyRoutingData@@@@QEAAXAEBUImGuiKeyRoutingData@@@Z DD imagerel $LN28@push_back
	DD	imagerel $LN28@push_back+210
	DD	imagerel $unwind$?push_back@?$ImVector@UImGuiKeyRoutingData@@@@QEAAXAEBUImGuiKeyRoutingData@@@Z
pdata	ENDS
;	COMDAT pdata
pdata	SEGMENT
$pdata$??1?$ImVector@UImGuiListClipperRange@@@@QEAA@XZ DD imagerel $LN14@ImVector
	DD	imagerel $LN14@ImVector+43
	DD	imagerel $unwind$??1?$ImVector@UImGuiListClipperRange@@@@QEAA@XZ
pdata	ENDS
;	COMDAT pdata
pdata	SEGMENT
$pdata$??1?$ImVector@UImGuiOldColumnData@@@@QEAA@XZ DD imagerel $LN14@ImVector
	DD	imagerel $LN14@ImVector+43
	DD	imagerel $unwind$??1?$ImVector@UImGuiOldColumnData@@@@QEAA@XZ
pdata	ENDS
;	COMDAT pdata
pdata	SEGMENT
$pdata$??1?$ImVector@UImGuiStackLevelInfo@@@@QEAA@XZ DD imagerel $LN14@ImVector
	DD	imagerel $LN14@ImVector+43
	DD	imagerel $unwind$??1?$ImVector@UImGuiStackLevelInfo@@@@QEAA@XZ
pdata	ENDS
;	COMDAT pdata
pdata	SEGMENT
$pdata$?resize@?$ImVector@UImGuiStackLevelInfo@@@@QEAAXH@Z DD imagerel $LN9@resize
	DD	imagerel $LN9@resize+49
	DD	imagerel $unwind$?resize@?$ImVector@UImGuiStackLevelInfo@@@@QEAAXH@Z
pdata	ENDS
;	COMDAT pdata
pdata	SEGMENT
$pdata$?resize@?$ImVector@UImGuiStackLevelInfo@@@@QEAAXHAEBUImGuiStackLevelInfo@@@Z DD imagerel $LN17@resize
	DD	imagerel $LN17@resize+169
	DD	imagerel $unwind$?resize@?$ImVector@UImGuiStackLevelInfo@@@@QEAAXHAEBUImGuiStackLevelInfo@@@Z
pdata	ENDS
;	COMDAT pdata
pdata	SEGMENT
$pdata$??1?$ImVector@UImGuiInputEvent@@@@QEAA@XZ DD imagerel $LN14@ImVector
	DD	imagerel $LN14@ImVector+43
	DD	imagerel $unwind$??1?$ImVector@UImGuiInputEvent@@@@QEAA@XZ
pdata	ENDS
;	COMDAT pdata
pdata	SEGMENT
$pdata$?resize@?$ImVector@UImGuiInputEvent@@@@QEAAXH@Z DD imagerel $LN9@resize
	DD	imagerel $LN9@resize+49
	DD	imagerel $unwind$?resize@?$ImVector@UImGuiInputEvent@@@@QEAAXH@Z
pdata	ENDS
;	COMDAT pdata
pdata	SEGMENT
$pdata$?push_back@?$ImVector@UImGuiInputEvent@@@@QEAAXAEBUImGuiInputEvent@@@Z DD imagerel $LN9@push_back
	DD	imagerel $LN9@push_back+110
	DD	imagerel $unwind$?push_back@?$ImVector@UImGuiInputEvent@@@@QEAAXAEBUImGuiInputEvent@@@Z
pdata	ENDS
;	COMDAT pdata
pdata	SEGMENT
$pdata$?erase@?$ImVector@UImGuiInputEvent@@@@QEAAPEAUImGuiInputEvent@@PEBU2@0@Z DD imagerel $LN4@erase
	DD	imagerel $LN4@erase+152
	DD	imagerel $unwind$?erase@?$ImVector@UImGuiInputEvent@@@@QEAAPEAUImGuiInputEvent@@PEBU2@0@Z
pdata	ENDS
;	COMDAT pdata
pdata	SEGMENT
$pdata$??1?$ImVector@PEAUImGuiWindow@@@@QEAA@XZ DD imagerel $LN14@ImVector
	DD	imagerel $LN14@ImVector+43
	DD	imagerel $unwind$??1?$ImVector@PEAUImGuiWindow@@@@QEAA@XZ
pdata	ENDS
;	COMDAT pdata
pdata	SEGMENT
$pdata$?clear@?$ImVector@PEAUImGuiWindow@@@@QEAAXXZ DD imagerel $LN13@clear
	DD	imagerel $LN13@clear+60
	DD	imagerel $unwind$?clear@?$ImVector@PEAUImGuiWindow@@@@QEAAXXZ
pdata	ENDS
;	COMDAT pdata
pdata	SEGMENT
$pdata$?clear_delete@?$ImVector@PEAUImGuiWindow@@@@QEAAXXZ DD imagerel $LN38@clear_dele
	DD	imagerel $LN38@clear_dele+168
	DD	imagerel $unwind$?clear_delete@?$ImVector@PEAUImGuiWindow@@@@QEAAXXZ
pdata	ENDS
;	COMDAT pdata
pdata	SEGMENT
$pdata$?resize@?$ImVector@PEAUImGuiWindow@@@@QEAAXH@Z DD imagerel $LN9@resize
	DD	imagerel $LN9@resize+49
	DD	imagerel $unwind$?resize@?$ImVector@PEAUImGuiWindow@@@@QEAAXH@Z
pdata	ENDS
;	COMDAT pdata
pdata	SEGMENT
$pdata$?reserve@?$ImVector@PEAUImGuiWindow@@@@QEAAXH@Z DD imagerel $LN21@reserve
	DD	imagerel $LN21@reserve+140
	DD	imagerel $unwind$?reserve@?$ImVector@PEAUImGuiWindow@@@@QEAAXH@Z
pdata	ENDS
;	COMDAT pdata
pdata	SEGMENT
$pdata$?push_back@?$ImVector@PEAUImGuiWindow@@@@QEAAXAEBQEAUImGuiWindow@@@Z DD imagerel $LN9@push_back
	DD	imagerel $LN9@push_back+95
	DD	imagerel $unwind$?push_back@?$ImVector@PEAUImGuiWindow@@@@QEAAXAEBQEAUImGuiWindow@@@Z
pdata	ENDS
;	COMDAT pdata
pdata	SEGMENT
$pdata$?push_front@?$ImVector@PEAUImGuiWindow@@@@QEAAXAEBQEAUImGuiWindow@@@Z DD imagerel $LN23@push_front
	DD	imagerel $LN23@push_front+181
	DD	imagerel $unwind$?push_front@?$ImVector@PEAUImGuiWindow@@@@QEAAXAEBQEAUImGuiWindow@@@Z
pdata	ENDS
;	COMDAT pdata
pdata	SEGMENT
$pdata$?erase@?$ImVector@PEAUImGuiWindow@@@@QEAAPEAPEAUImGuiWindow@@PEBQEAU2@@Z DD imagerel $LN4@erase
	DD	imagerel $LN4@erase+75
	DD	imagerel $unwind$?erase@?$ImVector@PEAUImGuiWindow@@@@QEAAPEAPEAUImGuiWindow@@PEBQEAU2@@Z
pdata	ENDS
;	COMDAT pdata
pdata	SEGMENT
$pdata$??1?$ImVector@UImGuiWindowStackData@@@@QEAA@XZ DD imagerel $LN14@ImVector
	DD	imagerel $LN14@ImVector+43
	DD	imagerel $unwind$??1?$ImVector@UImGuiWindowStackData@@@@QEAA@XZ
pdata	ENDS
;	COMDAT pdata
pdata	SEGMENT
$pdata$?clear@?$ImVector@UImGuiWindowStackData@@@@QEAAXXZ DD imagerel $LN13@clear
	DD	imagerel $LN13@clear+60
	DD	imagerel $unwind$?clear@?$ImVector@UImGuiWindowStackData@@@@QEAAXXZ
pdata	ENDS
;	COMDAT pdata
pdata	SEGMENT
$pdata$?resize@?$ImVector@UImGuiWindowStackData@@@@QEAAXH@Z DD imagerel $LN29@resize
	DD	imagerel $LN29@resize+162
	DD	imagerel $unwind$?resize@?$ImVector@UImGuiWindowStackData@@@@QEAAXH@Z
pdata	ENDS
;	COMDAT pdata
pdata	SEGMENT
$pdata$?push_back@?$ImVector@UImGuiWindowStackData@@@@QEAAXAEBUImGuiWindowStackData@@@Z DD imagerel $LN28@push_back
	DD	imagerel $LN28@push_back+256
	DD	imagerel $unwind$?push_back@?$ImVector@UImGuiWindowStackData@@@@QEAAXAEBUImGuiWindowStackData@@@Z
pdata	ENDS
;	COMDAT pdata
pdata	SEGMENT
$pdata$??1?$ImVector@UImGuiColorMod@@@@QEAA@XZ DD imagerel $LN14@ImVector
	DD	imagerel $LN14@ImVector+43
	DD	imagerel $unwind$??1?$ImVector@UImGuiColorMod@@@@QEAA@XZ
pdata	ENDS
;	COMDAT pdata
pdata	SEGMENT
$pdata$?clear@?$ImVector@UImGuiColorMod@@@@QEAAXXZ DD imagerel $LN13@clear
	DD	imagerel $LN13@clear+60
	DD	imagerel $unwind$?clear@?$ImVector@UImGuiColorMod@@@@QEAAXXZ
pdata	ENDS
;	COMDAT pdata
pdata	SEGMENT
$pdata$?push_back@?$ImVector@UImGuiColorMod@@@@QEAAXAEBUImGuiColorMod@@@Z DD imagerel $LN28@push_back
	DD	imagerel $LN28@push_back+225
	DD	imagerel $unwind$?push_back@?$ImVector@UImGuiColorMod@@@@QEAAXAEBUImGuiColorMod@@@Z
pdata	ENDS
;	COMDAT pdata
pdata	SEGMENT
$pdata$??1?$ImVector@UImGuiStyleMod@@@@QEAA@XZ DD imagerel $LN14@ImVector
	DD	imagerel $LN14@ImVector+43
	DD	imagerel $unwind$??1?$ImVector@UImGuiStyleMod@@@@QEAA@XZ
pdata	ENDS
;	COMDAT pdata
pdata	SEGMENT
$pdata$?clear@?$ImVector@UImGuiStyleMod@@@@QEAAXXZ DD imagerel $LN13@clear
	DD	imagerel $LN13@clear+60
	DD	imagerel $unwind$?clear@?$ImVector@UImGuiStyleMod@@@@QEAAXXZ
pdata	ENDS
;	COMDAT pdata
pdata	SEGMENT
$pdata$?push_back@?$ImVector@UImGuiStyleMod@@@@QEAAXAEBUImGuiStyleMod@@@Z DD imagerel $LN28@push_back
	DD	imagerel $LN28@push_back+227
	DD	imagerel $unwind$?push_back@?$ImVector@UImGuiStyleMod@@@@QEAAXAEBUImGuiStyleMod@@@Z
pdata	ENDS
;	COMDAT pdata
pdata	SEGMENT
$pdata$??1?$ImVector@UImGuiGroupData@@@@QEAA@XZ DD imagerel $LN14@ImVector
	DD	imagerel $LN14@ImVector+43
	DD	imagerel $unwind$??1?$ImVector@UImGuiGroupData@@@@QEAA@XZ
pdata	ENDS
;	COMDAT pdata
pdata	SEGMENT
$pdata$?clear@?$ImVector@UImGuiGroupData@@@@QEAAXXZ DD imagerel $LN13@clear
	DD	imagerel $LN13@clear+60
	DD	imagerel $unwind$?clear@?$ImVector@UImGuiGroupData@@@@QEAAXXZ
pdata	ENDS
;	COMDAT pdata
pdata	SEGMENT
$pdata$?resize@?$ImVector@UImGuiGroupData@@@@QEAAXH@Z DD imagerel $LN28@resize
	DD	imagerel $LN28@resize+196
	DD	imagerel $unwind$?resize@?$ImVector@UImGuiGroupData@@@@QEAAXH@Z
pdata	ENDS
;	COMDAT pdata
pdata	SEGMENT
$pdata$??1?$ImVector@UImGuiPopupData@@@@QEAA@XZ DD imagerel $LN14@ImVector
	DD	imagerel $LN14@ImVector+43
	DD	imagerel $unwind$??1?$ImVector@UImGuiPopupData@@@@QEAA@XZ
pdata	ENDS
;	COMDAT pdata
pdata	SEGMENT
$pdata$?clear@?$ImVector@UImGuiPopupData@@@@QEAAXXZ DD imagerel $LN13@clear
	DD	imagerel $LN13@clear+60
	DD	imagerel $unwind$?clear@?$ImVector@UImGuiPopupData@@@@QEAAXXZ
pdata	ENDS
;	COMDAT pdata
pdata	SEGMENT
$pdata$?resize@?$ImVector@UImGuiPopupData@@@@QEAAXH@Z DD imagerel $LN28@resize
	DD	imagerel $LN28@resize+188
	DD	imagerel $unwind$?resize@?$ImVector@UImGuiPopupData@@@@QEAAXH@Z
pdata	ENDS
;	COMDAT pdata
pdata	SEGMENT
$pdata$?push_back@?$ImVector@UImGuiPopupData@@@@QEAAXAEBUImGuiPopupData@@@Z DD imagerel $LN28@push_back
	DD	imagerel $LN28@push_back+238
	DD	imagerel $unwind$?push_back@?$ImVector@UImGuiPopupData@@@@QEAAXAEBUImGuiPopupData@@@Z
pdata	ENDS
;	COMDAT pdata
pdata	SEGMENT
$pdata$??1?$ImVector@PEAUImGuiViewportP@@@@QEAA@XZ DD imagerel $LN14@ImVector
	DD	imagerel $LN14@ImVector+43
	DD	imagerel $unwind$??1?$ImVector@PEAUImGuiViewportP@@@@QEAA@XZ
pdata	ENDS
;	COMDAT pdata
pdata	SEGMENT
$pdata$?clear_delete@?$ImVector@PEAUImGuiViewportP@@@@QEAAXXZ DD imagerel $LN38@clear_dele
	DD	imagerel $LN38@clear_dele+168
	DD	imagerel $unwind$?clear_delete@?$ImVector@PEAUImGuiViewportP@@@@QEAAXXZ
pdata	ENDS
;	COMDAT pdata
pdata	SEGMENT
$pdata$?push_back@?$ImVector@PEAUImGuiViewportP@@@@QEAAXAEBQEAUImGuiViewportP@@@Z DD imagerel $LN28@push_back
	DD	imagerel $LN28@push_back+207
	DD	imagerel $unwind$?push_back@?$ImVector@PEAUImGuiViewportP@@@@QEAAXAEBQEAUImGuiViewportP@@@Z
pdata	ENDS
;	COMDAT pdata
pdata	SEGMENT
$pdata$??1?$ImVector@E@@QEAA@XZ DD imagerel $LN14@ImVector
	DD	imagerel $LN14@ImVector+43
	DD	imagerel $unwind$??1?$ImVector@E@@QEAA@XZ
pdata	ENDS
;	COMDAT pdata
pdata	SEGMENT
$pdata$?clear@?$ImVector@E@@QEAAXXZ DD imagerel $LN13@clear
	DD	imagerel $LN13@clear+60
	DD	imagerel $unwind$?clear@?$ImVector@E@@QEAAXXZ
pdata	ENDS
;	COMDAT pdata
pdata	SEGMENT
$pdata$??1?$ImVector@UImGuiListClipperData@@@@QEAA@XZ DD imagerel $LN14@ImVector
	DD	imagerel $LN14@ImVector+43
	DD	imagerel $unwind$??1?$ImVector@UImGuiListClipperData@@@@QEAA@XZ
pdata	ENDS
;	COMDAT pdata
pdata	SEGMENT
$pdata$?clear_destruct@?$ImVector@UImGuiListClipperData@@@@QEAAXXZ DD imagerel $LN42@clear_dest
	DD	imagerel $LN42@clear_dest+147
	DD	imagerel $unwind$?clear_destruct@?$ImVector@UImGuiListClipperData@@@@QEAAXXZ
pdata	ENDS
;	COMDAT pdata
pdata	SEGMENT
$pdata$??1?$ImVector@UImGuiTableTempData@@@@QEAA@XZ DD imagerel $LN14@ImVector
	DD	imagerel $LN14@ImVector+43
	DD	imagerel $unwind$??1?$ImVector@UImGuiTableTempData@@@@QEAA@XZ
pdata	ENDS
;	COMDAT pdata
pdata	SEGMENT
$pdata$?clear_destruct@?$ImVector@UImGuiTableTempData@@@@QEAAXXZ DD imagerel $LN45@clear_dest
	DD	imagerel $LN45@clear_dest+172
	DD	imagerel $unwind$?clear_destruct@?$ImVector@UImGuiTableTempData@@@@QEAAXXZ
pdata	ENDS
;	COMDAT pdata
pdata	SEGMENT
$pdata$??1?$ImPool@UImGuiTable@@@@QEAA@XZ DD imagerel $LN32@ImPool
	DD	imagerel $LN32@ImPool+89
	DD	imagerel $unwind$??1?$ImPool@UImGuiTable@@@@QEAA@XZ
pdata	ENDS
;	COMDAT pdata
pdata	SEGMENT
$pdata$?Clear@?$ImPool@UImGuiTable@@@@QEAAXXZ DD imagerel $LN45@Clear
	DD	imagerel $LN45@Clear+185
	DD	imagerel $unwind$?Clear@?$ImPool@UImGuiTable@@@@QEAAXXZ
pdata	ENDS
;	COMDAT pdata
pdata	SEGMENT
$pdata$??1?$ImPool@UImGuiTabBar@@@@QEAA@XZ DD imagerel $LN32@ImPool
	DD	imagerel $LN32@ImPool+89
	DD	imagerel $unwind$??1?$ImPool@UImGuiTabBar@@@@QEAA@XZ
pdata	ENDS
;	COMDAT pdata
pdata	SEGMENT
$pdata$?Clear@?$ImPool@UImGuiTabBar@@@@QEAAXXZ DD imagerel $LN75@Clear
	DD	imagerel $LN75@Clear+261
	DD	imagerel $unwind$?Clear@?$ImPool@UImGuiTabBar@@@@QEAAXXZ
pdata	ENDS
;	COMDAT pdata
pdata	SEGMENT
$pdata$??1?$ImVector@UImGuiPtrOrIndex@@@@QEAA@XZ DD imagerel $LN14@ImVector
	DD	imagerel $LN14@ImVector+43
	DD	imagerel $unwind$??1?$ImVector@UImGuiPtrOrIndex@@@@QEAA@XZ
pdata	ENDS
;	COMDAT pdata
pdata	SEGMENT
$pdata$?clear@?$ImVector@UImGuiPtrOrIndex@@@@QEAAXXZ DD imagerel $LN13@clear
	DD	imagerel $LN13@clear+60
	DD	imagerel $unwind$?clear@?$ImVector@UImGuiPtrOrIndex@@@@QEAAXXZ
pdata	ENDS
;	COMDAT pdata
pdata	SEGMENT
$pdata$??1?$ImVector@UImGuiShrinkWidthItem@@@@QEAA@XZ DD imagerel $LN14@ImVector
	DD	imagerel $LN14@ImVector+43
	DD	imagerel $unwind$??1?$ImVector@UImGuiShrinkWidthItem@@@@QEAA@XZ
pdata	ENDS
;	COMDAT pdata
pdata	SEGMENT
$pdata$?clear@?$ImVector@UImGuiShrinkWidthItem@@@@QEAAXXZ DD imagerel $LN13@clear
	DD	imagerel $LN13@clear+60
	DD	imagerel $unwind$?clear@?$ImVector@UImGuiShrinkWidthItem@@@@QEAAXXZ
pdata	ENDS
;	COMDAT pdata
pdata	SEGMENT
$pdata$??1?$ImVector@UImGuiSettingsHandler@@@@QEAA@XZ DD imagerel $LN14@ImVector
	DD	imagerel $LN14@ImVector+43
	DD	imagerel $unwind$??1?$ImVector@UImGuiSettingsHandler@@@@QEAA@XZ
pdata	ENDS
;	COMDAT pdata
pdata	SEGMENT
$pdata$?clear@?$ImVector@UImGuiSettingsHandler@@@@QEAAXXZ DD imagerel $LN13@clear
	DD	imagerel $LN13@clear+60
	DD	imagerel $unwind$?clear@?$ImVector@UImGuiSettingsHandler@@@@QEAAXXZ
pdata	ENDS
;	COMDAT pdata
pdata	SEGMENT
$pdata$?push_back@?$ImVector@UImGuiSettingsHandler@@@@QEAAXAEBUImGuiSettingsHandler@@@Z DD imagerel $LN28@push_back
	DD	imagerel $LN28@push_back+255
	DD	imagerel $unwind$?push_back@?$ImVector@UImGuiSettingsHandler@@@@QEAAXAEBUImGuiSettingsHandler@@@Z
pdata	ENDS
;	COMDAT pdata
pdata	SEGMENT
$pdata$?clear@?$ImChunkStream@UImGuiWindowSettings@@@@QEAAXXZ DD imagerel $LN15@clear
	DD	imagerel $LN15@clear+60
	DD	imagerel $unwind$?clear@?$ImChunkStream@UImGuiWindowSettings@@@@QEAAXXZ
pdata	ENDS
;	COMDAT pdata
pdata	SEGMENT
$pdata$?alloc_chunk@?$ImChunkStream@UImGuiWindowSettings@@@@QEAAPEAUImGuiWindowSettings@@_K@Z DD imagerel $LN11@alloc_chun
	DD	imagerel $LN11@alloc_chun+119
	DD	imagerel $unwind$?alloc_chunk@?$ImChunkStream@UImGuiWindowSettings@@@@QEAAPEAUImGuiWindowSettings@@_K@Z
pdata	ENDS
;	COMDAT pdata
pdata	SEGMENT
$pdata$??1?$ImVector@UImGuiContextHook@@@@QEAA@XZ DD imagerel $LN14@ImVector
	DD	imagerel $LN14@ImVector+43
	DD	imagerel $unwind$??1?$ImVector@UImGuiContextHook@@@@QEAA@XZ
pdata	ENDS
;	COMDAT pdata
pdata	SEGMENT
$pdata$?erase@?$ImVector@UImGuiContextHook@@@@QEAAPEAUImGuiContextHook@@PEBU2@@Z DD imagerel $LN4@erase
	DD	imagerel $LN4@erase+78
	DD	imagerel $unwind$?erase@?$ImVector@UImGuiContextHook@@@@QEAAPEAUImGuiContextHook@@PEBU2@@Z
pdata	ENDS
;	COMDAT pdata
pdata	SEGMENT
$pdata$??1?$ImVector@UImGuiOldColumns@@@@QEAA@XZ DD imagerel $LN14@ImVector
	DD	imagerel $LN14@ImVector+43
	DD	imagerel $unwind$??1?$ImVector@UImGuiOldColumns@@@@QEAA@XZ
pdata	ENDS
;	COMDAT pdata
pdata	SEGMENT
$pdata$?clear_destruct@?$ImVector@UImGuiOldColumns@@@@QEAAXXZ DD imagerel $LN27@clear_dest
	DD	imagerel $LN27@clear_dest+100
	DD	imagerel $unwind$?clear_destruct@?$ImVector@UImGuiOldColumns@@@@QEAAXXZ
pdata	ENDS
;	COMDAT pdata
pdata	SEGMENT
$pdata$??1?$ImVector@UImGuiTableInstanceData@@@@QEAA@XZ DD imagerel $LN14@ImVector
	DD	imagerel $LN14@ImVector+43
	DD	imagerel $unwind$??1?$ImVector@UImGuiTableInstanceData@@@@QEAA@XZ
pdata	ENDS
;	COMDAT pdata
pdata	SEGMENT
$pdata$??1?$ImVector@UImGuiTableColumnSortSpecs@@@@QEAA@XZ DD imagerel $LN14@ImVector
	DD	imagerel $LN14@ImVector+43
	DD	imagerel $unwind$??1?$ImVector@UImGuiTableColumnSortSpecs@@@@QEAA@XZ
pdata	ENDS
;	COMDAT pdata
pdata	SEGMENT
$pdata$??0?$ImBitArray@$0CIM@$0A@@@QEAA@XZ DD imagerel $LN6@ImBitArray
	DD	imagerel $LN6@ImBitArray+29
	DD	imagerel $unwind$??0?$ImBitArray@$0CIM@$0A@@@QEAA@XZ
pdata	ENDS
;	COMDAT pdata
pdata	SEGMENT
$pdata$?DebugHookIdInfo@ImGui@@YAXIHPEBX0@Z DD imagerel $LN50@DebugHookI
	DD	imagerel $LN50@DebugHookI+538
	DD	imagerel $unwind$?DebugHookIdInfo@ImGui@@YAXIHPEBX0@Z
pdata	ENDS
;	COMDAT pdata
pdata	SEGMENT
$pdata$?UpdateDebugToolStackQueries@ImGui@@YAXXZ DD imagerel ?UpdateDebugToolStackQueries@ImGui@@YAXXZ
	DD	imagerel ?UpdateDebugToolStackQueries@ImGui@@YAXXZ+255
	DD	imagerel $unwind$?UpdateDebugToolStackQueries@ImGui@@YAXXZ
pdata	ENDS
;	COMDAT pdata
pdata	SEGMENT
$pdata$?UpdateDebugToolItemPicker@ImGui@@YAXXZ DD imagerel ?UpdateDebugToolItemPicker@ImGui@@YAXXZ
	DD	imagerel ?UpdateDebugToolItemPicker@ImGui@@YAXXZ+368
	DD	imagerel $unwind$?UpdateDebugToolItemPicker@ImGui@@YAXXZ
pdata	ENDS
;	COMDAT pdata
pdata	SEGMENT
$pdata$?DebugLocateItemResolveWithLastItem@ImGui@@YAXXZ DD imagerel $LN18@DebugLocat
	DD	imagerel $LN18@DebugLocat+289
	DD	imagerel $unwind$?DebugLocateItemResolveWithLastItem@ImGui@@YAXXZ
pdata	ENDS
;	COMDAT pdata
pdata	SEGMENT
$pdata$?DebugLogV@ImGui@@YAXPEBDPEAD@Z DD imagerel $LN54@DebugLogV
	DD	imagerel $LN54@DebugLogV+467
	DD	imagerel $unwind$?DebugLogV@ImGui@@YAXPEBDPEAD@Z
pdata	ENDS
;	COMDAT pdata
pdata	SEGMENT
$pdata$?DebugLog@ImGui@@YAXPEBDZZ DD imagerel $LN4@DebugLog
	DD	imagerel $LN4@DebugLog+37
	DD	imagerel $unwind$?DebugLog@ImGui@@YAXPEBDZZ
pdata	ENDS
;	COMDAT pdata
pdata	SEGMENT
$pdata$?SetPlatformImeDataFn_DefaultImpl@@YAXPEAUImGuiViewport@@PEAUImGuiPlatformImeData@@@Z DD imagerel ?SetPlatformImeDataFn_DefaultImpl@@YAXPEAUImGuiViewport@@PEAUImGuiPlatformImeData@@@Z
	DD	imagerel ?SetPlatformImeDataFn_DefaultImpl@@YAXPEAUImGuiViewport@@PEAUImGuiPlatformImeData@@@Z+228
	DD	imagerel $unwind$?SetPlatformImeDataFn_DefaultImpl@@YAXPEAUImGuiViewport@@PEAUImGuiPlatformImeData@@@Z
pdata	ENDS
;	COMDAT pdata
pdata	SEGMENT
$pdata$?SetClipboardTextFn_DefaultImpl@@YAXPEAXPEBD@Z DD imagerel ?SetClipboardTextFn_DefaultImpl@@YAXPEAXPEBD@Z
	DD	imagerel ?SetClipboardTextFn_DefaultImpl@@YAXPEAXPEBD@Z+196
	DD	imagerel $unwind$?SetClipboardTextFn_DefaultImpl@@YAXPEAXPEBD@Z
pdata	ENDS
;	COMDAT pdata
pdata	SEGMENT
$pdata$?GetClipboardTextFn_DefaultImpl@@YAPEBDPEAX@Z DD imagerel ?GetClipboardTextFn_DefaultImpl@@YAPEBDPEAX@Z
	DD	imagerel ?GetClipboardTextFn_DefaultImpl@@YAPEBDPEAX@Z+333
	DD	imagerel $unwind$?GetClipboardTextFn_DefaultImpl@@YAPEBDPEAX@Z
pdata	ENDS
;	COMDAT pdata
pdata	SEGMENT
$pdata$?WindowSettingsHandler_WriteAll@@YAXPEAUImGuiContext@@PEAUImGuiSettingsHandler@@PEAUImGuiTextBuffer@@@Z DD imagerel ?WindowSettingsHandler_WriteAll@@YAXPEAUImGuiContext@@PEAUImGuiSettingsHandler@@PEAUImGuiTextBuffer@@@Z
	DD	imagerel ?WindowSettingsHandler_WriteAll@@YAXPEAUImGuiContext@@PEAUImGuiSettingsHandler@@PEAUImGuiTextBuffer@@@Z+428
	DD	imagerel $unwind$?WindowSettingsHandler_WriteAll@@YAXPEAUImGuiContext@@PEAUImGuiSettingsHandler@@PEAUImGuiTextBuffer@@@Z
pdata	ENDS
;	COMDAT pdata
pdata	SEGMENT
$pdata$?WindowSettingsHandler_ApplyAll@@YAXPEAUImGuiContext@@PEAUImGuiSettingsHandler@@@Z DD imagerel ?WindowSettingsHandler_ApplyAll@@YAXPEAUImGuiContext@@PEAUImGuiSettingsHandler@@@Z
	DD	imagerel ?WindowSettingsHandler_ApplyAll@@YAXPEAUImGuiContext@@PEAUImGuiSettingsHandler@@@Z+117
	DD	imagerel $unwind$?WindowSettingsHandler_ApplyAll@@YAXPEAUImGuiContext@@PEAUImGuiSettingsHandler@@@Z
pdata	ENDS
;	COMDAT pdata
pdata	SEGMENT
$pdata$?WindowSettingsHandler_ReadLine@@YAXPEAUImGuiContext@@PEAUImGuiSettingsHandler@@PEAXPEBD@Z DD imagerel ?WindowSettingsHandler_ReadLine@@YAXPEAUImGuiContext@@PEAUImGuiSettingsHandler@@PEAXPEBD@Z
	DD	imagerel ?WindowSettingsHandler_ReadLine@@YAXPEAUImGuiContext@@PEAUImGuiSettingsHandler@@PEAXPEBD@Z+209
	DD	imagerel $unwind$?WindowSettingsHandler_ReadLine@@YAXPEAUImGuiContext@@PEAUImGuiSettingsHandler@@PEAXPEBD@Z
pdata	ENDS
;	COMDAT pdata
pdata	SEGMENT
$pdata$?WindowSettingsHandler_ReadOpen@@YAPEAXPEAUImGuiContext@@PEAUImGuiSettingsHandler@@PEBD@Z DD imagerel ?WindowSettingsHandler_ReadOpen@@YAPEAXPEAUImGuiContext@@PEAUImGuiSettingsHandler@@PEBD@Z
	DD	imagerel ?WindowSettingsHandler_ReadOpen@@YAPEAXPEAUImGuiContext@@PEAUImGuiSettingsHandler@@PEBD@Z+63
	DD	imagerel $unwind$?WindowSettingsHandler_ReadOpen@@YAPEAXPEAUImGuiContext@@PEAUImGuiSettingsHandler@@PEBD@Z
pdata	ENDS
;	COMDAT pdata
pdata	SEGMENT
$pdata$?WindowSettingsHandler_ClearAll@@YAXPEAUImGuiContext@@PEAUImGuiSettingsHandler@@@Z DD imagerel ?WindowSettingsHandler_ClearAll@@YAXPEAUImGuiContext@@PEAUImGuiSettingsHandler@@@Z
	DD	imagerel ?WindowSettingsHandler_ClearAll@@YAXPEAUImGuiContext@@PEAUImGuiSettingsHandler@@@Z+121
	DD	imagerel $unwind$?WindowSettingsHandler_ClearAll@@YAXPEAUImGuiContext@@PEAUImGuiSettingsHandler@@@Z
pdata	ENDS
;	COMDAT pdata
pdata	SEGMENT
$pdata$?SaveIniSettingsToMemory@ImGui@@YAPEBDPEA_K@Z DD imagerel $LN36@SaveIniSet
	DD	imagerel $LN36@SaveIniSet+234
	DD	imagerel $unwind$?SaveIniSettingsToMemory@ImGui@@YAPEBDPEA_K@Z
pdata	ENDS
;	COMDAT pdata
pdata	SEGMENT
$pdata$?SaveIniSettingsToDisk@ImGui@@YAXPEBD@Z DD imagerel $LN10@SaveIniSet
	DD	imagerel $LN10@SaveIniSet+116
	DD	imagerel $unwind$?SaveIniSettingsToDisk@ImGui@@YAXPEBD@Z
pdata	ENDS
;	COMDAT pdata
pdata	SEGMENT
$pdata$?LoadIniSettingsFromMemory@ImGui@@YAXPEBD_K@Z DD imagerel $LN77@LoadIniSet
	DD	imagerel $LN77@LoadIniSet+584
	DD	imagerel $unwind$?LoadIniSettingsFromMemory@ImGui@@YAXPEBD_K@Z
pdata	ENDS
;	COMDAT pdata
pdata	SEGMENT
$pdata$?LoadIniSettingsFromDisk@ImGui@@YAXPEBD@Z DD imagerel $LN14@LoadIniSet
	DD	imagerel $LN14@LoadIniSet+81
	DD	imagerel $unwind$?LoadIniSettingsFromDisk@ImGui@@YAXPEBD@Z
pdata	ENDS
;	COMDAT pdata
pdata	SEGMENT
$pdata$?FindSettingsHandler@ImGui@@YAPEAUImGuiSettingsHandler@@PEBD@Z DD imagerel $LN17@FindSettin
	DD	imagerel $LN17@FindSettin+92
	DD	imagerel $unwind$?FindSettingsHandler@ImGui@@YAPEAUImGuiSettingsHandler@@PEBD@Z
pdata	ENDS
;	COMDAT pdata
pdata	SEGMENT
$pdata$?AddSettingsHandler@ImGui@@YAXPEBUImGuiSettingsHandler@@@Z DD imagerel $LN30@AddSetting
	DD	imagerel $LN30@AddSetting+292
	DD	imagerel $unwind$?AddSettingsHandler@ImGui@@YAXPEBUImGuiSettingsHandler@@@Z
pdata	ENDS
;	COMDAT pdata
pdata	SEGMENT
$pdata$?FindOrCreateWindowSettings@ImGui@@YAPEAUImGuiWindowSettings@@PEBD@Z DD imagerel $LN5@FindOrCrea
	DD	imagerel $LN5@FindOrCrea+45
	DD	imagerel $unwind$?FindOrCreateWindowSettings@ImGui@@YAPEAUImGuiWindowSettings@@PEBD@Z
pdata	ENDS
;	COMDAT pdata
pdata	SEGMENT
$pdata$?CreateNewWindowSettings@ImGui@@YAPEAUImGuiWindowSettings@@PEBD@Z DD imagerel $LN25@CreateNewW
	DD	imagerel $LN25@CreateNewW+224
	DD	imagerel $unwind$?CreateNewWindowSettings@ImGui@@YAPEAUImGuiWindowSettings@@PEBD@Z
pdata	ENDS
;	COMDAT pdata
pdata	SEGMENT
$pdata$?UpdateSettings@ImGui@@YAXXZ DD imagerel ?UpdateSettings@ImGui@@YAXXZ
	DD	imagerel ?UpdateSettings@ImGui@@YAXXZ+195
	DD	imagerel $unwind$?UpdateSettings@ImGui@@YAXXZ
pdata	ENDS
;	COMDAT pdata
pdata	SEGMENT
$pdata$?LogFinish@ImGui@@YAXXZ DD imagerel $LN34@LogFinish
	DD	imagerel $LN34@LogFinish+210
	DD	imagerel $unwind$?LogFinish@ImGui@@YAXXZ
pdata	ENDS
;	COMDAT pdata
pdata	SEGMENT
$pdata$?LogRenderedText@ImGui@@YAXPEBUImVec2@@PEBD1@Z DD imagerel $LN38@LogRendere
	DD	imagerel $LN38@LogRendere+451
	DD	imagerel $unwind$?LogRenderedText@ImGui@@YAXPEBUImVec2@@PEBD1@Z
pdata	ENDS
;	COMDAT pdata
pdata	SEGMENT
$pdata$?LogText@ImGui@@YAXPEBDZZ DD imagerel $LN5@LogText
	DD	imagerel $LN5@LogText+59
	DD	imagerel $unwind$?LogText@ImGui@@YAXPEBDZZ
pdata	ENDS
;	COMDAT pdata
pdata	SEGMENT
$pdata$?LogTextV@@YAXAEAUImGuiContext@@PEBDPEAD@Z DD imagerel ?LogTextV@@YAXAEAUImGuiContext@@PEBDPEAD@Z
	DD	imagerel ?LogTextV@@YAXAEAUImGuiContext@@PEBDPEAD@Z+182
	DD	imagerel $unwind$?LogTextV@@YAXAEAUImGuiContext@@PEBDPEAD@Z
pdata	ENDS
;	COMDAT pdata
pdata	SEGMENT
$pdata$?ClearDragDrop@ImGui@@YAXXZ DD imagerel $LN17@ClearDragD
	DD	imagerel $LN17@ClearDragD+176
	DD	imagerel $unwind$?ClearDragDrop@ImGui@@YAXXZ
pdata	ENDS
;	COMDAT pdata
pdata	SEGMENT
$pdata$?NavUpdateWindowingOverlay@ImGui@@YAXXZ DD imagerel ?NavUpdateWindowingOverlay@ImGui@@YAXXZ
	DD	imagerel ?NavUpdateWindowingOverlay@ImGui@@YAXXZ+617
	DD	imagerel $unwind$?NavUpdateWindowingOverlay@ImGui@@YAXXZ
pdata	ENDS
;	COMDAT pdata
pdata	SEGMENT
$pdata$?GetFallbackWindowNameForWindowingList@@YAPEBDPEAUImGuiWindow@@@Z DD imagerel ?GetFallbackWindowNameForWindowingList@@YAPEBDPEAUImGuiWindow@@@Z
	DD	imagerel ?GetFallbackWindowNameForWindowingList@@YAPEBDPEAUImGuiWindow@@@Z+106
	DD	imagerel $unwind$?GetFallbackWindowNameForWindowingList@@YAPEBDPEAUImGuiWindow@@@Z
pdata	ENDS
;	COMDAT pdata
pdata	SEGMENT
$pdata$?NavUpdateWindowing@ImGui@@YAXXZ DD imagerel ?NavUpdateWindowing@ImGui@@YAXXZ
	DD	imagerel ?NavUpdateWindowing@ImGui@@YAXXZ+1952
	DD	imagerel $unwind$?NavUpdateWindowing@ImGui@@YAXXZ
pdata	ENDS
;	COMDAT pdata
pdata	SEGMENT
$pdata$?NavUpdateWindowingHighlightWindow@@YAXH@Z DD imagerel ?NavUpdateWindowingHighlightWindow@@YAXH@Z
	DD	imagerel ?NavUpdateWindowingHighlightWindow@@YAXH@Z+149
	DD	imagerel $unwind$?NavUpdateWindowingHighlightWindow@@YAXH@Z
pdata	ENDS
;	COMDAT pdata
pdata	SEGMENT
$pdata$?FindWindowNavFocusable@@YAPEAUImGuiWindow@@HHH@Z DD imagerel ?FindWindowNavFocusable@@YAPEAUImGuiWindow@@HHH@Z
	DD	imagerel ?FindWindowNavFocusable@@YAPEAUImGuiWindow@@HHH@Z+115
	DD	imagerel $unwind$?FindWindowNavFocusable@@YAPEAUImGuiWindow@@HHH@Z
pdata	ENDS
;	COMDAT pdata
pdata	SEGMENT
$pdata$?NavUpdateCreateWrappingRequest@ImGui@@YAXXZ DD imagerel ?NavUpdateCreateWrappingRequest@ImGui@@YAXXZ
	DD	imagerel ?NavUpdateCreateWrappingRequest@ImGui@@YAXXZ+523
	DD	imagerel $unwind$?NavUpdateCreateWrappingRequest@ImGui@@YAXXZ
pdata	ENDS
;	COMDAT pdata
pdata	SEGMENT
$pdata$?NavEndFrame@ImGui@@YAXXZ DD imagerel ?NavEndFrame@ImGui@@YAXXZ
	DD	imagerel ?NavEndFrame@ImGui@@YAXXZ+100
	DD	imagerel $unwind$?NavEndFrame@ImGui@@YAXXZ
pdata	ENDS
;	COMDAT pdata
pdata	SEGMENT
$pdata$?NavUpdatePageUpPageDown@ImGui@@YAMXZ DD imagerel ?NavUpdatePageUpPageDown@ImGui@@YAMXZ
	DD	imagerel ?NavUpdatePageUpPageDown@ImGui@@YAMXZ+826
	DD	imagerel $unwind$?NavUpdatePageUpPageDown@ImGui@@YAMXZ
pdata	ENDS
;	COMDAT pdata
pdata	SEGMENT
$pdata$?NavUpdateCancelRequest@ImGui@@YAXXZ DD imagerel ?NavUpdateCancelRequest@ImGui@@YAXXZ
	DD	imagerel ?NavUpdateCancelRequest@ImGui@@YAXXZ+584
	DD	imagerel $unwind$?NavUpdateCancelRequest@ImGui@@YAXXZ
pdata	ENDS
;	COMDAT pdata
pdata	SEGMENT
$pdata$?NavMoveRequestApplyResult@ImGui@@YAXXZ DD imagerel $LN56@NavMoveReq
	DD	imagerel $LN56@NavMoveReq+809
	DD	imagerel $unwind$?NavMoveRequestApplyResult@ImGui@@YAXXZ
pdata	ENDS
;	COMDAT pdata
pdata	SEGMENT
$pdata$?NavUpdateCreateTabbingRequest@ImGui@@YAXXZ DD imagerel ?NavUpdateCreateTabbingRequest@ImGui@@YAXXZ
	DD	imagerel ?NavUpdateCreateTabbingRequest@ImGui@@YAXXZ+189
	DD	imagerel $unwind$?NavUpdateCreateTabbingRequest@ImGui@@YAXXZ
pdata	ENDS
;	COMDAT pdata
pdata	SEGMENT
$pdata$?NavUpdateCreateMoveRequest@ImGui@@YAXXZ DD imagerel ?NavUpdateCreateMoveRequest@ImGui@@YAXXZ
	DD	imagerel ?NavUpdateCreateMoveRequest@ImGui@@YAXXZ+1632
	DD	imagerel $unwind$?NavUpdateCreateMoveRequest@ImGui@@YAXXZ
pdata	ENDS
;	COMDAT pdata
pdata	SEGMENT
$pdata$?NavInitRequestApplyResult@ImGui@@YAXXZ DD imagerel $LN15@NavInitReq
	DD	imagerel $LN15@NavInitReq+203
	DD	imagerel $unwind$?NavInitRequestApplyResult@ImGui@@YAXXZ
pdata	ENDS
;	COMDAT pdata
pdata	SEGMENT
$pdata$?NavUpdate@ImGui@@YAXXZ DD imagerel ?NavUpdate@ImGui@@YAXXZ
	DD	imagerel ?NavUpdate@ImGui@@YAXXZ+2028
	DD	imagerel $unwind$?NavUpdate@ImGui@@YAXXZ
pdata	ENDS
;	COMDAT pdata
pdata	SEGMENT
$pdata$?GetNavTweakPressedAmount@ImGui@@YAMW4ImGuiAxis@@@Z DD imagerel $LN7@GetNavTwea
	DD	imagerel $LN7@GetNavTwea+177
	DD	imagerel $unwind$?GetNavTweakPressedAmount@ImGui@@YAMW4ImGuiAxis@@@Z
pdata	ENDS
;	COMDAT pdata
pdata	SEGMENT
$pdata$?NavCalcPreferredRefPos@ImGui@@YA?AUImVec2@@XZ DD imagerel ?NavCalcPreferredRefPos@ImGui@@YA?AUImVec2@@XZ
	DD	imagerel ?NavCalcPreferredRefPos@ImGui@@YA?AUImVec2@@XZ+510
	DD	imagerel $unwind$?NavCalcPreferredRefPos@ImGui@@YA?AUImVec2@@XZ
pdata	ENDS
;	COMDAT pdata
pdata	SEGMENT
$pdata$?NavInitWindow@ImGui@@YAXPEAUImGuiWindow@@_N@Z DD imagerel $LN33@NavInitWin
	DD	imagerel $LN33@NavInitWin+323
	DD	imagerel $unwind$?NavInitWindow@ImGui@@YAXPEAUImGuiWindow@@_N@Z
pdata	ENDS
;	COMDAT pdata
pdata	SEGMENT
$pdata$?NavRestoreLayer@ImGui@@YAXW4ImGuiNavLayer@@@Z DD imagerel ?NavRestoreLayer@ImGui@@YAXW4ImGuiNavLayer@@@Z
	DD	imagerel ?NavRestoreLayer@ImGui@@YAXW4ImGuiNavLayer@@@Z+219
	DD	imagerel $unwind$?NavRestoreLayer@ImGui@@YAXW4ImGuiNavLayer@@@Z
pdata	ENDS
;	COMDAT pdata
pdata	SEGMENT
$pdata$?NavMoveRequestResolveWithLastItem@ImGui@@YAXPEAUImGuiNavItemData@@@Z DD imagerel $LN9@NavMoveReq
	DD	imagerel $LN9@NavMoveReq+59
	DD	imagerel $unwind$?NavMoveRequestResolveWithLastItem@ImGui@@YAXPEAUImGuiNavItemData@@@Z
pdata	ENDS
;	COMDAT pdata
pdata	SEGMENT
$pdata$?NavProcessItemForTabbingRequest@ImGui@@YAXI@Z DD imagerel ?NavProcessItemForTabbingRequest@ImGui@@YAXI@Z
	DD	imagerel ?NavProcessItemForTabbingRequest@ImGui@@YAXI@Z+189
	DD	imagerel $unwind$?NavProcessItemForTabbingRequest@ImGui@@YAXI@Z
pdata	ENDS
;	COMDAT pdata
pdata	SEGMENT
$pdata$?NavProcessItem@ImGui@@YAXXZ DD imagerel ?NavProcessItem@ImGui@@YAXXZ
	DD	imagerel ?NavProcessItem@ImGui@@YAXXZ+740
	DD	imagerel $unwind$?NavProcessItem@ImGui@@YAXXZ
pdata	ENDS
;	COMDAT pdata
pdata	SEGMENT
$pdata$?NavApplyItemToResult@ImGui@@YAXPEAUImGuiNavItemData@@@Z DD imagerel ?NavApplyItemToResult@ImGui@@YAXPEAUImGuiNavItemData@@@Z
	DD	imagerel ?NavApplyItemToResult@ImGui@@YAXPEAUImGuiNavItemData@@@Z+156
	DD	imagerel $unwind$?NavApplyItemToResult@ImGui@@YAXPEAUImGuiNavItemData@@@Z
pdata	ENDS
;	COMDAT pdata
pdata	SEGMENT
$pdata$?NavScoreItem@ImGui@@YA_NPEAUImGuiNavItemData@@@Z DD imagerel ?NavScoreItem@ImGui@@YA_NPEAUImGuiNavItemData@@@Z
	DD	imagerel ?NavScoreItem@ImGui@@YA_NPEAUImGuiNavItemData@@@Z+1130
	DD	imagerel $unwind$?NavScoreItem@ImGui@@YA_NPEAUImGuiNavItemData@@@Z
pdata	ENDS
;	COMDAT pdata
pdata	SEGMENT
$pdata$?SetFocusID@ImGui@@YAXIPEAUImGuiWindow@@@Z DD imagerel $LN16@SetFocusID
	DD	imagerel $LN16@SetFocusID+241
	DD	imagerel $unwind$?SetFocusID@ImGui@@YAXIPEAUImGuiWindow@@@Z
pdata	ENDS
;	COMDAT pdata
pdata	SEGMENT
$pdata$?SetNavWindow@ImGui@@YAXPEAUImGuiWindow@@@Z DD imagerel $LN16@SetNavWind
	DD	imagerel $LN16@SetNavWind+144
	DD	imagerel $unwind$?SetNavWindow@ImGui@@YAXPEAUImGuiWindow@@@Z
pdata	ENDS
;	COMDAT pdata
pdata	SEGMENT
$pdata$?FindBestWindowPosForPopup@ImGui@@YA?AUImVec2@@PEAUImGuiWindow@@@Z DD imagerel $LN57@FindBestWi
	DD	imagerel $LN57@FindBestWi+565
	DD	imagerel $unwind$?FindBestWindowPosForPopup@ImGui@@YA?AUImVec2@@PEAUImGuiWindow@@@Z
pdata	ENDS
;	COMDAT pdata
pdata	SEGMENT
$pdata$?GetPopupAllowedExtentRect@ImGui@@YA?AUImRect@@PEAUImGuiWindow@@@Z DD imagerel $LN28@GetPopupAl
	DD	imagerel $LN28@GetPopupAl+227
	DD	imagerel $unwind$?GetPopupAllowedExtentRect@ImGui@@YA?AUImRect@@PEAUImGuiWindow@@@Z
pdata	ENDS
;	COMDAT pdata
pdata	SEGMENT
$pdata$?FindBestWindowPosForPopupEx@ImGui@@YA?AUImVec2@@AEBU2@0PEAHAEBUImRect@@2W4ImGuiPopupPositionPolicy@@@Z DD imagerel $LN129@FindBestWi
	DD	imagerel $LN129@FindBestWi+557
	DD	imagerel $unwind$?FindBestWindowPosForPopupEx@ImGui@@YA?AUImVec2@@AEBU2@0PEAHAEBUImRect@@2W4ImGuiPopupPositionPolicy@@@Z
pdata	ENDS
;	COMDAT pdata
pdata	SEGMENT
$pdata$?CloseCurrentPopup@ImGui@@YAXXZ DD imagerel $LN30@CloseCurre
	DD	imagerel $LN30@CloseCurre+208
	DD	imagerel $unwind$?CloseCurrentPopup@ImGui@@YAXXZ
pdata	ENDS
;	COMDAT pdata
pdata	SEGMENT
$pdata$?ClosePopupToLevel@ImGui@@YAXH_N@Z DD imagerel $LN21@ClosePopup
	DD	imagerel $LN21@ClosePopup+226
	DD	imagerel $unwind$?ClosePopupToLevel@ImGui@@YAXH_N@Z
pdata	ENDS
;	COMDAT pdata
pdata	SEGMENT
$pdata$?ClosePopupsOverWindow@ImGui@@YAXPEAUImGuiWindow@@_N@Z DD imagerel $LN54@ClosePopup
	DD	imagerel $LN54@ClosePopup+247
	DD	imagerel $unwind$?ClosePopupsOverWindow@ImGui@@YAXPEAUImGuiWindow@@_N@Z
pdata	ENDS
;	COMDAT pdata
pdata	SEGMENT
$pdata$?SetTooltip@ImGui@@YAXPEBDZZ DD imagerel $LN8@SetTooltip
	DD	imagerel $LN8@SetTooltip+65
	DD	imagerel $unwind$?SetTooltip@ImGui@@YAXPEBDZZ
pdata	ENDS
;	COMDAT pdata
pdata	SEGMENT
$pdata$?SetTooltipV@ImGui@@YAXPEBDPEAD@Z DD imagerel $LN6@SetTooltip
	DD	imagerel $LN6@SetTooltip+52
	DD	imagerel $unwind$?SetTooltipV@ImGui@@YAXPEBDPEAD@Z
pdata	ENDS
;	COMDAT pdata
pdata	SEGMENT
$pdata$?BeginTooltipEx@ImGui@@YAXHH@Z DD imagerel $LN23@BeginToolt
	DD	imagerel $LN23@BeginToolt+343
	DD	imagerel $unwind$?BeginTooltipEx@ImGui@@YAXHH@Z
pdata	ENDS
;	COMDAT pdata
pdata	SEGMENT
$pdata$?ScrollToRectEx@ImGui@@YA?AUImVec2@@PEAUImGuiWindow@@AEBUImRect@@H@Z DD imagerel $LN98@ScrollToRe
	DD	imagerel $LN98@ScrollToRe+1006
	DD	imagerel $unwind$?ScrollToRectEx@ImGui@@YA?AUImVec2@@PEAUImGuiWindow@@AEBUImRect@@H@Z
pdata	ENDS
;	COMDAT pdata
pdata	SEGMENT
$pdata$?CalcNextScrollFromScrollTargetAndClamp@@YA?AUImVec2@@PEAUImGuiWindow@@@Z DD imagerel ?CalcNextScrollFromScrollTargetAndClamp@@YA?AUImVec2@@PEAUImGuiWindow@@@Z
	DD	imagerel ?CalcNextScrollFromScrollTargetAndClamp@@YA?AUImVec2@@PEAUImGuiWindow@@@Z+511
	DD	imagerel $unwind$?CalcNextScrollFromScrollTargetAndClamp@@YA?AUImVec2@@PEAUImGuiWindow@@@Z
pdata	ENDS
;	COMDAT pdata
pdata	SEGMENT
$pdata$?EndGroup@ImGui@@YAXXZ DD imagerel $LN63@EndGroup
	DD	imagerel $LN63@EndGroup+626
	DD	imagerel $unwind$?EndGroup@ImGui@@YAXXZ
pdata	ENDS
;	COMDAT pdata
pdata	SEGMENT
$pdata$?BeginGroup@ImGui@@YAXXZ DD imagerel $LN9@BeginGroup
	DD	imagerel $LN9@BeginGroup+294
	DD	imagerel $unwind$?BeginGroup@ImGui@@YAXXZ
pdata	ENDS
;	COMDAT pdata
pdata	SEGMENT
$pdata$?GetContentRegionAvail@ImGui@@YA?AUImVec2@@XZ DD imagerel $LN8@GetContent
	DD	imagerel $LN8@GetContent+77
	DD	imagerel $unwind$?GetContentRegionAvail@ImGui@@YA?AUImVec2@@XZ
pdata	ENDS
;	COMDAT pdata
pdata	SEGMENT
$pdata$?CalcItemSize@ImGui@@YA?AUImVec2@@U2@MM@Z DD imagerel $LN23@CalcItemSi
	DD	imagerel $LN23@CalcItemSi+208
	DD	imagerel $unwind$?CalcItemSize@ImGui@@YA?AUImVec2@@U2@MM@Z
pdata	ENDS
;	COMDAT pdata
pdata	SEGMENT
$pdata$?CalcItemWidth@ImGui@@YAMXZ DD imagerel $LN11@CalcItemWi
	DD	imagerel $LN11@CalcItemWi+109
	DD	imagerel $unwind$?CalcItemWidth@ImGui@@YAMXZ
pdata	ENDS
;	COMDAT pdata
pdata	SEGMENT
$pdata$?ItemAdd@ImGui@@YA_NAEBUImRect@@IPEBU2@H@Z DD imagerel $LN29@ItemAdd
	DD	imagerel $LN29@ItemAdd+404
	DD	imagerel $unwind$?ItemAdd@ImGui@@YA_NAEBUImRect@@IPEBU2@H@Z
pdata	ENDS
;	COMDAT pdata
pdata	SEGMENT
$pdata$?ItemSize@ImGui@@YAXAEBUImVec2@@M@Z DD imagerel $LN30@ItemSize
	DD	imagerel $LN30@ItemSize+340
	DD	imagerel $unwind$?ItemSize@ImGui@@YAXAEBUImVec2@@M@Z
pdata	ENDS
;	COMDAT pdata
pdata	SEGMENT
$pdata$?ErrorCheckEndFrameSanityChecks@ImGui@@YAXXZ DD imagerel ?ErrorCheckEndFrameSanityChecks@ImGui@@YAXXZ
	DD	imagerel ?ErrorCheckEndFrameSanityChecks@ImGui@@YAXXZ+42
	DD	imagerel $unwind$?ErrorCheckEndFrameSanityChecks@ImGui@@YAXXZ
pdata	ENDS
;	COMDAT pdata
pdata	SEGMENT
$pdata$?Shortcut@ImGui@@YA_NHIH@Z DD imagerel $LN54@Shortcut
	DD	imagerel $LN54@Shortcut+421
	DD	imagerel $unwind$?Shortcut@ImGui@@YA_NHIH@Z
pdata	ENDS
;	COMDAT pdata
pdata	SEGMENT
$pdata$?UpdateInputEvents@ImGui@@YAX_N@Z DD imagerel $LN184@UpdateInpu
	DD	imagerel $LN184@UpdateInpu+1909
	DD	imagerel $unwind$?UpdateInputEvents@ImGui@@YAX_N@Z
pdata	ENDS
;	COMDAT pdata
pdata	SEGMENT
$pdata$?DebugPrintInputEvent@@YAXPEBDPEBUImGuiInputEvent@@@Z DD imagerel ?DebugPrintInputEvent@@YAXPEBDPEBUImGuiInputEvent@@@Z
	DD	imagerel ?DebugPrintInputEvent@@YAXPEBDPEBUImGuiInputEvent@@@Z+371
	DD	imagerel $unwind$?DebugPrintInputEvent@@YAXPEBDPEBUImGuiInputEvent@@@Z
pdata	ENDS
;	COMDAT pdata
pdata	SEGMENT
$pdata$?IsMouseReleased@ImGui@@YA_NHI@Z DD imagerel $LN6@IsMouseRel
	DD	imagerel $LN6@IsMouseRel+53
	DD	imagerel $unwind$?IsMouseReleased@ImGui@@YA_NHI@Z
pdata	ENDS
;	COMDAT pdata
pdata	SEGMENT
$pdata$?IsMouseClicked@ImGui@@YA_NHIH@Z DD imagerel $LN15@IsMouseCli
	DD	imagerel $LN15@IsMouseCli+113
	DD	imagerel $unwind$?IsMouseClicked@ImGui@@YA_NHIH@Z
pdata	ENDS
;	COMDAT pdata
pdata	SEGMENT
$pdata$?IsMouseDown@ImGui@@YA_NHI@Z DD imagerel $LN6@IsMouseDow
	DD	imagerel $LN6@IsMouseDow+53
	DD	imagerel $unwind$?IsMouseDown@ImGui@@YA_NHI@Z
pdata	ENDS
;	COMDAT pdata
pdata	SEGMENT
$pdata$?IsMouseDown@ImGui@@YA_NH@Z DD imagerel $LN6@IsMouseDow
	DD	imagerel $LN6@IsMouseDow+54
	DD	imagerel $unwind$?IsMouseDown@ImGui@@YA_NH@Z
pdata	ENDS
;	COMDAT pdata
pdata	SEGMENT
$pdata$?IsKeyReleased@ImGui@@YA_NW4ImGuiKey@@I@Z DD imagerel $LN8@IsKeyRelea
	DD	imagerel $LN8@IsKeyRelea+57
	DD	imagerel $unwind$?IsKeyReleased@ImGui@@YA_NW4ImGuiKey@@I@Z
pdata	ENDS
;	COMDAT pdata
pdata	SEGMENT
$pdata$?IsKeyReleased@ImGui@@YA_NW4ImGuiKey@@@Z DD imagerel $LN9@IsKeyRelea
	DD	imagerel $LN9@IsKeyRelea+58
	DD	imagerel $unwind$?IsKeyReleased@ImGui@@YA_NW4ImGuiKey@@@Z
pdata	ENDS
;	COMDAT pdata
pdata	SEGMENT
$pdata$?IsKeyPressed@ImGui@@YA_NW4ImGuiKey@@IH@Z DD imagerel $LN17@IsKeyPress
	DD	imagerel $LN17@IsKeyPress+121
	DD	imagerel $unwind$?IsKeyPressed@ImGui@@YA_NW4ImGuiKey@@IH@Z
pdata	ENDS
;	COMDAT pdata
pdata	SEGMENT
$pdata$?IsKeyDown@ImGui@@YA_NW4ImGuiKey@@I@Z DD imagerel $LN8@IsKeyDown
	DD	imagerel $LN8@IsKeyDown+45
	DD	imagerel $unwind$?IsKeyDown@ImGui@@YA_NW4ImGuiKey@@I@Z
pdata	ENDS
;	COMDAT pdata
pdata	SEGMENT
$pdata$?IsKeyDown@ImGui@@YA_NW4ImGuiKey@@@Z DD imagerel $LN8@IsKeyDown
	DD	imagerel $LN8@IsKeyDown+43
	DD	imagerel $unwind$?IsKeyDown@ImGui@@YA_NW4ImGuiKey@@@Z
pdata	ENDS
;	COMDAT pdata
pdata	SEGMENT
$pdata$?SetShortcutRouting@ImGui@@YA_NHIH@Z DD imagerel $LN39@SetShortcu
	DD	imagerel $LN39@SetShortcu+262
	DD	imagerel $unwind$?SetShortcutRouting@ImGui@@YA_NHIH@Z
pdata	ENDS
;	COMDAT pdata
pdata	SEGMENT
$pdata$?GetShortcutRoutingData@ImGui@@YAPEAUImGuiKeyRoutingData@@H@Z DD imagerel $LN28@GetShortcu
	DD	imagerel $LN28@GetShortcu+266
	DD	imagerel $unwind$?GetShortcutRoutingData@ImGui@@YAPEAUImGuiKeyRoutingData@@H@Z
pdata	ENDS
;	COMDAT pdata
pdata	SEGMENT
$pdata$?GetKeyVector2d@ImGui@@YA?AUImVec2@@W4ImGuiKey@@000@Z DD imagerel $LN6@GetKeyVect
	DD	imagerel $LN6@GetKeyVect+101
	DD	imagerel $unwind$?GetKeyVector2d@ImGui@@YA?AUImVec2@@W4ImGuiKey@@000@Z
pdata	ENDS
;	COMDAT pdata
pdata	SEGMENT
$pdata$?GetKeyPressedAmount@ImGui@@YAHW4ImGuiKey@@MM@Z DD imagerel $LN5@GetKeyPres
	DD	imagerel $LN5@GetKeyPres+62
	DD	imagerel $unwind$?GetKeyPressedAmount@ImGui@@YAHW4ImGuiKey@@MM@Z
pdata	ENDS
;	COMDAT pdata
pdata	SEGMENT
$pdata$?IsMouseHoveringRect@ImGui@@YA_NAEBUImVec2@@0_N@Z DD imagerel $LN42@IsMouseHov
	DD	imagerel $LN42@IsMouseHov+221
	DD	imagerel $unwind$?IsMouseHoveringRect@ImGui@@YA_NAEBUImVec2@@0_N@Z
pdata	ENDS
;	COMDAT pdata
pdata	SEGMENT
$pdata$?PushID@ImGui@@YAXPEBD@Z DD imagerel $LN4@PushID
	DD	imagerel $LN4@PushID+66
	DD	imagerel $unwind$?PushID@ImGui@@YAXPEBD@Z
pdata	ENDS
;	COMDAT pdata
pdata	SEGMENT
$pdata$?PushFocusScope@ImGui@@YAXI@Z DD imagerel $LN4@PushFocusS
	DD	imagerel $LN4@PushFocusS+57
	DD	imagerel $unwind$?PushFocusScope@ImGui@@YAXI@Z
pdata	ENDS
;	COMDAT pdata
pdata	SEGMENT
$pdata$?BeginDisabled@ImGui@@YAX_N@Z DD imagerel $LN14@BeginDisab
	DD	imagerel $LN14@BeginDisab+184
	DD	imagerel $unwind$?BeginDisabled@ImGui@@YAX_N@Z
pdata	ENDS
;	COMDAT pdata
pdata	SEGMENT
$pdata$?PopFont@ImGui@@YAXXZ DD imagerel $LN18@PopFont
	DD	imagerel $LN18@PopFont+103
	DD	imagerel $unwind$?PopFont@ImGui@@YAXXZ
pdata	ENDS
;	COMDAT pdata
pdata	SEGMENT
$pdata$?PushFont@ImGui@@YAXPEAUImFont@@@Z DD imagerel $LN11@PushFont
	DD	imagerel $LN11@PushFont+146
	DD	imagerel $unwind$?PushFont@ImGui@@YAXPEAUImFont@@@Z
pdata	ENDS
;	COMDAT pdata
pdata	SEGMENT
$pdata$?FocusWindow@ImGui@@YAXPEAUImGuiWindow@@@Z DD imagerel $LN65@FocusWindo
	DD	imagerel $LN65@FocusWindo+503
	DD	imagerel $unwind$?FocusWindow@ImGui@@YAXPEAUImGuiWindow@@@Z
pdata	ENDS
;	COMDAT pdata
pdata	SEGMENT
$pdata$?BringWindowToDisplayBehind@ImGui@@YAXPEAUImGuiWindow@@0@Z DD imagerel $LN10@BringWindo
	DD	imagerel $LN10@BringWindo+184
	DD	imagerel $unwind$?BringWindowToDisplayBehind@ImGui@@YAXPEAUImGuiWindow@@0@Z
pdata	ENDS
;	COMDAT pdata
pdata	SEGMENT
$pdata$?BringWindowToDisplayFront@ImGui@@YAXPEAUImGuiWindow@@@Z DD imagerel $LN25@BringWindo
	DD	imagerel $LN25@BringWindo+155
	DD	imagerel $unwind$?BringWindowToDisplayFront@ImGui@@YAXPEAUImGuiWindow@@@Z
pdata	ENDS
;	COMDAT pdata
pdata	SEGMENT
$pdata$?BringWindowToFocusFront@ImGui@@YAXPEAUImGuiWindow@@@Z DD imagerel $LN23@BringWindo
	DD	imagerel $LN23@BringWindo+148
	DD	imagerel $unwind$?BringWindowToFocusFront@ImGui@@YAXPEAUImGuiWindow@@@Z
pdata	ENDS
;	COMDAT pdata
pdata	SEGMENT
$pdata$?End@ImGui@@YAXXZ DD imagerel $LN41@End
	DD	imagerel $LN41@End+380
	DD	imagerel $unwind$?End@ImGui@@YAXXZ
pdata	ENDS
;	COMDAT pdata
pdata	SEGMENT
$pdata$?Begin@ImGui@@YA_NPEBDPEA_NH@Z DD imagerel $LN763@Begin
	DD	imagerel $LN763@Begin+7966
	DD	imagerel $unwind$?Begin@ImGui@@YA_NPEBDPEA_NH@Z
pdata	ENDS
;	COMDAT pdata
pdata	SEGMENT
$pdata$?RenderWindowTitleBarContents@ImGui@@YAXPEAUImGuiWindow@@AEBUImRect@@PEBDPEA_N@Z DD imagerel ?RenderWindowTitleBarContents@ImGui@@YAXPEAUImGuiWindow@@AEBUImRect@@PEBDPEA_N@Z
	DD	imagerel ?RenderWindowTitleBarContents@ImGui@@YAXPEAUImGuiWindow@@AEBUImRect@@PEBDPEA_N@Z+907
	DD	imagerel $unwind$?RenderWindowTitleBarContents@ImGui@@YAXPEAUImGuiWindow@@AEBUImRect@@PEBDPEA_N@Z
pdata	ENDS
;	COMDAT pdata
pdata	SEGMENT
$pdata$?RenderWindowDecorations@ImGui@@YAXPEAUImGuiWindow@@AEBUImRect@@_NHQEBIM@Z DD imagerel ?RenderWindowDecorations@ImGui@@YAXPEAUImGuiWindow@@AEBUImRect@@_NHQEBIM@Z
	DD	imagerel ?RenderWindowDecorations@ImGui@@YAXPEAUImGuiWindow@@AEBUImRect@@_NHQEBIM@Z+1612
	DD	imagerel $unwind$?RenderWindowDecorations@ImGui@@YAXPEAUImGuiWindow@@AEBUImRect@@_NHQEBIM@Z
pdata	ENDS
;	COMDAT pdata
pdata	SEGMENT
$pdata$?RenderWindowOuterBorders@ImGui@@YAXPEAUImGuiWindow@@@Z DD imagerel ?RenderWindowOuterBorders@ImGui@@YAXPEAUImGuiWindow@@@Z
	DD	imagerel ?RenderWindowOuterBorders@ImGui@@YAXPEAUImGuiWindow@@@Z+926
	DD	imagerel $unwind$?RenderWindowOuterBorders@ImGui@@YAXPEAUImGuiWindow@@@Z
pdata	ENDS
;	COMDAT pdata
pdata	SEGMENT
$pdata$?UpdateWindowManualResize@ImGui@@YA_NPEAUImGuiWindow@@AEBUImVec2@@PEAHHQEAIAEBUImRect@@@Z DD imagerel ?UpdateWindowManualResize@ImGui@@YA_NPEAUImGuiWindow@@AEBUImVec2@@PEAHHQEAIAEBUImRect@@@Z
	DD	imagerel ?UpdateWindowManualResize@ImGui@@YA_NPEAUImGuiWindow@@AEBUImVec2@@PEAHHQEAIAEBUImRect@@@Z+2527
	DD	imagerel $unwind$?UpdateWindowManualResize@ImGui@@YA_NPEAUImGuiWindow@@AEBUImVec2@@PEAHHQEAIAEBUImRect@@@Z
pdata	ENDS
;	COMDAT pdata
pdata	SEGMENT
$pdata$?GetResizeBorderRect@@YA?AUImRect@@PEAUImGuiWindow@@HMM@Z DD imagerel ?GetResizeBorderRect@@YA?AUImRect@@PEAUImGuiWindow@@HMM@Z
	DD	imagerel ?GetResizeBorderRect@@YA?AUImRect@@PEAUImGuiWindow@@HMM@Z+241
	DD	imagerel $unwind$?GetResizeBorderRect@@YA?AUImRect@@PEAUImGuiWindow@@HMM@Z
pdata	ENDS
;	COMDAT pdata
