; Listing generated by Microsoft (R) Optimizing Compiler Version 19.36.32538.0 

include listing.inc

INCLUDELIB OLDNAMES

PUBLIC	??_C@_0BC@EOODALEL@Unknown?5exception@		; `string'
PUBLIC	??_C@_0BF@KINCDENJ@bad?5array?5new?5length@	; `string'
PUBLIC	??_C@_08EPJLHIJG@bad?5cast@			; `string'
PUBLIC	??_C@_0BA@JFNIOLAK@string?5too?5long@		; `string'
PUBLIC	??_C@_02LMMGGCAJ@?3?5@				; `string'
PUBLIC	??_C@_07DCLBNMLN@generic@			; `string'
PUBLIC	??_C@_06FHFOAHML@system@			; `string'
PUBLIC	??_C@_04CJLGPKHJ@Cube@				; `string'
PUBLIC	??_C@_0BD@CBEDEJPH@unknown?5image?5type@	; `string'
PUBLIC	??_C@_08NOGIMCHF@outofmem@			; `string'
PUBLIC	??_C@_0M@JPDHFAGK@can?8t?5fopen@		; `string'
PUBLIC	??_C@_0M@MHDBFHD@unsupported@			; `string'
PUBLIC	??_C@_0BB@FOKGPEKG@bad?5code?5lengths@		; `string'
PUBLIC	??_C@_0BB@IIMLINA@bad?5huffman?5code@		; `string'
PUBLIC	??_C@_0BG@PJBJDAGM@can?8t?5merge?5dc?5and?5ac@	; `string'
PUBLIC	??_C@_0BA@KLNDOKJD@expected?5marker@		; `string'
PUBLIC	??_C@_0M@LPHNODCG@bad?5DRI?5len@		; `string'
PUBLIC	??_C@_0N@BOFJCHAP@bad?5DQT?5type@		; `string'
PUBLIC	??_C@_0O@CNHKKDIM@bad?5DQT?5table@		; `string'
PUBLIC	??_C@_0P@JLGKOCGN@bad?5DHT?5header@		; `string'
PUBLIC	??_C@_0M@CICAFFCH@bad?5COM?5len@		; `string'
PUBLIC	??_C@_0M@EENLKPDI@bad?5APP?5len@		; `string'
PUBLIC	??_C@_0P@NNGPHMMK@unknown?5marker@		; `string'
PUBLIC	??_C@_0BI@DHFJCMBA@bad?5SOS?5component?5count@	; `string'
PUBLIC	??_C@_0M@GNEHAHOH@bad?5SOS?5len@		; `string'
PUBLIC	??_C@_0M@NOCCBFAC@bad?5DC?5huff@		; `string'
PUBLIC	??_C@_0M@JGMCBLGG@bad?5AC?5huff@		; `string'
PUBLIC	??_C@_07EEJOMGGP@bad?5SOS@			; `string'
PUBLIC	??_C@_0M@DOFMJEMP@bad?5SOF?5len@		; `string'
PUBLIC	??_C@_0L@BCINMEBJ@only?58?9bit@			; `string'
PUBLIC	??_C@_0BB@LNEGOMA@no?5header?5height@		; `string'
PUBLIC	??_C@_07BIDACDEF@0?5width@			; `string'
PUBLIC	??_C@_09OJDLMMBJ@too?5large@			; `string'
PUBLIC	??_C@_0BE@DAPHADHL@bad?5component?5count@	; `string'
PUBLIC	??_C@_05BLPKENEJ@bad?5H@			; `string'
PUBLIC	??_C@_05MPLLHCJG@bad?5V@			; `string'
PUBLIC	??_C@_06LJIHDFHI@bad?5TQ@			; `string'
PUBLIC	??_C@_06CLMBLEP@no?5SOI@			; `string'
PUBLIC	??_C@_06IFCEAHIA@no?5SOF@			; `string'
PUBLIC	??_C@_0M@EPMOIECP@bad?5DNL?5len@		; `string'
PUBLIC	??_C@_0P@PNCLKCLJ@bad?5DNL?5height@		; `string'
PUBLIC	??_C@_0N@KBPNPPBJ@bad?5req_comp@		; `string'
PUBLIC	??_C@_09EOHLEIKL@bad?5sizes@			; `string'
PUBLIC	??_C@_0BA@MDNKOBMC@bad?5codelengths@		; `string'
PUBLIC	??_C@_0BE@IBFIPFO@output?5buffer?5limit@	; `string'
PUBLIC	??_C@_08DIAPIMGJ@bad?5dist@			; `string'
PUBLIC	??_C@_0N@IECDHMDI@zlib?5corrupt@		; `string'
PUBLIC	??_C@_0BB@PIPBCKIA@read?5past?5buffer@		; `string'
PUBLIC	??_C@_0BA@OBKOPAFL@bad?5zlib?5header@		; `string'
PUBLIC	??_C@_0P@DOGMHEBI@no?5preset?5dict@		; `string'
PUBLIC	??_C@_0BA@MCNBDLPD@bad?5compression@		; `string'
PUBLIC	??_C@_0M@DMDNBACF@bad?5png?5sig@		; `string'
PUBLIC	??_C@_0BC@BHMPBBMG@not?5enough?5pixels@		; `string'
PUBLIC	??_C@_0P@FBBCPGMN@invalid?5filter@		; `string'
PUBLIC	??_C@_0O@MKGNGALN@invalid?5width@		; `string'
PUBLIC	??_C@_0O@KBHBNJOK@multiple?5IHDR@		; `string'
PUBLIC	??_C@_0N@POJLKMKK@bad?5IHDR?5len@		; `string'
PUBLIC	??_C@_0BE@EJHIPKNO@1?12?14?18?116?9bit?5only@	; `string'
PUBLIC	??_C@_09MBBNGCKB@bad?5ctype@			; `string'
PUBLIC	??_C@_0BA@MDMBDDFG@bad?5comp?5method@		; `string'
PUBLIC	??_C@_0BC@GHLIKKMD@bad?5filter?5method@		; `string'
PUBLIC	??_C@_0BF@JCGDPBAA@bad?5interlace?5method@	; `string'
PUBLIC	??_C@_0O@FNFBHCOO@0?9pixel?5image@		; `string'
PUBLIC	??_C@_0P@JEAFOMAF@first?5not?5IHDR@		; `string'
PUBLIC	??_C@_0N@JCPAJAKB@invalid?5PLTE@		; `string'
PUBLIC	??_C@_0BA@PCPJHDKJ@tRNS?5after?5IDAT@		; `string'
PUBLIC	??_C@_0BB@CEDNNLBG@tRNS?5before?5PLTE@		; `string'
PUBLIC	??_C@_0N@KDLCCKCH@bad?5tRNS?5len@		; `string'
PUBLIC	??_C@_0BA@ENDPGCHB@tRNS?5with?5alpha@		; `string'
PUBLIC	??_C@_07CKIELOEH@no?5PLTE@			; `string'
PUBLIC	??_C@_09MNNCNKEO@outofdata@			; `string'
PUBLIC	??_C@_07MLPECBNA@no?5IDAT@			; `string'
PUBLIC	??_C@_0BF@NOEEEFMF@bad?5bits_per_channel@	; `string'
PUBLIC	??_C@_0L@DMAPJJO@bad?5format@			; `string'
PUBLIC	??_C@_0M@ILLOCNCO@bad?5palette@			; `string'
PUBLIC	??_C@_0BE@LMOOKEAD@Bad?5optional?5access@	; `string'
PUBLIC	??_C@_0BB@GCADKGJO@map?1set?5too?5long@		; `string'
PUBLIC	??_C@_04OEBBALID@e?$CL00@			; `string'
PUBLIC	??_C@_0P@GHIGLIIA@current_path?$CI?$CJ@		; `string'
PUBLIC	??_C@_0BP@JEPPGCJF@try?5to?5set?5unused?5shader?5param@ ; `string'
PUBLIC	??_C@_0BC@GEKPLONM@?$CDversion?5460?5core@	; `string'
PUBLIC	??_C@_04EJKKKLPE@?5s?4?6@			; `string'
PUBLIC	??_C@_08NJCDLNIK@?6Total?3?5@			; `string'
PUBLIC	??_C@_0CA@EOADLFNL@Unmatched?5?8?$HN?8?5in?5format?5string?4@ ; `string'
PUBLIC	??_C@_0BH@MCHHCMKF@Invalid?5format?5string?4@	; `string'
PUBLIC	??_C@_0BK@NMCHMIGI@Unknown?5format?5specifier?4@ ; `string'
PUBLIC	??_C@_0BO@FFAGMLDI@Missing?5?8?$HN?8?5in?5format?5string?4@ ; `string'
PUBLIC	??_C@_0DB@GIGELLBG@Can?5not?5switch?5from?5manual?5to?5a@ ; `string'
PUBLIC	??_C@_05OLHCCIBJ@?$DN?$DN?$DN?$DN?$DN@		; `string'
PUBLIC	??_C@_0P@DFDDALED@?$HL?$HN?7?$HM?$HL?$HN?7?$HM?$HL?$HN?7?$HM?$HL?$HN@ ; `string'
PUBLIC	??_C@_0L@NDKAJBEG@ID?3?5?$HL?$HN?0?5?$HL?$HN@	; `string'
PUBLIC	??_C@_0CF@IAPPHMEP@?2Resources?2Images?2MissingTextur@ ; `string'
PUBLIC	??_C@_06EBGDJLCF@Worker@			; `string'
PUBLIC	??_C@_0LK@FDDBKKFA@?$HL?$HN?6layout?$CIlocation?5?$DN?50?$CJ?5in?5vec3@ ; `string'
PUBLIC	??_C@_0EN@HDMKLAPC@?$HL?$HN?6out?5vec4?5FragColor?$DL?6void?5mai@ ; `string'
PUBLIC	??_C@_0IB@DOLDEECH@?$CDversion?5330?5core?6?7?7layout?5?$CIloc@ ; `string'
PUBLIC	??_C@_0GN@PCHOLCAJ@?$CDversion?5330?5core?6?7?7out?5vec4?5Fr@ ; `string'
PUBLIC	??_C@_0GH@OLANIJEP@?$CDversion?5150?5core?6?7?7in?5vec2?5pos@ ; `string'
PUBLIC	??_C@_02MNMNLDAI@?$CJ?6@			; `string'
PUBLIC	??_C@_07FAOHMOOG@Shader?$CI@			; `string'
PUBLIC	??_C@_0DL@LAMHPFOC@?9?9?5?9?9?9?9?9?9?9?9?9?9?9?9?9?9?9?9?9?9?9?9?9?9?9?9?9?9?9?9@ ; `string'
PUBLIC	??_C@_0DB@ECPFLOHG@Vertex?5Shader?5Code?3?6?$DN?$DN?$DN?$DN?$DN?$DN?$DN?$DN?$DN?$DN?$DN@ ; `string'
PUBLIC	??_C@_0BO@GGPJLJIB@?6?$DN?$DN?$DN?$DN?$DN?$DN?$DN?$DN?$DN?$DN?$DN?$DN?$DN?$DN?$DN?$DN?$DN?$DN?$DN?$DN?$DN?$DN?$DN?$DN?$DN?$DN?$DN?6@ ; `string'
PUBLIC	??_C@_0DD@ECODGHGI@Fragment?5Shader?5Code?3?6?$DN?$DN?$DN?$DN?$DN?$DN?$DN?$DN?$DN@ ; `string'
PUBLIC	??_C@_06HPIMPLPK@VERTEX@			; `string'
PUBLIC	??_C@_08PLCGCNBD@FRAGMENT@			; `string'
PUBLIC	??_C@_07DKOHAGLI@PROGRAM@			; `string'
PUBLIC	??_C@_0BE@KAPIAMOG@Compiled?5MAIN_Id?5?3?5@	; `string'
PUBLIC	??_C@_08DDIBCFCH@Status?3?5@			; `string'
PUBLIC	??_C@_06CMLPEGNC@Failed@			; `string'
PUBLIC	??_C@_0BF@FJEMFIMH@Compiled?5DEPTH_Id?5?3?5@	; `string'
PUBLIC	??_C@_0DN@FAOBHOCO@?6?5?9?9?5?9?9?9?9?9?9?9?9?9?9?9?9?9?9?9?9?9?9?9?9?9?9?9?9?9?9@ ; `string'
PUBLIC	??_C@_0CK@EJCJJIBF@ERROR?3?3SHADER_COMPILATION_ERROR@ ; `string'
PUBLIC	??_C@_0CH@FKKLOEIM@ERROR?3?3PROGRAM_LINKING_ERROR?5of@ ; `string'
PUBLIC	??_C@_0KK@HFKHFKCB@?$CDversion?5330?5core?6layout?$CIlocati@ ; `string'
PUBLIC	??_C@_0FLH@KNLHCNKP@?$CDversion?5330?5core?6out?5vec4?5Frag@ ; `string'
PUBLIC	??_C@_0CM@DNCCJING@?5FragColor?5?$DN?5vec4?$CI1?40f?0?50?45f?0?50@ ; `string'
PUBLIC	??_C@_0MA@JGIKEHMD@?$HL?$HN?6layout?$CIlocation?5?$DN?50?$CJ?5in?5vec3@ ; `string'
PUBLIC	??_C@_0CP@CCKLCCAM@?$HL?$HN?6out?5vec4?5FragColor?$DL?6?$HL?$HN?6void?5@ ; `string'
PUBLIC	??_C@_0DB@LEHBABJ@?6layout?5?$CIlocation?5?$DN?52?$CJ?5in?5vec2?5@ ; `string'
PUBLIC	??_C@_08HAGAMINK@UV?$DN?5aUV?$DL@		; `string'
PUBLIC	??_C@_0FM@POPKEIHD@?6in?5vec2?5UV?$DL?6?1?1uniform?5sampler2@ ; `string'
PUBLIC	??_C@_0CJ@EGJBBMHK@FragColor?5?$DNtexture?$CIalbedo?0?5UV?$CKU@ ; `string'
PUBLIC	??_C@_0KC@LOJHPOGF@?$HL?$HN?6layout?5?$CIlocation?5?$DN?50?$CJ?5in?5vec@ ; `string'
PUBLIC	??_C@_0CGMG@KEOCCHAF@?$HL?$HN?6out?5vec4?5FragColor?$DL?6?6?5?5?5?5in?5@ ; `string'
PUBLIC	??_C@_06HCNFJPHJ@albedo@			; `string'
PUBLIC	??_C@_08DPLIAGAA@specular@			; `string'
PUBLIC	??_C@_07EJELELLN@UVScale@			; `string'
PUBLIC	??_C@_07EMPPFCON@Unnamed@			; `string'
PUBLIC	??_C@_01KICIPPFI@?2@				; `string'
PUBLIC	??_C@_0N@DBIPJNPI@Cannot?5open?5@		; `string'
PUBLIC	??_C@_02MFEGBGKN@v?5@				; `string'
PUBLIC	??_C@_02BLJBIOPN@vt@				; `string'
PUBLIC	??_C@_02NJGALFNN@f?5@				; `string'
PUBLIC	??_C@_0BE@JINKBLI@f?5?$CFi?1?$CFi?5?$CFi?1?$CFi?5?$CFi?1?$CFi@ ; `string'
PUBLIC	??_C@_03MMGHDJKG@use@				; `string'
PUBLIC	??_C@_02NGLBIOFC@o?5@				; `string'
PUBLIC	??_C@_09FDONJCAH@Premetive@			; `string'
PUBLIC	??_C@_06JBMJMGAL@Sphere@			; `string'
PUBLIC	??_C@_0L@EJMOOPIK@GameObject@			; `string'
PUBLIC	??_C@_0BD@MDHNBLPI@DepthBuffer?5Id?3?5?$HL?$HN@	; `string'
PUBLIC	??_C@_0P@EIPPFLOO@projViewMatrix@		; `string'
PUBLIC	??_C@_0BC@GFNKLKCF@Directional?5Light@		; `string'
PUBLIC	??_C@_0BB@EGOIFEHL@DirectionalLight@		; `string'
PUBLIC	??_C@_07HBJDLKAL@viewPos@			; `string'
PUBLIC	??_C@_0BF@ICPALIIJ@inv_view_proj_matrix@	; `string'
PUBLIC	??_C@_0BF@DFIDHDPI@inv_lightSpaceMatrix@	; `string'
PUBLIC	??_C@_0M@PIDOJOI@view_matrix@			; `string'
PUBLIC	??_C@_0M@CHMEDKGI@proj_matrix@			; `string'
PUBLIC	??_C@_0BA@OAMELBLA@lightProjMatrix@		; `string'
PUBLIC	??_C@_0BA@KFKPKPII@lightViewMatrix@		; `string'
PUBLIC	??_C@_0M@OLBNGFPP@cameraDepth@			; `string'
PUBLIC	??_C@_09DIAMJLCM@shadowMap@			; `string'
PUBLIC	??_C@_0BA@BAFMHDDH@shadowPrecision@		; `string'
PUBLIC	??_C@_08EGHFDCKI@lightPos@			; `string'
PUBLIC	??_C@_0M@KPICCEBP@LearnOpenGL@			; `string'
PUBLIC	??_C@_0BN@NLIIBAPB@Failed?5to?5create?5GLFW?5window@ ; `string'
PUBLIC	??_C@_0BK@HEFHANKG@Failed?5to?5initialize?5GLAD@ ; `string'
PUBLIC	??_C@_0DC@FANMBCGC@?$FO?$DN?$DN?$DN?$DN?$DN?$DN?$DN?$DN?$DN?$DN?$DN?$DN?$DN?$DN?$DN?$DN?$DN?5?5Parallel?5?5?5@ ; `string'
PUBLIC	??_C@_02PHMGELLB@?6?6@				; `string'
PUBLIC	??_C@_0DF@EENNFFLC@v?$DN?$DN?$DN?$DN?$DN?$DN?$DN?$DN?$DN?$DN?$DN?$DN?$DN?$DN?$DN?$DN?$DN?5?5?5Shader?5Log@ ; `string'
PUBLIC	??_C@_0DF@ICEIEJPL@?$FO?$DN?$DN?$DN?$DN?$DN?$DN?$DN?$DN?$DN?$DN?$DN?$DN?$DN?$DN?$DN?$DN?$DN?5?5?5Shader?5Log@ ; `string'
PUBLIC	??_C@_0DF@LEBIPHOM@v?$DN?$DN?$DN?$DN?$DN?$DN?$DN?$DN?$DN?$DN?$DN?$DN?$DN?$DN?$DN?$DN?$DN?5?5Texture?5Log@ ; `string'
PUBLIC	??_C@_0CG@KFIOELEG@?2Resources?2Images?2checker?9map_t@ ; `string'
PUBLIC	??_C@_0BP@KOKBNBBP@?2Resources?2Images?2texture1?4jpg@ ; `string'
PUBLIC	??_C@_0BP@CIDFKDLB@?2Resources?2Images?2texture2?4jpg@ ; `string'
PUBLIC	??_C@_0BP@ODGJHABE@?2Resources?2Images?2texture3?4jpg@ ; `string'
PUBLIC	??_C@_0BN@LIMKCLOC@?2Resources?2Images?2Brick2?4png@ ; `string'
PUBLIC	??_C@_0BO@DJJCCLJG@?2Resources?2Images?2Grassv2?4jpg@ ; `string'
PUBLIC	??_C@_0DL@JGPDOPJL@?2Resources?2Images?2hoodwink_body@ ; `string'
PUBLIC	??_C@_0DL@IKMDOAIA@?2Resources?2Images?2hoodwink_head@ ; `string'
PUBLIC	??_C@_0DF@HCINOLKF@?$FO?$DN?$DN?$DN?$DN?$DN?$DN?$DN?$DN?$DN?$DN?$DN?$DN?$DN?$DN?$DN?$DN?$DN?5?5Texture?5Log@ ; `string'
PUBLIC	??_C@_0DI@FKKFNAMF@v?$DN?$DN?$DN?$DN?$DN?$DN?$DN?$DN?$DN?$DN?$DN?$DN?$DN?$DN?$DN?$DN?$DN?5?5?5Materials?5@ ; `string'
PUBLIC	??_C@_0DI@OPBAJGLF@?$FO?$DN?$DN?$DN?$DN?$DN?$DN?$DN?$DN?$DN?$DN?$DN?$DN?$DN?$DN?$DN?$DN?$DN?5?5?5Materials?5@ ; `string'
PUBLIC	??_C@_0DF@COILFDAN@v?$DN?$DN?$DN?$DN?$DN?$DN?$DN?$DN?$DN?$DN?$DN?$DN?$DN?$DN?$DN?$DN?$DN?5?5?5Meshes?5Log@ ; `string'
PUBLIC	??_C@_0BO@HGBLLDDJ@Resources?2Models?2untitled?4obj@ ; `string'
PUBLIC	??_C@_0BO@FHPOGOLG@Resources?2Models?2Hoodwink?4obj@ ; `string'
PUBLIC	??_C@_0DF@OIBOEPEE@?$FO?$DN?$DN?$DN?$DN?$DN?$DN?$DN?$DN?$DN?$DN?$DN?$DN?$DN?$DN?$DN?$DN?$DN?5?5?5Meshes?5Log@ ; `string'
PUBLIC	??_C@_0DL@LOCJPJNJ@v?$DN?$DN?$DN?$DN?$DN?$DN?$DN?$DN?$DN?$DN?$DN?$DN?$DN?$DN?$DN?$DN?$DN?5?5?5Creating?5R@ ; `string'
PUBLIC	??_C@_0BK@FGACGJGF@Framebuffer?5not?5complete?$CB@ ; `string'
PUBLIC	??_C@_0DI@MJBKCDM@v?$DN?$DN?$DN?$DN?$DN?$DN?$DN?$DN?$DN?$DN?$DN?$DN?$DN?$DN?5?5?5Post?5Processi@ ; `string'
PUBLIC	??_C@_0DI@LJCEOEEM@?$FO?$DN?$DN?$DN?$DN?$DN?$DN?$DN?$DN?$DN?$DN?$DN?$DN?$DN?$DN?5?5?5Post?5Processi@ ; `string'
PUBLIC	??_C@_0BI@CGLLFBDD@v?5?5Full?5startup?5time?5?5v@ ; `string'
PUBLIC	??_C@_0L@KJIKBBKO@ShadowResX@			; `string'
PUBLIC	??_C@_0L@LAJBCAOP@ShadowResY@			; `string'
PUBLIC	??_C@_09MCDCIIPB@DRLOffest@			; `string'
PUBLIC	??_C@_0L@CHAIKEHD@DRLOffest2@			; `string'
PUBLIC	??_C@_0BF@DHCIONHG@Screen?5Space?5Shadows@	; `string'
PUBLIC	??_C@_09COKGFAGH@?5backCull@			; `string'
PUBLIC	??_C@_05MCEBKLMH@?5Move@			; `string'
PUBLIC	??_C@_0BF@LCOMFHIP@Draw?5Occlusion?5Boxes@	; `string'
PUBLIC	??_C@_07DGBOLLPD@?5DSided@			; `string'
PUBLIC	??_C@_08JAEFKDLJ@Profiler@			; `string'
PUBLIC	??_C@_0L@FDLMBKB@CPU?3?5?$HL?$HN?5ms@		; `string'
PUBLIC	??_C@_0L@LFOCLCCD@GPU?3?5?$HL?$HN?5ms@		; `string'
PUBLIC	??_C@_0M@PKLFDBFC@Full?3?5?$HL?$HN?5ms@		; `string'
PUBLIC	??_C@_0L@BPKHOCAB@Mem?3?5?$HL?$HN?5mb@		; `string'
PUBLIC	??_C@_0BH@DCOOOFBH@avg?4Fps?3?5?$HL?$HN?5avg?4ms?3?5?$HL?$HN@ ; `string'
PUBLIC	??_C@_0O@FBLEKAML@V?3?5?$HL?$HN?0?5T?3?5?$HL?$HN?5@ ; `string'
PUBLIC	??_C@_0N@LPFKKEBD@?3AM?3am?3PM?3pm@		; `string'
PUBLIC	??_C@_0BJ@DHFDPMIM@invalid?5vector?5subscript@	; `string'
PUBLIC	??_C@_0BA@FOIKENOD@vector?5too?5long@		; `string'
PUBLIC	??_C@_0BI@CFPLBAOH@invalid?5string?5position@	; `string'
PUBLIC	??_C@_1BK@MHIKGOKE@?$AA?3?$AAA?$AAM?$AA?3?$AAa?$AAm?$AA?3?$AAP?$AAM?$AA?3?$AAp?$AAm@ ; `string'
PUBLIC	??_C@_03OJHLLCGB@inf@				; `string'
PUBLIC	??_C@_08OFCDMILK@nan?$CIind?$CJ@		; `string'
PUBLIC	??_C@_03LHCJEHON@nan@				; `string'
PUBLIC	??_C@_09IPFBKMDL@nan?$CIsnan?$CJ@		; `string'
PUBLIC	??_C@_0BL@GOIGLPKN@unordered_map?1set?5too?5long@ ; `string'
PUBLIC	??_C@_0BK@OGNNAFAB@invalid?5hash?5bucket?5count@ ; `string'
PUBLIC	??_C@_0BC@KBDMBKEH@deque?$DMT?$DO?5too?5long@	; `string'
PUBLIC	??_C@_0DB@FGJJGOLD@Can?5not?5switch?5from?5automatic?5t@ ; `string'
PUBLIC	??_C@_04BIJNIPAK@0p?$CL0@			; `string'
PUBLIC	??_C@_0BC@JOAOKPFE@Number?5is?5too?5big@	; `string'
PUBLIC	??_C@_0CM@EFKJINMJ@Format?5specifier?5requires?5numer@ ; `string'
PUBLIC	??_C@_0BM@ONFDPAFF@Invalid?5type?5specification?4@ ; `string'
PUBLIC	??_C@_0CE@OLPMMFCN@Invalid?5presentation?5type?5speci@ ; `string'
PUBLIC	??_C@_0CD@PLBGEFIO@Invalid?5presentation?5type?5for?5b@ ; `string'
PUBLIC	??_C@_0CD@IFHOEGFC@Invalid?5presentation?5type?5for?5c@ ; `string'
PUBLIC	??_C@_0CG@PIIJGCKO@Invalid?5presentation?5type?5for?5i@ ; `string'
PUBLIC	??_C@_0CN@EEOMCCM@Invalid?5presentation?5type?5for?5f@ ; `string'
PUBLIC	??_C@_0CF@MMFFCGKF@Invalid?5presentation?5type?5for?5s@ ; `string'
PUBLIC	??_C@_0CG@LHDOJLDP@Invalid?5presentation?5type?5for?5p@ ; `string'
PUBLIC	??_C@_0DI@JFEOALGI@Modifier?5requires?5an?5integer?5pr@ ; `string'
PUBLIC	??_C@_05JHILFKJA@0e?$CL00@			; `string'
PUBLIC	??_C@_0BL@KNEDAEPA@invalid?5fill?5character?5?8?$HL?8@ ; `string'
PUBLIC	??_C@_0BN@CAABEHAA@Missing?5precision?5specifier?4@ ; `string'
PUBLIC	??_C@_0BJ@FNNNKMGD@Invalid?5fill?5?$CItoo?5long?$CJ?4@ ; `string'
PUBLIC	??_C@_0CO@ILLNLEBH@Precision?5not?5allowed?5for?5this?5@ ; `string'
PUBLIC	??_C@_0BE@JHBJMIJI@Argument?5not?5found?4@	; `string'
PUBLIC	??_C@_0BI@KLAHEKGE@String?5pointer?5is?5null?4@	; `string'
PUBLIC	??_C@_0CC@OGKFJOLL@integral?5cannot?5be?5stored?5in?5ch@ ; `string'
PUBLIC	??_C@_02HDBOMKFI@0b@				; `string'
PUBLIC	??_C@_02OGJKOOPK@0B@				; `string'
PUBLIC	??_C@_02MDDDDAID@0x@				; `string'
PUBLIC	??_C@_02FGLHBECB@0X@				; `string'
PUBLIC	??_C@_0BD@GHJPJCGO@Number?5is?5too?5big?4@	; `string'
PUBLIC	??_C@_0BJ@FLMOJPKL@Width?5is?5not?5an?5integer?4@ ; `string'
PUBLIC	??_C@_0BA@INGMONDA@Negative?5width?4@		; `string'
PUBLIC	??_C@_0BN@DNNEEKIC@Precision?5is?5not?5an?5integer?4@ ; `string'
PUBLIC	??_C@_0BE@DEGOCOHL@Negative?5precision?4@	; `string'
PUBLIC	?frames@@3IA					; frames
PUBLIC	??_R4?$_Fmt_iterator_buffer@V?$back_insert_iterator@V?$basic_string@DU?$char_traits@D@std@@V?$allocator@D@2@@std@@@std@@DU_Fmt_buffer_traits@2@@std@@6B@ ; std::_Fmt_iterator_buffer<std::back_insert_iterator<std::basic_string<char,std::char_traits<char>,std::allocator<char> > >,char,std::_Fmt_buffer_traits>::`RTTI Complete Object Locator'
PUBLIC	??_R3?$basic_istream@DU?$char_traits@D@std@@@std@@8 ; std::basic_istream<char,std::char_traits<char> >::`RTTI Class Hierarchy Descriptor'
PUBLIC	?Rotation@@3MA					; Rotation
PUBLIC	??_7DepthBuffer@@6B@				; DepthBuffer::`vftable'
PUBLIC	??_7Shader_CN@@6B@				; Shader_CN::`vftable'
PUBLIC	??_R0?AV?$basic_filebuf@DU?$char_traits@D@std@@@std@@@8 ; std::basic_filebuf<char,std::char_traits<char> > `RTTI Type Descriptor'
PUBLIC	?frameRate@@3MA					; frameRate
PUBLIC	??_R0?AVruntime_error@std@@@8			; std::runtime_error `RTTI Type Descriptor'
PUBLIC	??_R1A@?0A@EA@TextureWorker@@8			; TextureWorker::`RTTI Base Class Descriptor at (0,-1,0,64)'
PUBLIC	??_R4exception@std@@6B@				; std::exception::`RTTI Complete Object Locator'
PUBLIC	??_R1A@?0A@EA@?$basic_istringstream@DU?$char_traits@D@std@@V?$allocator@D@2@@std@@8 ; std::basic_istringstream<char,std::char_traits<char>,std::allocator<char> >::`RTTI Base Class Descriptor at (0,-1,0,64)'
PUBLIC	?DrawOcclusionBoxes@@3_NA			; DrawOcclusionBoxes
PUBLIC	?_Adjustment@?CB@???$__to_chars@D@std@@YA?AU?$pair@PEADW4errc@std@@@1@QEAD0U__floating_decimal_32@1@W4chars_format@1@II@Z@4QBEB ; `std::__to_chars<char>'::`33'::_Adjustment
PUBLIC	??_R3Material@@8				; Material::`RTTI Class Hierarchy Descriptor'
PUBLIC	??_R2?$basic_istringstream@DU?$char_traits@D@std@@V?$allocator@D@2@@std@@8 ; std::basic_istringstream<char,std::char_traits<char>,std::allocator<char> >::`RTTI Base Class Array'
PUBLIC	??_R2bad_array_new_length@std@@8		; std::bad_array_new_length::`RTTI Base Class Array'
PUBLIC	??_R2DepthBuffer@@8				; DepthBuffer::`RTTI Base Class Array'
PUBLIC	??_R2system_error@std@@8			; std::system_error::`RTTI Base Class Array'
PUBLIC	??_R1A@?0A@EA@bad_optional_access@std@@8	; std::bad_optional_access::`RTTI Base Class Descriptor at (0,-1,0,64)'
PUBLIC	??_R1A@?0A@EA@system_error@std@@8		; std::system_error::`RTTI Base Class Descriptor at (0,-1,0,64)'
PUBLIC	??_R0?AVbad_alloc@std@@@8			; std::bad_alloc `RTTI Type Descriptor'
PUBLIC	??_R1A@?0A@EA@Material@@8			; Material::`RTTI Base Class Descriptor at (0,-1,0,64)'
PUBLIC	??_R4Shader@@6B@				; Shader::`RTTI Complete Object Locator'
PUBLIC	?DSided@@3_NA					; DSided
PUBLIC	??_R0?AU_Fmt_buffer_traits@std@@@8		; std::_Fmt_buffer_traits `RTTI Type Descriptor'
PUBLIC	??_R1A@?0A@EA@?$basic_istream@DU?$char_traits@D@std@@@std@@8 ; std::basic_istream<char,std::char_traits<char> >::`RTTI Base Class Descriptor at (0,-1,0,64)'
PUBLIC	??_R3_Fmt_buffer_traits@std@@8			; std::_Fmt_buffer_traits::`RTTI Class Hierarchy Descriptor'
PUBLIC	?curCamera@@3HA					; curCamera
PUBLIC	?SCR_HEIGHT@@3IA				; SCR_HEIGHT
PUBLIC	??_R3ScreenSpaceShadows@@8			; ScreenSpaceShadows::`RTTI Class Hierarchy Descriptor'
PUBLIC	??_R3LightSource@@8				; LightSource::`RTTI Class Hierarchy Descriptor'
PUBLIC	??_7?$numpunct@D@std@@6B@			; std::numpunct<char>::`vftable'
PUBLIC	_TI4?AVsystem_error@std@@
PUBLIC	??_7format_error@std@@6B@			; std::format_error::`vftable'
PUBLIC	_CT??_R0?AVfilesystem_error@filesystem@std@@@8??0filesystem_error@filesystem@std@@QEAA@AEBV012@@Z136
PUBLIC	??_R0?AV?$basic_ifstream@DU?$char_traits@D@std@@@std@@@8 ; std::basic_ifstream<char,std::char_traits<char> > `RTTI Type Descriptor'
PUBLIC	??_R2Worker@@8					; Worker::`RTTI Base Class Array'
PUBLIC	??_R0?AVScreenSpaceShadows@@@8			; ScreenSpaceShadows `RTTI Type Descriptor'
PUBLIC	??_R4runtime_error@std@@6B@			; std::runtime_error::`RTTI Complete Object Locator'
PUBLIC	??_R4_System_error_category@std@@6B@		; std::_System_error_category::`RTTI Complete Object Locator'
PUBLIC	??_7filesystem_error@filesystem@std@@6B@	; std::filesystem::filesystem_error::`vftable'
PUBLIC	??_R4_System_error@std@@6B@			; std::_System_error::`RTTI Complete Object Locator'
PUBLIC	??_R3_Facet_base@std@@8				; std::_Facet_base::`RTTI Class Hierarchy Descriptor'
PUBLIC	?vert@M_Cube@@0QBMB				; M_Cube::vert
PUBLIC	??_R4bad_optional_access@std@@6B@		; std::bad_optional_access::`RTTI Complete Object Locator'
PUBLIC	??_R1A@?0A@EA@bad_cast@std@@8			; std::bad_cast::`RTTI Base Class Descriptor at (0,-1,0,64)'
PUBLIC	??_R4_Generic_error_category@std@@6B@		; std::_Generic_error_category::`RTTI Complete Object Locator'
PUBLIC	??_R3?$basic_ifstream@DU?$char_traits@D@std@@@std@@8 ; std::basic_ifstream<char,std::char_traits<char> >::`RTTI Class Hierarchy Descriptor'
PUBLIC	?CameraDepth@@3UDepthBuffer@@A			; CameraDepth
PUBLIC	??_R3LightShader@@8				; LightShader::`RTTI Class Hierarchy Descriptor'
PUBLIC	??_R3GameObject@@8				; GameObject::`RTTI Class Hierarchy Descriptor'
PUBLIC	?VSync@@3EA					; VSync
PUBLIC	??_R0?AV?$basic_stringbuf@DU?$char_traits@D@std@@V?$allocator@D@2@@std@@@8 ; std::basic_stringbuf<char,std::char_traits<char>,std::allocator<char> > `RTTI Type Descriptor'
PUBLIC	??_R2bad_alloc@std@@8				; std::bad_alloc::`RTTI Base Class Array'
PUBLIC	??_7_Generic_error_category@std@@6B@		; std::_Generic_error_category::`vftable'
PUBLIC	??_R0?AVios_base@std@@@8			; std::ios_base `RTTI Type Descriptor'
PUBLIC	??_R4format_error@std@@6B@			; std::format_error::`RTTI Complete Object Locator'
PUBLIC	??_R0?AVerror_category@std@@@8			; std::error_category `RTTI Type Descriptor'
PUBLIC	??_R2?$basic_stringbuf@DU?$char_traits@D@std@@V?$allocator@D@2@@std@@8 ; std::basic_stringbuf<char,std::char_traits<char>,std::allocator<char> >::`RTTI Base Class Array'
PUBLIC	??_R4ScreenSpaceShadowShader@@6B@		; ScreenSpaceShadowShader::`RTTI Complete Object Locator'
PUBLIC	??_R3_Crt_new_delete@std@@8			; std::_Crt_new_delete::`RTTI Class Hierarchy Descriptor'
PUBLIC	??_R1A@?0A@EA@runtime_error@std@@8		; std::runtime_error::`RTTI Base Class Descriptor at (0,-1,0,64)'
PUBLIC	??_R2_System_error@std@@8			; std::_System_error::`RTTI Base Class Array'
PUBLIC	??_R0?AVsystem_error@std@@@8			; std::system_error `RTTI Type Descriptor'
PUBLIC	??_R0?AV?$_Fmt_iterator_buffer@V?$back_insert_iterator@V?$basic_string@DU?$char_traits@D@std@@V?$allocator@D@2@@std@@@std@@DU_Fmt_buffer_traits@2@@std@@@8 ; std::_Fmt_iterator_buffer<std::back_insert_iterator<std::basic_string<char,std::char_traits<char>,std::allocator<char> > >,char,std::_Fmt_buffer_traits> `RTTI Type Descriptor'
PUBLIC	??_R0?AV_System_error_category@std@@@8		; std::_System_error_category `RTTI Type Descriptor'
PUBLIC	_TI2?AVbad_optional_access@std@@
PUBLIC	??_R3DirectionalLight@@8			; DirectionalLight::`RTTI Class Hierarchy Descriptor'
PUBLIC	??_7ScreenSpaceShadows@@6B@			; ScreenSpaceShadows::`vftable'
PUBLIC	??_R2ScreenSpaceShadowShader@@8			; ScreenSpaceShadowShader::`RTTI Base Class Array'
PUBLIC	_CTA3?AVbad_array_new_length@std@@
PUBLIC	??_7bad_array_new_length@std@@6B@		; std::bad_array_new_length::`vftable'
PUBLIC	??_R1A@?0A@EA@?$basic_ifstream@DU?$char_traits@D@std@@@std@@8 ; std::basic_ifstream<char,std::char_traits<char> >::`RTTI Base Class Descriptor at (0,-1,0,64)'
PUBLIC	??_R0?AVScreenSpaceShadowShader@@@8		; ScreenSpaceShadowShader `RTTI Type Descriptor'
PUBLIC	??_7ScreenSpacePostProcessing@@6B@		; ScreenSpacePostProcessing::`vftable'
PUBLIC	??_R1A@?0A@EA@ScreenSpaceShadows@@8		; ScreenSpaceShadows::`RTTI Base Class Descriptor at (0,-1,0,64)'
PUBLIC	?CurrentColor@@3W4ConsoleColor@@A		; CurrentColor
PUBLIC	??_R3DepthBuffer@@8				; DepthBuffer::`RTTI Class Hierarchy Descriptor'
PUBLIC	??_R17A@3EA@?$_Iosb@H@std@@8			; std::_Iosb<int>::`RTTI Base Class Descriptor at (8,0,4,64)'
PUBLIC	??_R4GlFrameBuffer@@6B@				; GlFrameBuffer::`RTTI Complete Object Locator'
PUBLIC	??_R0?AVWorker@@@8				; Worker `RTTI Type Descriptor'
PUBLIC	??_R4TextureWorker@@6B@				; TextureWorker::`RTTI Complete Object Locator'
PUBLIC	??_R1A@?0A@EA@exception@std@@8			; std::exception::`RTTI Base Class Descriptor at (0,-1,0,64)'
PUBLIC	??_R2LightShader@@8				; LightShader::`RTTI Base Class Array'
PUBLIC	?MatInUse@@3PEAVMaterial@@EA			; MatInUse
PUBLIC	??_7LightSource@@6B@				; LightSource::`vftable'
PUBLIC	??_R4system_error@std@@6B@			; std::system_error::`RTTI Complete Object Locator'
PUBLIC	?_Static@?1???$_Immortalize_memcpy_image@V_Generic_error_category@std@@@std@@YAAEBV_Generic_error_category@1@XZ@4V21@B ; `std::_Immortalize_memcpy_image<std::_Generic_error_category>'::`2'::_Static
PUBLIC	??_R3Shader@@8					; Shader::`RTTI Class Hierarchy Descriptor'
PUBLIC	??_R1A@?0A@EA@_Generic_error_category@std@@8	; std::_Generic_error_category::`RTTI Base Class Descriptor at (0,-1,0,64)'
PUBLIC	?firstMouse@@3_NA				; firstMouse
PUBLIC	??_R0?AVShader_CN@@@8				; Shader_CN `RTTI Type Descriptor'
PUBLIC	??_R1A@?0A@EA@?$basic_streambuf@DU?$char_traits@D@std@@@std@@8 ; std::basic_streambuf<char,std::char_traits<char> >::`RTTI Base Class Descriptor at (0,-1,0,64)'
PUBLIC	??_R1A@?0A@EA@_Facet_base@std@@8		; std::_Facet_base::`RTTI Base Class Descriptor at (0,-1,0,64)'
PUBLIC	??_R2ScreenSpaceShadows@@8			; ScreenSpaceShadows::`RTTI Base Class Array'
PUBLIC	??_R1A@?0A@EA@bad_alloc@std@@8			; std::bad_alloc::`RTTI Base Class Descriptor at (0,-1,0,64)'
PUBLIC	??_7?$basic_filebuf@DU?$char_traits@D@std@@@std@@6B@ ; std::basic_filebuf<char,std::char_traits<char> >::`vftable'
PUBLIC	??_R0?AV_Facet_base@std@@@8			; std::_Facet_base `RTTI Type Descriptor'
PUBLIC	??_R0?AV?$_Fmt_buffer@D@std@@@8			; std::_Fmt_buffer<char> `RTTI Type Descriptor'
PUBLIC	??_7Shader3d@@6B@				; Shader3d::`vftable'
PUBLIC	??_R1A@?0A@EA@?$_Fmt_buffer@D@std@@8		; std::_Fmt_buffer<char>::`RTTI Base Class Descriptor at (0,-1,0,64)'
PUBLIC	?Input@@3PEAVInputManager@@EA			; Input
PUBLIC	??_R2?$basic_istream@DU?$char_traits@D@std@@@std@@8 ; std::basic_istream<char,std::char_traits<char> >::`RTTI Base Class Array'
PUBLIC	?hdc@@3PEAUHDC__@@EA				; hdc
PUBLIC	??_R3_System_error@std@@8			; std::_System_error::`RTTI Class Hierarchy Descriptor'
PUBLIC	??_R0?AV_Generic_error_category@std@@@8		; std::_Generic_error_category `RTTI Type Descriptor'
PUBLIC	??_R3bad_optional_access@std@@8			; std::bad_optional_access::`RTTI Class Hierarchy Descriptor'
PUBLIC	??_R0?AU_Crt_new_delete@std@@@8			; std::_Crt_new_delete `RTTI Type Descriptor'
PUBLIC	??_R1A@?0A@EA@Material_CNShader@@8		; Material_CNShader::`RTTI Base Class Descriptor at (0,-1,0,64)'
PUBLIC	??_R0?AV?$_Iosb@H@std@@@8			; std::_Iosb<int> `RTTI Type Descriptor'
PUBLIC	?averageFrameTimeMilliseconds@@3MA		; averageFrameTimeMilliseconds
PUBLIC	??_R3TextureWorker@@8				; TextureWorker::`RTTI Class Hierarchy Descriptor'
PUBLIC	?tris@M_Cube@@0QBIB				; M_Cube::tris
PUBLIC	??_R17?0A@EA@_Crt_new_delete@std@@8		; std::_Crt_new_delete::`RTTI Base Class Descriptor at (8,-1,0,64)'
PUBLIC	_CTA2?AVbad_cast@std@@
PUBLIC	??_R0?AV?$numpunct@D@std@@@8			; std::numpunct<char> `RTTI Type Descriptor'
PUBLIC	??_R2Shader@@8					; Shader::`RTTI Base Class Array'
PUBLIC	??_R4LightShader@@6B@				; LightShader::`RTTI Complete Object Locator'
PUBLIC	??_R3GlFrameBuffer@@8				; GlFrameBuffer::`RTTI Class Hierarchy Descriptor'
PUBLIC	??_R2_System_error_category@std@@8		; std::_System_error_category::`RTTI Base Class Array'
PUBLIC	?_Adjustment@?CB@???$__to_chars@D@std@@YA?AU?$pair@PEADW4errc@std@@@1@QEAD0U__floating_decimal_64@1@W4chars_format@1@N@Z@4QBEB ; `std::__to_chars<char>'::`33'::_Adjustment
PUBLIC	_CT??_R0?AVformat_error@std@@@8??0format_error@std@@QEAA@AEBV01@@Z24
PUBLIC	??_7bad_alloc@std@@6B@				; std::bad_alloc::`vftable'
PUBLIC	??_7GlFrameBuffer@@6B@				; GlFrameBuffer::`vftable'
PUBLIC	??_R0?AV?$basic_streambuf@DU?$char_traits@D@std@@@std@@@8 ; std::basic_streambuf<char,std::char_traits<char> > `RTTI Type Descriptor'
PUBLIC	_CT??_R0?AVsystem_error@std@@@8??0system_error@std@@QEAA@AEBV01@@Z40
PUBLIC	??_R4Material_CNShader@@6B@			; Material_CNShader::`RTTI Complete Object Locator'
PUBLIC	?_Unknown_error@?4??message@_System_error_category@std@@UEBA?AV?$basic_string@DU?$char_traits@D@std@@V?$allocator@D@2@@3@H@Z@4QBDB ; `std::_System_error_category::message'::`5'::_Unknown_error
PUBLIC	?GPUTime@@3MA					; GPUTime
PUBLIC	??_R0?AVTextureWorker@@@8			; TextureWorker `RTTI Type Descriptor'
PUBLIC	??_R3?$basic_stringbuf@DU?$char_traits@D@std@@V?$allocator@D@2@@std@@8 ; std::basic_stringbuf<char,std::char_traits<char>,std::allocator<char> >::`RTTI Class Hierarchy Descriptor'
PUBLIC	??_R2bad_cast@std@@8				; std::bad_cast::`RTTI Base Class Array'
PUBLIC	??_R2exception@std@@8				; std::exception::`RTTI Base Class Array'
PUBLIC	??_7Material_CNShader@@6B@			; Material_CNShader::`vftable'
PUBLIC	_TI5?AVfilesystem_error@filesystem@std@@
PUBLIC	??_7bad_cast@std@@6B@				; std::bad_cast::`vftable'
PUBLIC	??_R2GlFrameBuffer@@8				; GlFrameBuffer::`RTTI Base Class Array'
PUBLIC	??_R3ScreenSpaceShadowShader@@8			; ScreenSpaceShadowShader::`RTTI Class Hierarchy Descriptor'
PUBLIC	??_R3?$basic_ios@DU?$char_traits@D@std@@@std@@8	; std::basic_ios<char,std::char_traits<char> >::`RTTI Class Hierarchy Descriptor'
PUBLIC	??_R3_Generic_error_category@std@@8		; std::_Generic_error_category::`RTTI Class Hierarchy Descriptor'
PUBLIC	??_R0?AVMaterial_CNShader@@@8			; Material_CNShader `RTTI Type Descriptor'
PUBLIC	?CurrentShaderType@@3IA				; CurrentShaderType
PUBLIC	??_R3format_error@std@@8			; std::format_error::`RTTI Class Hierarchy Descriptor'
PUBLIC	??_R3?$basic_istringstream@DU?$char_traits@D@std@@V?$allocator@D@2@@std@@8 ; std::basic_istringstream<char,std::char_traits<char>,std::allocator<char> >::`RTTI Class Hierarchy Descriptor'
PUBLIC	??_R4ScreenSpaceShadows@@6B@			; ScreenSpaceShadows::`RTTI Complete Object Locator'
PUBLIC	??_R4DepthBuffer@@6B@				; DepthBuffer::`RTTI Complete Object Locator'
PUBLIC	??_R0?AVLightSource@@@8				; LightSource `RTTI Type Descriptor'
PUBLIC	??_R0?AUDepthBuffer@@@8				; DepthBuffer `RTTI Type Descriptor'
PUBLIC	??_R2error_category@std@@8			; std::error_category::`RTTI Base Class Array'
PUBLIC	??_7bad_optional_access@std@@6B@		; std::bad_optional_access::`vftable'
PUBLIC	??_R1A@?0A@EA@facet@locale@std@@8		; std::locale::facet::`RTTI Base Class Descriptor at (0,-1,0,64)'
PUBLIC	?VerCount@@3MA					; VerCount
PUBLIC	??_R0?AVbad_cast@std@@@8			; std::bad_cast `RTTI Type Descriptor'
PUBLIC	??_R3Material_CNShader@@8			; Material_CNShader::`RTTI Class Hierarchy Descriptor'
PUBLIC	_TI2?AVbad_cast@std@@
PUBLIC	?DRLOffest@@3MA					; DRLOffest
PUBLIC	_CTA2?AVbad_optional_access@std@@
PUBLIC	??_R1A@?0A@EA@Shader@@8				; Shader::`RTTI Base Class Descriptor at (0,-1,0,64)'
PUBLIC	??_R3Shader3d@@8				; Shader3d::`RTTI Class Hierarchy Descriptor'
PUBLIC	_CTA4?AVsystem_error@std@@
PUBLIC	??_7?$basic_stringbuf@DU?$char_traits@D@std@@V?$allocator@D@2@@std@@6B@ ; std::basic_stringbuf<char,std::char_traits<char>,std::allocator<char> >::`vftable'
PUBLIC	??_R1A@?0A@EA@Shader3d@@8			; Shader3d::`RTTI Base Class Descriptor at (0,-1,0,64)'
PUBLIC	??_7?$_Fmt_iterator_buffer@V?$back_insert_iterator@V?$basic_string@DU?$char_traits@D@std@@V?$allocator@D@2@@std@@@std@@DU_Fmt_buffer_traits@2@@std@@6B@ ; std::_Fmt_iterator_buffer<std::back_insert_iterator<std::basic_string<char,std::char_traits<char>,std::allocator<char> > >,char,std::_Fmt_buffer_traits>::`vftable'
PUBLIC	??_R1A@?0A@EA@DirectionalLight@@8		; DirectionalLight::`RTTI Base Class Descriptor at (0,-1,0,64)'
PUBLIC	??_R2Material_CNShader@@8			; Material_CNShader::`RTTI Base Class Array'
PUBLIC	??_R0?AVLightShader@@@8				; LightShader `RTTI Type Descriptor'
PUBLIC	?_Static@?1???$_Immortalize_memcpy_image@V_System_error_category@std@@@std@@YAAEBV_System_error_category@1@XZ@4V21@B ; `std::_Immortalize_memcpy_image<std::_System_error_category>'::`2'::_Static
PUBLIC	?DebugShaders@@3_NA				; DebugShaders
PUBLIC	??_R4Shader_CN@@6B@				; Shader_CN::`RTTI Complete Object Locator'
PUBLIC	??_R4Material@@6B@				; Material::`RTTI Complete Object Locator'
PUBLIC	?DRLOffest2@@3MA				; DRLOffest2
PUBLIC	??_R2DirectionalLight@@8			; DirectionalLight::`RTTI Base Class Array'
PUBLIC	??_7exception@std@@6B@				; std::exception::`vftable'
PUBLIC	??_R3?$_Fmt_iterator_buffer@V?$back_insert_iterator@V?$basic_string@DU?$char_traits@D@std@@V?$allocator@D@2@@std@@@std@@DU_Fmt_buffer_traits@2@@std@@8 ; std::_Fmt_iterator_buffer<std::back_insert_iterator<std::basic_string<char,std::char_traits<char>,std::allocator<char> > >,char,std::_Fmt_buffer_traits>::`RTTI Class Hierarchy Descriptor'
PUBLIC	??_R17?0A@EA@GameObject@@8			; GameObject::`RTTI Base Class Descriptor at (8,-1,0,64)'
PUBLIC	??_R0?AV?$basic_istringstream@DU?$char_traits@D@std@@V?$allocator@D@2@@std@@@8 ; std::basic_istringstream<char,std::char_traits<char>,std::allocator<char> > `RTTI Type Descriptor'
PUBLIC	??_R1A@?0A@EA@?$_Fmt_iterator_buffer@V?$back_insert_iterator@V?$basic_string@DU?$char_traits@D@std@@V?$allocator@D@2@@std@@@std@@DU_Fmt_buffer_traits@2@@std@@8 ; std::_Fmt_iterator_buffer<std::back_insert_iterator<std::basic_string<char,std::char_traits<char>,std::allocator<char> > >,char,std::_Fmt_buffer_traits>::`RTTI Base Class Descriptor at (0,-1,0,64)'
PUBLIC	??_R0?AVShader@@@8				; Shader `RTTI Type Descriptor'
PUBLIC	??_R0?AV?$basic_istream@DU?$char_traits@D@std@@@std@@@8 ; std::basic_istream<char,std::char_traits<char> > `RTTI Type Descriptor'
PUBLIC	??_R0?AVbad_optional_access@std@@@8		; std::bad_optional_access `RTTI Type Descriptor'
PUBLIC	??_R4?$basic_ifstream@DU?$char_traits@D@std@@@std@@6B@ ; std::basic_ifstream<char,std::char_traits<char> >::`RTTI Complete Object Locator'
PUBLIC	??_R0?AVGameObject@@@8				; GameObject `RTTI Type Descriptor'
PUBLIC	??_R1A@?0A@EA@ios_base@std@@8			; std::ios_base::`RTTI Base Class Descriptor at (0,-1,0,64)'
PUBLIC	??_R3exception@std@@8				; std::exception::`RTTI Class Hierarchy Descriptor'
PUBLIC	??_7LightShader@@6B@				; LightShader::`vftable'
PUBLIC	_CT??_R0?AVbad_array_new_length@std@@@8??0bad_array_new_length@std@@QEAA@AEBV01@@Z24
PUBLIC	??_7runtime_error@std@@6B@			; std::runtime_error::`vftable'
PUBLIC	??_R3Worker@@8					; Worker::`RTTI Class Hierarchy Descriptor'
PUBLIC	?_Max_shifted_mantissa@?DC@???$__to_chars@D@std@@YA?AU?$pair@PEADW4errc@std@@@1@QEAD0U__floating_decimal_64@1@W4chars_format@1@N@Z@4QB_KB ; `std::__to_chars<char>'::`50'::_Max_shifted_mantissa
PUBLIC	??_R4?$basic_filebuf@DU?$char_traits@D@std@@@std@@6B@ ; std::basic_filebuf<char,std::char_traits<char> >::`RTTI Complete Object Locator'
PUBLIC	??_R0?AV?$basic_ios@DU?$char_traits@D@std@@@std@@@8 ; std::basic_ios<char,std::char_traits<char> > `RTTI Type Descriptor'
PUBLIC	?quadVBO@@3IA					; quadVBO
PUBLIC	??_7_System_error@std@@6B@			; std::_System_error::`vftable'
PUBLIC	??_R4Shader3d@@6B@				; Shader3d::`RTTI Complete Object Locator'
PUBLIC	??_R1A@?0A@EA@DepthBuffer@@8			; DepthBuffer::`RTTI Base Class Descriptor at (0,-1,0,64)'
PUBLIC	??_R3ScreenSpacePostProcessing@@8		; ScreenSpacePostProcessing::`RTTI Class Hierarchy Descriptor'
PUBLIC	??_R2?$numpunct@D@std@@8			; std::numpunct<char>::`RTTI Base Class Array'
PUBLIC	??_R2ScreenSpacePostProcessing@@8		; ScreenSpacePostProcessing::`RTTI Base Class Array'
PUBLIC	??_R1A@?0A@EA@LightShader@@8			; LightShader::`RTTI Base Class Descriptor at (0,-1,0,64)'
PUBLIC	?IsProjectionDirty@@3EA				; IsProjectionDirty
PUBLIC	??_R2?$basic_streambuf@DU?$char_traits@D@std@@@std@@8 ; std::basic_streambuf<char,std::char_traits<char> >::`RTTI Base Class Array'
PUBLIC	??_R1A@?0A@EA@?$_Iosb@H@std@@8			; std::_Iosb<int>::`RTTI Base Class Descriptor at (0,-1,0,64)'
PUBLIC	??_R0?AVfacet@locale@std@@@8			; std::locale::facet `RTTI Type Descriptor'
PUBLIC	??_8?$basic_ifstream@DU?$char_traits@D@std@@@std@@7B@ ; std::basic_ifstream<char,std::char_traits<char> >::`vbtable'
PUBLIC	??_R2Material@@8				; Material::`RTTI Base Class Array'
PUBLIC	??_R2LightSource@@8				; LightSource::`RTTI Base Class Array'
PUBLIC	??_R2Shader3d@@8				; Shader3d::`RTTI Base Class Array'
PUBLIC	??_R0?AVformat_error@std@@@8			; std::format_error `RTTI Type Descriptor'
PUBLIC	?rboDepth@@3IA					; rboDepth
PUBLIC	?_Max_shifted_mantissa@?DC@???$__to_chars@D@std@@YA?AU?$pair@PEADW4errc@std@@@1@QEAD0U__floating_decimal_32@1@W4chars_format@1@II@Z@4QBIB ; `std::__to_chars<char>'::`50'::_Max_shifted_mantissa
PUBLIC	??_R3facet@locale@std@@8			; std::locale::facet::`RTTI Class Hierarchy Descriptor'
PUBLIC	??_R1A@?0A@EA@?$basic_stringbuf@DU?$char_traits@D@std@@V?$allocator@D@2@@std@@8 ; std::basic_stringbuf<char,std::char_traits<char>,std::allocator<char> >::`RTTI Base Class Descriptor at (0,-1,0,64)'
PUBLIC	??_R4?$_Fmt_buffer@D@std@@6B@			; std::_Fmt_buffer<char>::`RTTI Complete Object Locator'
PUBLIC	?_Psave@?$_Facetptr@V?$codecvt@DDU_Mbstatet@@@std@@@std@@2PEBVfacet@locale@2@EB ; std::_Facetptr<std::codecvt<char,char,_Mbstatet> >::_Psave
PUBLIC	?_Fake_alloc@std@@3U_Fake_allocator@1@B		; std::_Fake_alloc
PUBLIC	?__POW10_OFFSET@std@@3QBGB			; std::__POW10_OFFSET
PUBLIC	?_Max_P@?$_General_precision_tables_2@M@std@@2HB ; std::_General_precision_tables_2<float>::_Max_P
PUBLIC	?copy@ranges@std@@3V_Copy_fn@12@B		; std::ranges::copy
PUBLIC	?begin@_Cpos@ranges@std@@3V_Cpo@_Begin@23@B	; std::ranges::_Cpos::begin
PUBLIC	?_Uend@_Cpos@ranges@std@@3V_Cpo@_Unchecked_end@23@B ; std::ranges::_Cpos::_Uend
PUBLIC	?fill_n@ranges@std@@3V_Fill_n_fn@12@B		; std::ranges::fill_n
PUBLIC	?greater@strong_ordering@std@@2U12@B		; std::strong_ordering::greater
PUBLIC	?_Min_buckets@?$_Hash@V?$_Uset_traits@PEAUGLMeshBuffers@@V?$_Uhash_compare@PEAUGLMeshBuffers@@U?$hash@PEAUGLMeshBuffers@@@std@@U?$equal_to@PEAUGLMeshBuffers@@@3@@std@@V?$allocator@PEAUGLMeshBuffers@@@3@$0A@@std@@@std@@2_KB ; std::_Hash<std::_Uset_traits<GLMeshBuffers *,std::_Uhash_compare<GLMeshBuffers *,std::hash<GLMeshBuffers *>,std::equal_to<GLMeshBuffers *> >,std::allocator<GLMeshBuffers *>,0> >::_Min_buckets
PUBLIC	?__POW10_OFFSET_2@std@@3QBGB			; std::__POW10_OFFSET_2
PUBLIC	?equal@strong_ordering@std@@2U12@B		; std::strong_ordering::equal
PUBLIC	?_Psave@?$_Facetptr@V?$numpunct@D@std@@@std@@2PEBVfacet@locale@2@EB ; std::_Facetptr<std::numpunct<char> >::_Psave
PUBLIC	??$__DIGIT_TABLE@D@std@@3QBDB			; std::__DIGIT_TABLE<char>
PUBLIC	?default_sentinel@std@@3Udefault_sentinel_t@1@B	; std::default_sentinel
PUBLIC	?less@strong_ordering@std@@2U12@B		; std::strong_ordering::less
PUBLIC	?__FLOAT_POW5_INV_SPLIT@std@@3QB_KB		; std::__FLOAT_POW5_INV_SPLIT
PUBLIC	?_Max_P@?$_General_precision_tables_2@N@std@@2HB ; std::_General_precision_tables_2<double>::_Max_P
PUBLIC	?_Grapheme_Break_property_data@std@@3U?$_Unicode_property_data@W4_Grapheme_Break_property_values@std@@$0FEL@@1@B ; std::_Grapheme_Break_property_data
PUBLIC	?__MIN_BLOCK_2@std@@3QBEB			; std::__MIN_BLOCK_2
PUBLIC	?_Charconv_digits@std@@3QBDB			; std::_Charconv_digits
PUBLIC	?_Width_estimate_intervals@std@@3QB_UB		; std::_Width_estimate_intervals
PUBLIC	?__FLOAT_POW5_SPLIT@std@@3QB_KB			; std::__FLOAT_POW5_SPLIT
PUBLIC	?piecewise_construct@std@@3Upiecewise_construct_t@1@B ; std::piecewise_construct
PUBLIC	?_Extended_Pictographic_property_data@std@@3U?$_Unicode_property_data@W4_Extended_Pictographic_property_values@std@@$0EO@@1@B ; std::_Extended_Pictographic_property_data
PUBLIC	?_Psave@?$_Facetptr@V?$ctype@D@std@@@std@@2PEBVfacet@locale@2@EB ; std::_Facetptr<std::ctype<char> >::_Psave
PUBLIC	?_Min_buckets@?$_Hash@V?$_Uset_traits@PEAUTransform@@V?$_Uhash_compare@PEAUTransform@@U?$hash@PEAUTransform@@@std@@U?$equal_to@PEAUTransform@@@3@@std@@V?$allocator@PEAUTransform@@@3@$0A@@std@@@std@@2_KB ; std::_Hash<std::_Uset_traits<Transform *,std::_Uhash_compare<Transform *,std::hash<Transform *>,std::equal_to<Transform *> >,std::allocator<Transform *>,0> >::_Min_buckets
PUBLIC	??_R2_Generic_error_category@std@@8		; std::_Generic_error_category::`RTTI Base Class Array'
PUBLIC	_CT??_R0?AVruntime_error@std@@@8??0runtime_error@std@@QEAA@AEBV01@@Z24
PUBLIC	??_7?$_Fmt_buffer@D@std@@6B@			; std::_Fmt_buffer<char>::`vftable'
PUBLIC	??_R1A@?0A@EA@_System_error@std@@8		; std::_System_error::`RTTI Base Class Descriptor at (0,-1,0,64)'
PUBLIC	??_R3bad_cast@std@@8				; std::bad_cast::`RTTI Class Hierarchy Descriptor'
PUBLIC	??_R3error_category@std@@8			; std::error_category::`RTTI Class Hierarchy Descriptor'
PUBLIC	??_R4bad_alloc@std@@6B@				; std::bad_alloc::`RTTI Complete Object Locator'
PUBLIC	?TrisCount@@3MA					; TrisCount
PUBLIC	??_R0?AVScreenSpacePostProcessing@@@8		; ScreenSpacePostProcessing `RTTI Type Descriptor'
PUBLIC	??_7TextureWorker@@6B@				; TextureWorker::`vftable'
PUBLIC	??_R3filesystem_error@filesystem@std@@8		; std::filesystem::filesystem_error::`RTTI Class Hierarchy Descriptor'
PUBLIC	??_R4bad_cast@std@@6B@				; std::bad_cast::`RTTI Complete Object Locator'
PUBLIC	??_R1A@?0A@EA@_Crt_new_delete@std@@8		; std::_Crt_new_delete::`RTTI Base Class Descriptor at (0,-1,0,64)'
PUBLIC	??_R3_System_error_category@std@@8		; std::_System_error_category::`RTTI Class Hierarchy Descriptor'
PUBLIC	?Quadratic@@3MA					; Quadratic
PUBLIC	??_8?$basic_istringstream@DU?$char_traits@D@std@@V?$allocator@D@2@@std@@7B@ ; std::basic_istringstream<char,std::char_traits<char>,std::allocator<char> >::`vbtable'
PUBLIC	_CT??_R0?AVbad_cast@std@@@8??0bad_cast@std@@QEAA@AEBV01@@Z24
PUBLIC	??_R1A@?0A@EA@LightSource@@8			; LightSource::`RTTI Base Class Descriptor at (0,-1,0,64)'
PUBLIC	??_R3bad_array_new_length@std@@8		; std::bad_array_new_length::`RTTI Class Hierarchy Descriptor'
PUBLIC	_CT??_R0?AVbad_alloc@std@@@8??0bad_alloc@std@@QEAA@AEBV01@@Z24
PUBLIC	??_R0?AVfilesystem_error@filesystem@std@@@8	; std::filesystem::filesystem_error `RTTI Type Descriptor'
PUBLIC	??_R4?$basic_stringbuf@DU?$char_traits@D@std@@V?$allocator@D@2@@std@@6B@ ; std::basic_stringbuf<char,std::char_traits<char>,std::allocator<char> >::`RTTI Complete Object Locator'
PUBLIC	??_R3bad_alloc@std@@8				; std::bad_alloc::`RTTI Class Hierarchy Descriptor'
PUBLIC	??_R2?$_Fmt_iterator_buffer@V?$back_insert_iterator@V?$basic_string@DU?$char_traits@D@std@@V?$allocator@D@2@@std@@@std@@DU_Fmt_buffer_traits@2@@std@@8 ; std::_Fmt_iterator_buffer<std::back_insert_iterator<std::basic_string<char,std::char_traits<char>,std::allocator<char> > >,char,std::_Fmt_buffer_traits>::`RTTI Base Class Array'
PUBLIC	??_R1A@?0A@EA@ScreenSpacePostProcessing@@8	; ScreenSpacePostProcessing::`RTTI Base Class Descriptor at (0,-1,0,64)'
PUBLIC	_CT??_R0?AVbad_optional_access@std@@@8??0bad_optional_access@std@@QEAA@AEBV01@@Z24
PUBLIC	??_R1A@?0A@EA@format_error@std@@8		; std::format_error::`RTTI Base Class Descriptor at (0,-1,0,64)'
PUBLIC	??_R2filesystem_error@filesystem@std@@8		; std::filesystem::filesystem_error::`RTTI Base Class Array'
PUBLIC	??_R1A@?0A@EA@?$basic_filebuf@DU?$char_traits@D@std@@@std@@8 ; std::basic_filebuf<char,std::char_traits<char> >::`RTTI Base Class Descriptor at (0,-1,0,64)'
PUBLIC	?quadVAO@@3IA					; quadVAO
PUBLIC	??_R1A@?0A@EA@GlFrameBuffer@@8			; GlFrameBuffer::`RTTI Base Class Descriptor at (0,-1,0,64)'
PUBLIC	??_R3?$numpunct@D@std@@8			; std::numpunct<char>::`RTTI Class Hierarchy Descriptor'
PUBLIC	??_R3?$_Fmt_buffer@D@std@@8			; std::_Fmt_buffer<char>::`RTTI Class Hierarchy Descriptor'
PUBLIC	_CT??_R0?AV_System_error@std@@@8??0_System_error@std@@QEAA@AEBV01@@Z40
PUBLIC	??_R4?$numpunct@D@std@@6B@			; std::numpunct<char>::`RTTI Complete Object Locator'
PUBLIC	??_R2runtime_error@std@@8			; std::runtime_error::`RTTI Base Class Array'
PUBLIC	??_R1A@A@3FA@?$basic_ios@DU?$char_traits@D@std@@@std@@8 ; std::basic_ios<char,std::char_traits<char> >::`RTTI Base Class Descriptor at (0,0,4,80)'
PUBLIC	??_R4bad_array_new_length@std@@6B@		; std::bad_array_new_length::`RTTI Complete Object Locator'
PUBLIC	?uvs@M_Cube@@0QBMB				; M_Cube::uvs
PUBLIC	??_R1CA@?0A@EA@_Fmt_buffer_traits@std@@8	; std::_Fmt_buffer_traits::`RTTI Base Class Descriptor at (32,-1,0,64)'
PUBLIC	??_R3?$basic_filebuf@DU?$char_traits@D@std@@@std@@8 ; std::basic_filebuf<char,std::char_traits<char> >::`RTTI Class Hierarchy Descriptor'
PUBLIC	??_7_System_error_category@std@@6B@		; std::_System_error_category::`vftable'
PUBLIC	?backCull@@3_NA					; backCull
PUBLIC	??_R2ios_base@std@@8				; std::ios_base::`RTTI Base Class Array'
PUBLIC	_CTA5?AVfilesystem_error@filesystem@std@@
PUBLIC	??_R4DirectionalLight@@6B@			; DirectionalLight::`RTTI Complete Object Locator'
PUBLIC	??_R1A@?0A@EA@GameObject@@8			; GameObject::`RTTI Base Class Descriptor at (0,-1,0,64)'
PUBLIC	??_R1A@?0A@EA@?$numpunct@D@std@@8		; std::numpunct<char>::`RTTI Base Class Descriptor at (0,-1,0,64)'
PUBLIC	??_R0?AV_System_error@std@@@8			; std::_System_error `RTTI Type Descriptor'
PUBLIC	??_R2GameObject@@8				; GameObject::`RTTI Base Class Array'
PUBLIC	??_R2_Crt_new_delete@std@@8			; std::_Crt_new_delete::`RTTI Base Class Array'
PUBLIC	??_R4?$basic_istringstream@DU?$char_traits@D@std@@V?$allocator@D@2@@std@@6B@ ; std::basic_istringstream<char,std::char_traits<char>,std::allocator<char> >::`RTTI Complete Object Locator'
PUBLIC	??_R0?AUGlFrameBuffer@@@8			; GlFrameBuffer `RTTI Type Descriptor'
PUBLIC	??_R3ios_base@std@@8				; std::ios_base::`RTTI Class Hierarchy Descriptor'
PUBLIC	??_R2format_error@std@@8			; std::format_error::`RTTI Base Class Array'
PUBLIC	?dt@@3MA					; dt
PUBLIC	??_7DirectionalLight@@6B@			; DirectionalLight::`vftable'
PUBLIC	??_R2?$basic_filebuf@DU?$char_traits@D@std@@@std@@8 ; std::basic_filebuf<char,std::char_traits<char> >::`RTTI Base Class Array'
PUBLIC	??_R3?$basic_streambuf@DU?$char_traits@D@std@@@std@@8 ; std::basic_streambuf<char,std::char_traits<char> >::`RTTI Class Hierarchy Descriptor'
PUBLIC	??_R1A@?0A@EA@bad_array_new_length@std@@8	; std::bad_array_new_length::`RTTI Base Class Descriptor at (0,-1,0,64)'
PUBLIC	?precision@@3MA					; precision
PUBLIC	?CPUTime@@3MA					; CPUTime
PUBLIC	??_7Worker@@6B@					; Worker::`vftable'
PUBLIC	_TI3?AVformat_error@std@@
PUBLIC	??_R4ScreenSpacePostProcessing@@6B@		; ScreenSpacePostProcessing::`RTTI Complete Object Locator'
PUBLIC	?XRay@@3EA					; XRay
PUBLIC	??_R2bad_optional_access@std@@8			; std::bad_optional_access::`RTTI Base Class Array'
PUBLIC	?gBuffer@@3IA					; gBuffer
PUBLIC	??_7?$basic_ifstream@DU?$char_traits@D@std@@@std@@6B@ ; std::basic_ifstream<char,std::char_traits<char> >::`vftable'
PUBLIC	??_R4Worker@@6B@				; Worker::`RTTI Complete Object Locator'
PUBLIC	??_R2?$_Iosb@H@std@@8				; std::_Iosb<int>::`RTTI Base Class Array'
PUBLIC	_CT??_R0?AVexception@std@@@8??0exception@std@@QEAA@AEBV01@@Z24
PUBLIC	??_R3system_error@std@@8			; std::system_error::`RTTI Class Hierarchy Descriptor'
PUBLIC	??_R1A@A@3EA@ios_base@std@@8			; std::ios_base::`RTTI Base Class Descriptor at (0,0,4,64)'
PUBLIC	??_7Material@@6B@				; Material::`vftable'
PUBLIC	??_R1A@?0A@EA@filesystem_error@filesystem@std@@8 ; std::filesystem::filesystem_error::`RTTI Base Class Descriptor at (0,-1,0,64)'
PUBLIC	??_R1A@?0A@EA@?$basic_ios@DU?$char_traits@D@std@@@std@@8 ; std::basic_ios<char,std::char_traits<char> >::`RTTI Base Class Descriptor at (0,-1,0,64)'
PUBLIC	_TI3?AVbad_array_new_length@std@@
PUBLIC	??_R2?$basic_ifstream@DU?$char_traits@D@std@@@std@@8 ; std::basic_ifstream<char,std::char_traits<char> >::`RTTI Base Class Array'
PUBLIC	??_7ScreenSpaceShadowShader@@6B@		; ScreenSpaceShadowShader::`vftable'
PUBLIC	??_R3?$_Iosb@H@std@@8				; std::_Iosb<int>::`RTTI Class Hierarchy Descriptor'
PUBLIC	?Shglrc@@3PEAUHGLRC__@@EA			; Shglrc
PUBLIC	??_7?$basic_istringstream@DU?$char_traits@D@std@@V?$allocator@D@2@@std@@6B@ ; std::basic_istringstream<char,std::char_traits<char>,std::allocator<char> >::`vftable'
PUBLIC	??_R1A@?0A@EA@_Fmt_buffer_traits@std@@8		; std::_Fmt_buffer_traits::`RTTI Base Class Descriptor at (0,-1,0,64)'
PUBLIC	??_R2_Facet_base@std@@8				; std::_Facet_base::`RTTI Base Class Array'
PUBLIC	??_R2facet@locale@std@@8			; std::locale::facet::`RTTI Base Class Array'
PUBLIC	??_R0?AVexception@std@@@8			; std::exception `RTTI Type Descriptor'
PUBLIC	??_R17?0A@EA@?$_Iosb@H@std@@8			; std::_Iosb<int>::`RTTI Base Class Descriptor at (8,-1,0,64)'
PUBLIC	??_R3Shader_CN@@8				; Shader_CN::`RTTI Class Hierarchy Descriptor'
PUBLIC	??_R4LightSource@@6B@				; LightSource::`RTTI Complete Object Locator'
PUBLIC	??_R1A@?0A@EA@Worker@@8				; Worker::`RTTI Base Class Descriptor at (0,-1,0,64)'
PUBLIC	?Pi@@3MA					; Pi
PUBLIC	??_R1A@?0A@EA@_System_error_category@std@@8	; std::_System_error_category::`RTTI Base Class Descriptor at (0,-1,0,64)'
PUBLIC	??_R2Shader_CN@@8				; Shader_CN::`RTTI Base Class Array'
PUBLIC	?Boost@@3MA					; Boost
PUBLIC	??_R0?AVShader3d@@@8				; Shader3d `RTTI Type Descriptor'
PUBLIC	?totalTime@@3MA					; totalTime
PUBLIC	??_R0?AVMaterial@@@8				; Material `RTTI Type Descriptor'
PUBLIC	_CTA3?AVformat_error@std@@
PUBLIC	?camera@@3PEAVCamera@@EA			; camera
PUBLIC	??_R2?$_Fmt_buffer@D@std@@8			; std::_Fmt_buffer<char>::`RTTI Base Class Array'
PUBLIC	??_R1A@?0A@EA@ScreenSpaceShadowShader@@8	; ScreenSpaceShadowShader::`RTTI Base Class Descriptor at (0,-1,0,64)'
PUBLIC	??_R0?AVDirectionalLight@@@8			; DirectionalLight `RTTI Type Descriptor'
PUBLIC	??_7system_error@std@@6B@			; std::system_error::`vftable'
PUBLIC	?Linear@@3MA					; Linear
PUBLIC	??_R3runtime_error@std@@8			; std::runtime_error::`RTTI Class Hierarchy Descriptor'
PUBLIC	?TexturesToLoad@@3U?$atomic@H@std@@A		; TexturesToLoad
PUBLIC	?hglrc@@3PEAUHGLRC__@@EA			; hglrc
PUBLIC	??_R2?$basic_ios@DU?$char_traits@D@std@@@std@@8	; std::basic_ios<char,std::char_traits<char> >::`RTTI Base Class Array'
PUBLIC	??_R2TextureWorker@@8				; TextureWorker::`RTTI Base Class Array'
PUBLIC	??_R0?AVbad_array_new_length@std@@@8		; std::bad_array_new_length `RTTI Type Descriptor'
PUBLIC	?Move@@3_NA					; Move
PUBLIC	??_R2_Fmt_buffer_traits@std@@8			; std::_Fmt_buffer_traits::`RTTI Base Class Array'
PUBLIC	?SCR_WIDTH@@3IA					; SCR_WIDTH
PUBLIC	?deltaTime@@3MA					; deltaTime
PUBLIC	?DeffaultDepthShader@@3IA			; DeffaultDepthShader
PUBLIC	??_7Shader@@6B@					; Shader::`vftable'
PUBLIC	??_R1A@?0A@EA@Shader_CN@@8			; Shader_CN::`RTTI Base Class Descriptor at (0,-1,0,64)'
PUBLIC	??_R1A@?0A@EA@error_category@std@@8		; std::error_category::`RTTI Base Class Descriptor at (0,-1,0,64)'
PUBLIC	??_R4filesystem_error@filesystem@std@@6B@	; std::filesystem::filesystem_error::`RTTI Complete Object Locator'
EXTRN	__imp_??0_Locinfo@std@@QEAA@PEBD@Z:PROC
EXTRN	__imp_??1_Locinfo@std@@QEAA@XZ:PROC
EXTRN	__imp_?_Getcvt@_Locinfo@std@@QEBA?AU_Cvtvec@@XZ:PROC
EXTRN	__imp_?_Getlconv@_Locinfo@std@@QEBAPEBUlconv@@XZ:PROC
EXTRN	__imp_?_Getdays@_Locinfo@std@@QEBAPEBDXZ:PROC
EXTRN	__imp_?_Getmonths@_Locinfo@std@@QEBAPEBDXZ:PROC
EXTRN	__imp_?_Getfalse@_Locinfo@std@@QEBAPEBDXZ:PROC
EXTRN	__imp_?_Gettrue@_Locinfo@std@@QEBAPEBDXZ:PROC
EXTRN	__imp_?_W_Getdays@_Locinfo@std@@QEBAPEBGXZ:PROC
EXTRN	__imp_?_W_Getmonths@_Locinfo@std@@QEBAPEBGXZ:PROC
EXTRN	__imp_??Bid@locale@std@@QEAA_KXZ:PROC
EXTRN	?_Incref@facet@locale@std@@UEAAXXZ:PROC		; std::locale::facet::_Incref
EXTRN	__imp_?_Incref@facet@locale@std@@UEAAXXZ:PROC
EXTRN	?_Decref@facet@locale@std@@UEAAPEAV_Facet_base@3@XZ:PROC ; std::locale::facet::_Decref
EXTRN	__imp_?_Decref@facet@locale@std@@UEAAPEAV_Facet_base@3@XZ:PROC
EXTRN	__imp_??0facet@locale@std@@IEAA@_K@Z:PROC
EXTRN	__imp_??1facet@locale@std@@MEAA@XZ:PROC
EXTRN	__imp_?always_noconv@codecvt_base@std@@QEBA_NXZ:PROC
EXTRN	__imp_?is@?$ctype@D@std@@QEBA_NFD@Z:PROC
EXTRN	__imp_?_Getcat@?$ctype@D@std@@SA_KPEAPEBVfacet@locale@2@PEBV42@@Z:PROC
EXTRN	__imp_??Bios_base@std@@QEBA_NXZ:PROC
EXTRN	__imp_??7ios_base@std@@QEBA_NXZ:PROC
EXTRN	__imp_?good@ios_base@std@@QEBA_NXZ:PROC
EXTRN	__imp_?flags@ios_base@std@@QEBAHXZ:PROC
EXTRN	__imp_?width@ios_base@std@@QEBA_JXZ:PROC
EXTRN	__imp_?width@ios_base@std@@QEAA_J_J@Z:PROC
EXTRN	__imp_?getloc@ios_base@std@@QEBA?AVlocale@2@XZ:PROC
EXTRN	__imp_??5?$basic_istream@DU?$char_traits@D@std@@@std@@QEAAAEAV01@AEAM@Z:PROC
EXTRN	__imp_??1?$basic_istream@DU?$char_traits@D@std@@@std@@UEAA@XZ:PROC
EXTRN	__imp_??6?$basic_ostream@DU?$char_traits@D@std@@@std@@QEAAAEAV01@M@Z:PROC
EXTRN	__imp_??6?$basic_ostream@DU?$char_traits@D@std@@@std@@QEAAAEAV01@I@Z:PROC
EXTRN	__imp_??6?$basic_ostream@DU?$char_traits@D@std@@@std@@QEAAAEAV01@H@Z:PROC
EXTRN	__imp_??6?$basic_ostream@DU?$char_traits@D@std@@@std@@QEAAAEAV01@P6AAEAV01@AEAV01@@Z@Z:PROC
EXTRN	__imp_??1?$basic_ios@DU?$char_traits@D@std@@@std@@UEAA@XZ:PROC
EXTRN	?imbue@?$basic_streambuf@DU?$char_traits@D@std@@@std@@MEAAXAEBVlocale@2@@Z:PROC ; std::basic_streambuf<char,std::char_traits<char> >::imbue
EXTRN	__imp_?imbue@?$basic_streambuf@DU?$char_traits@D@std@@@std@@MEAAXAEBVlocale@2@@Z:PROC
EXTRN	?sync@?$basic_streambuf@DU?$char_traits@D@std@@@std@@MEAAHXZ:PROC ; std::basic_streambuf<char,std::char_traits<char> >::sync
EXTRN	__imp_?sync@?$basic_streambuf@DU?$char_traits@D@std@@@std@@MEAAHXZ:PROC
EXTRN	?setbuf@?$basic_streambuf@DU?$char_traits@D@std@@@std@@MEAAPEAV12@PEAD_J@Z:PROC ; std::basic_streambuf<char,std::char_traits<char> >::setbuf
EXTRN	__imp_?setbuf@?$basic_streambuf@DU?$char_traits@D@std@@@std@@MEAAPEAV12@PEAD_J@Z:PROC
EXTRN	?xsputn@?$basic_streambuf@DU?$char_traits@D@std@@@std@@MEAA_JPEBD_J@Z:PROC ; std::basic_streambuf<char,std::char_traits<char> >::xsputn
EXTRN	__imp_?xsputn@?$basic_streambuf@DU?$char_traits@D@std@@@std@@MEAA_JPEBD_J@Z:PROC
EXTRN	?xsgetn@?$basic_streambuf@DU?$char_traits@D@std@@@std@@MEAA_JPEAD_J@Z:PROC ; std::basic_streambuf<char,std::char_traits<char> >::xsgetn
EXTRN	__imp_?xsgetn@?$basic_streambuf@DU?$char_traits@D@std@@@std@@MEAA_JPEAD_J@Z:PROC
EXTRN	?uflow@?$basic_streambuf@DU?$char_traits@D@std@@@std@@MEAAHXZ:PROC ; std::basic_streambuf<char,std::char_traits<char> >::uflow
EXTRN	__imp_?uflow@?$basic_streambuf@DU?$char_traits@D@std@@@std@@MEAAHXZ:PROC
EXTRN	?showmanyc@?$basic_streambuf@DU?$char_traits@D@std@@@std@@MEAA_JXZ:PROC ; std::basic_streambuf<char,std::char_traits<char> >::showmanyc
EXTRN	__imp_?showmanyc@?$basic_streambuf@DU?$char_traits@D@std@@@std@@MEAA_JXZ:PROC
EXTRN	?_Unlock@?$basic_streambuf@DU?$char_traits@D@std@@@std@@UEAAXXZ:PROC ; std::basic_streambuf<char,std::char_traits<char> >::_Unlock
EXTRN	__imp_?_Unlock@?$basic_streambuf@DU?$char_traits@D@std@@@std@@UEAAXXZ:PROC
EXTRN	?_Lock@?$basic_streambuf@DU?$char_traits@D@std@@@std@@UEAAXXZ:PROC ; std::basic_streambuf<char,std::char_traits<char> >::_Lock
EXTRN	__imp_?_Lock@?$basic_streambuf@DU?$char_traits@D@std@@@std@@UEAAXXZ:PROC
EXTRN	__imp_??1?$basic_streambuf@DU?$char_traits@D@std@@@std@@UEAA@XZ:PROC
EXTRN	__imp_?c_str@?$_Yarn@D@std@@QEBAPEBDXZ:PROC
EXTRN	__imp_??0?$basic_istream@DU?$char_traits@D@std@@@std@@QEAA@PEAV?$basic_streambuf@DU?$char_traits@D@std@@@1@_N@Z:PROC
EXTRN	__imp_??0?$basic_ios@DU?$char_traits@D@std@@@std@@IEAA@XZ:PROC
EXTRN	__imp_?fill@?$basic_ios@DU?$char_traits@D@std@@@std@@QEBADXZ:PROC
EXTRN	__imp_?rdbuf@?$basic_ios@DU?$char_traits@D@std@@@std@@QEBAPEAV?$basic_streambuf@DU?$char_traits@D@std@@@2@XZ:PROC
EXTRN	__imp_?setstate@?$basic_ios@DU?$char_traits@D@std@@@std@@QEAAXH_N@Z:PROC
EXTRN	__imp_?_Pnavail@?$basic_streambuf@DU?$char_traits@D@std@@@std@@IEBA_JXZ:PROC
EXTRN	__imp_?_Pninc@?$basic_streambuf@DU?$char_traits@D@std@@@std@@IEAAPEADXZ:PROC
EXTRN	__imp_?setp@?$basic_streambuf@DU?$char_traits@D@std@@@std@@IEAAXPEAD00@Z:PROC
EXTRN	__imp_?pbump@?$basic_streambuf@DU?$char_traits@D@std@@@std@@IEAAXH@Z:PROC
EXTRN	__imp_?_Gnavail@?$basic_streambuf@DU?$char_traits@D@std@@@std@@IEBA_JXZ:PROC
EXTRN	__imp_?_Gninc@?$basic_streambuf@DU?$char_traits@D@std@@@std@@IEAAPEADXZ:PROC
EXTRN	__imp_?_Gndec@?$basic_streambuf@DU?$char_traits@D@std@@@std@@IEAAPEADXZ:PROC
EXTRN	__imp_?epptr@?$basic_streambuf@DU?$char_traits@D@std@@@std@@IEBAPEADXZ:PROC
EXTRN	__imp_?setg@?$basic_streambuf@DU?$char_traits@D@std@@@std@@IEAAXPEAD00@Z:PROC
EXTRN	__imp_?gbump@?$basic_streambuf@DU?$char_traits@D@std@@@std@@IEAAXH@Z:PROC
EXTRN	__imp_?egptr@?$basic_streambuf@DU?$char_traits@D@std@@@std@@IEBAPEADXZ:PROC
EXTRN	__imp_?pptr@?$basic_streambuf@DU?$char_traits@D@std@@@std@@IEBAPEADXZ:PROC
EXTRN	__imp_?gptr@?$basic_streambuf@DU?$char_traits@D@std@@@std@@IEBAPEADXZ:PROC
EXTRN	__imp_?eback@?$basic_streambuf@DU?$char_traits@D@std@@@std@@IEBAPEADXZ:PROC
EXTRN	__imp_?out@?$codecvt@DDU_Mbstatet@@@std@@QEBAHAEAU_Mbstatet@@PEBD1AEAPEBDPEAD3AEAPEAD@Z:PROC
EXTRN	__imp_?in@?$codecvt@DDU_Mbstatet@@@std@@QEBAHAEAU_Mbstatet@@PEBD1AEAPEBDPEAD3AEAPEAD@Z:PROC
EXTRN	__imp_?flush@?$basic_ostream@DU?$char_traits@D@std@@@std@@QEAAAEAV12@XZ:PROC
EXTRN	__imp_?_Osfx@?$basic_ostream@DU?$char_traits@D@std@@@std@@QEAAXXZ:PROC
EXTRN	__imp_?tie@?$basic_ios@DU?$char_traits@D@std@@@std@@QEBAPEAV?$basic_ostream@DU?$char_traits@D@std@@@2@XZ:PROC
EXTRN	__imp_?_Init@?$basic_streambuf@DU?$char_traits@D@std@@@std@@IEAAXPEAPEAD0PEAH001@Z:PROC
EXTRN	__imp_?_Init@?$basic_streambuf@DU?$char_traits@D@std@@@std@@IEAAXXZ:PROC
EXTRN	__imp_?setp@?$basic_streambuf@DU?$char_traits@D@std@@@std@@IEAAXPEAD0@Z:PROC
EXTRN	__imp_??0?$basic_streambuf@DU?$char_traits@D@std@@@std@@IEAA@XZ:PROC
EXTRN	__imp_?unshift@?$codecvt@DDU_Mbstatet@@@std@@QEBAHAEAU_Mbstatet@@PEAD1AEAPEAD@Z:PROC
EXTRN	__imp_?widen@?$basic_ios@DU?$char_traits@D@std@@@std@@QEBADD@Z:PROC
EXTRN	__imp_?sputc@?$basic_streambuf@DU?$char_traits@D@std@@@std@@QEAAHD@Z:PROC
EXTRN	__imp_?sgetc@?$basic_streambuf@DU?$char_traits@D@std@@@std@@QEAAHXZ:PROC
EXTRN	__imp_?sbumpc@?$basic_streambuf@DU?$char_traits@D@std@@@std@@QEAAHXZ:PROC
EXTRN	__imp_?getloc@?$basic_streambuf@DU?$char_traits@D@std@@@std@@QEBA?AVlocale@2@XZ:PROC
EXTRN	__imp_?put@?$basic_ostream@DU?$char_traits@D@std@@@std@@QEAAAEAV12@D@Z:PROC
EXTRN	__imp_?sputn@?$basic_streambuf@DU?$char_traits@D@std@@@std@@QEAA_JPEBD_J@Z:PROC
EXTRN	__imp_?snextc@?$basic_streambuf@DU?$char_traits@D@std@@@std@@QEAAHXZ:PROC
EXTRN	__imp_?_Getcat@?$codecvt@DDU_Mbstatet@@@std@@SA_KPEAPEBVfacet@locale@2@PEBV42@@Z:PROC
EXTRN	__imp_?_Ipfx@?$basic_istream@DU?$char_traits@D@std@@@std@@QEAA_N_N@Z:PROC
EXTRN	__imp__get_stream_buffer_pointers:PROC
EXTRN	__imp__invalid_parameter_noinfo_noreturn:PROC
EXTRN	__imp__Mtx_unlock:PROC
EXTRN	__imp__fseeki64:PROC
EXTRN	glfwWindowShouldClose:PROC
EXTRN	__imp__Thrd_join:PROC
EXTRN	??_7type_info@@6B@:BYTE				; type_info::`vftable'
EXTRN	__imp___RTtypeid:PROC
EXTRN	__imp_wglMakeCurrent:PROC
EXTRN	__imp__Query_perf_counter:PROC
EXTRN	__std_fs_code_page:PROC
EXTRN	__imp_fsetpos:PROC
EXTRN	__imp_feof:PROC
EXTRN	__imp_ungetc:PROC
EXTRN	__imp__ldsign:PROC
EXTRN	__imp___std_type_info_name:PROC
EXTRN	__imp___std_atomic_notify_one_direct:PROC
EXTRN	__imp__Thrd_id:PROC
EXTRN	glfwGetProcAddress:PROC
EXTRN	__imp_setvbuf:PROC
EXTRN	__imp_fgetpos:PROC
EXTRN	__imp__fdsign:PROC
EXTRN	__imp_fopen_s:PROC
EXTRN	__imp__Cnd_do_broadcast_at_thread_exit:PROC
EXTRN	__imp__lock_file:PROC
EXTRN	__std_system_error_allocate_message:PROC
EXTRN	__imp__Mtx_init_in_situ:PROC
EXTRN	__imp__unlock_file:PROC
EXTRN	__imp_K32GetProcessMemoryInfo:PROC
EXTRN	__imp__Mtx_lock:PROC
EXTRN	glfwMakeContextCurrent:PROC
EXTRN	__imp_terminate:PROC
EXTRN	glfwWindowHint:PROC
EXTRN	__imp__purecall:PROC
EXTRN	??3@YAXPEAX@Z:PROC				; operator delete
EXTRN	__imp_wglCreateContext:PROC
EXTRN	glfwCreateWindow:PROC
EXTRN	__imp_fgetc:PROC
EXTRN	glfwSetWindowShouldClose:PROC
EXTRN	__imp__Mtx_destroy_in_situ:PROC
EXTRN	__imp_rand:PROC
EXTRN	glfwInit:PROC
EXTRN	__imp___std_exception_copy:PROC
EXTRN	glfwPollEvents:PROC
EXTRN	__imp_wglGetCurrentDC:PROC
EXTRN	__imp_realloc:PROC
EXTRN	glfwTerminate:PROC
EXTRN	__imp__beginthreadex:PROC
EXTRN	__imp_?_Syserror_map@std@@YAPEBDH@Z:PROC
EXTRN	__imp_?setprecision@std@@YA?AU?$_Smanip@_J@1@_J@Z:PROC
EXTRN	__imp_?_Xlength_error@std@@YAXPEBD@Z:PROC
EXTRN	?_Ordinary_X_table@?$_General_precision_tables_2@M@std@@2QBIB:BYTE ; std::_General_precision_tables_2<float>::_Ordinary_X_table
EXTRN	__imp_?id@?$ctype@D@std@@2V0locale@2@A:QWORD
EXTRN	?__POW10_SPLIT@std@@3QAY02$$CB_KA:BYTE		; std::__POW10_SPLIT
EXTRN	?_Special_X_table@?$_General_precision_tables_2@M@std@@2QBIB:BYTE ; std::_General_precision_tables_2<float>::_Special_X_table
EXTRN	__imp_?_Fiopen@std@@YAPEAU_iobuf@@PEBDHH@Z:PROC
EXTRN	?_Facet_Register@std@@YAXPEAV_Facet_base@1@@Z:PROC ; std::_Facet_Register
EXTRN	__imp_?id@?$codecvt@DDU_Mbstatet@@@std@@2V0locale@2@A:QWORD
EXTRN	__imp_?_Throw_C_error@std@@YAXH@Z:PROC
EXTRN	__imp_?id@?$numpunct@D@std@@2V0locale@2@A:QWORD
EXTRN	__imp_?_Winerror_map@std@@YAHH@Z:PROC
EXTRN	?_Ordinary_X_table@?$_General_precision_tables_2@N@std@@2QB_KB:BYTE ; std::_General_precision_tables_2<double>::_Ordinary_X_table
EXTRN	__imp_?cerr@std@@3V?$basic_ostream@DU?$char_traits@D@std@@@1@A:BYTE
EXTRN	?__DOUBLE_POW5_INV_SPLIT@std@@3QAY01$$CB_KA:BYTE ; std::__DOUBLE_POW5_INV_SPLIT
EXTRN	?_Special_X_table@?$_General_precision_tables_2@N@std@@2QB_KB:BYTE ; std::_General_precision_tables_2<double>::_Special_X_table
EXTRN	?__POW10_SPLIT_2@std@@3QAY02$$CB_KA:BYTE	; std::__POW10_SPLIT_2
EXTRN	?__DOUBLE_POW5_SPLIT@std@@3QAY01$$CB_KA:BYTE	; std::__DOUBLE_POW5_SPLIT
EXTRN	__imp_?_Xout_of_range@std@@YAXPEBD@Z:PROC
EXTRN	__imp_?_Xbad_alloc@std@@YAXXZ:PROC
EXTRN	__imp_?_Init@locale@std@@CAPEAV_Locimp@12@_N@Z:PROC
EXTRN	__imp_?_Getgloballocale@locale@std@@CAPEAV_Locimp@12@XZ:PROC
EXTRN	__imp_?cout@std@@3V?$basic_ostream@DU?$char_traits@D@std@@@1@A:BYTE
EXTRN	__imp_?uncaught_exceptions@std@@YAHXZ:PROC
EXTRN	__imp_?_Throw_Cpp_error@std@@YAXH@Z:PROC
EXTRN	__isa_available:DWORD
EXTRN	__imp_??0_Lockit@std@@QEAA@H@Z:PROC
EXTRN	__imp_??1_Lockit@std@@QEAA@XZ:PROC
EXTRN	__imp__Query_perf_frequency:PROC
EXTRN	__imp___std_atomic_wait_direct:PROC
EXTRN	??2@YAPEAX_K@Z:PROC				; operator new
EXTRN	__imp__dsign:PROC
EXTRN	glfwGetKey:PROC
EXTRN	__std_find_trivial_1:PROC
EXTRN	__imp___std_atomic_notify_all_direct:PROC
EXTRN	__imp_wglGetCurrentContext:PROC
EXTRN	__imp_ferror:PROC
EXTRN	?__type_info_root_node@@3U__type_info_node@@A:BYTE ; __type_info_root_node
EXTRN	__std_fs_convert_wide_to_narrow:PROC
EXTRN	__imp_GetStdHandle:PROC
EXTRN	__imp_GetCurrentProcess:PROC
EXTRN	__imp_wglShareLists:PROC
EXTRN	__imp_SetConsoleTextAttribute:PROC
EXTRN	__std_system_error_deallocate_message:PROC
EXTRN	__imp_calloc:PROC
EXTRN	__imp_fputc:PROC
EXTRN	__imp__Mbrtowc:PROC
EXTRN	glfwSwapInterval:PROC
EXTRN	__std_fs_get_current_path:PROC
EXTRN	__imp_abort:PROC
EXTRN	glfwSetFramebufferSizeCallback:PROC
EXTRN	__imp___std_exception_destroy:PROC
EXTRN	glfwSwapBuffers:PROC
EXTRN	_purecall:PROC
?frames@@3IA DD	01H DUP (?)				; frames
?DrawOcclusionBoxes@@3_NA DB 01H DUP (?)		; DrawOcclusionBoxes
	ALIGN	4

?curCamera@@3HA DD 01H DUP (?)				; curCamera
?CurrentColor@@3W4ConsoleColor@@A DD 01H DUP (?)	; CurrentColor
?MatInUse@@3PEAVMaterial@@EA DQ 01H DUP (?)		; MatInUse
?Input@@3PEAVInputManager@@EA DQ 01H DUP (?)		; Input
?stbi__unpremultiply_on_load_global@@3HA DD 01H DUP (?)	; stbi__unpremultiply_on_load_global
	ALIGN	8

?hdc@@3PEAUHDC__@@EA DQ 01H DUP (?)			; hdc
?GPUTime@@3MA DD 01H DUP (?)				; GPUTime
?CurrentShaderType@@3IA DD 01H DUP (?)			; CurrentShaderType
?VerCount@@3MA DD 01H DUP (?)				; VerCount
?quadVBO@@3IA DD 01H DUP (?)				; quadVBO
?rboDepth@@3IA DD 01H DUP (?)				; rboDepth
?stbi__vertically_flip_on_load_global@@3HA DD 01H DUP (?) ; stbi__vertically_flip_on_load_global
_BSS	ENDS
;	COMDAT ?_Psave@?$_Facetptr@V?$codecvt@DDU_Mbstatet@@@std@@@std@@2PEBVfacet@locale@2@EB
_BSS	SEGMENT
?_Psave@?$_Facetptr@V?$codecvt@DDU_Mbstatet@@@std@@@std@@2PEBVfacet@locale@2@EB DQ 01H DUP (?) ; std::_Facetptr<std::codecvt<char,char,_Mbstatet> >::_Psave
_BSS	ENDS
;	COMDAT ?_Psave@?$_Facetptr@V?$numpunct@D@std@@@std@@2PEBVfacet@locale@2@EB
_BSS	SEGMENT
?_Psave@?$_Facetptr@V?$numpunct@D@std@@@std@@2PEBVfacet@locale@2@EB DQ 01H DUP (?) ; std::_Facetptr<std::numpunct<char> >::_Psave
_BSS	ENDS
;	COMDAT ?_Psave@?$_Facetptr@V?$ctype@D@std@@@std@@2PEBVfacet@locale@2@EB
_BSS	SEGMENT
?_Psave@?$_Facetptr@V?$ctype@D@std@@@std@@2PEBVfacet@locale@2@EB DQ 01H DUP (?) ; std::_Facetptr<std::ctype<char> >::_Psave
?TrisCount@@3MA DD 01H DUP (?)				; TrisCount
?stbi__de_iphone_flag_global@@3HA DD 01H DUP (?)	; stbi__de_iphone_flag_global
?quadVAO@@3IA DD 01H DUP (?)				; quadVAO
?backCull@@3_NA DB 01H DUP (?)				; backCull
	ALIGN	4

?dt@@3MA DD	01H DUP (?)				; dt
?CPUTime@@3MA DD 01H DUP (?)				; CPUTime
?XRay@@3EA DB	01H DUP (?)				; XRay
	ALIGN	4

?gBuffer@@3IA DD 01H DUP (?)				; gBuffer
?Shglrc@@3PEAUHGLRC__@@EA DQ 01H DUP (?)		; Shglrc
?totalTime@@3MA DD 01H DUP (?)				; totalTime
	ALIGN	8

?camera@@3PEAVCamera@@EA DQ 01H DUP (?)			; camera
?TexturesToLoad@@3U?$atomic@H@std@@A DD 01H DUP (?)	; TexturesToLoad
	ALIGN	8

?hglrc@@3PEAUHGLRC__@@EA DQ 01H DUP (?)			; hglrc
?deltaTime@@3MA DD 01H DUP (?)				; deltaTime
?DeffaultDepthShader@@3IA DD 01H DUP (?)		; DeffaultDepthShader
_BSS	ENDS
;	COMDAT ??_R4filesystem_error@filesystem@std@@6B@
rdata$r	SEGMENT
??_R4filesystem_error@filesystem@std@@6B@ DD 01H	; std::filesystem::filesystem_error::`RTTI Complete Object Locator'
	DD	00H
	DD	00H
	DD	imagerel ??_R0?AVfilesystem_error@filesystem@std@@@8
	DD	imagerel ??_R3filesystem_error@filesystem@std@@8
	DD	imagerel ??_R4filesystem_error@filesystem@std@@6B@
rdata$r	ENDS
;	COMDAT ??_R1A@?0A@EA@error_category@std@@8
rdata$r	SEGMENT
??_R1A@?0A@EA@error_category@std@@8 DD imagerel ??_R0?AVerror_category@std@@@8 ; std::error_category::`RTTI Base Class Descriptor at (0,-1,0,64)'
	DD	00H
	DD	00H
	DD	0ffffffffH
	DD	00H
	DD	040H
	DD	imagerel ??_R3error_category@std@@8
rdata$r	ENDS
;	COMDAT ??_R1A@?0A@EA@Shader_CN@@8
rdata$r	SEGMENT
??_R1A@?0A@EA@Shader_CN@@8 DD imagerel ??_R0?AVShader_CN@@@8 ; Shader_CN::`RTTI Base Class Descriptor at (0,-1,0,64)'
	DD	02H
	DD	00H
	DD	0ffffffffH
	DD	00H
	DD	040H
	DD	imagerel ??_R3Shader_CN@@8
rdata$r	ENDS
;	COMDAT ??_7Shader@@6B@
CONST	SEGMENT
??_7Shader@@6B@ DQ FLAT:??_R4Shader@@6B@		; Shader::`vftable'
	DQ	FLAT:?IsDepthShaderOverrided@Shader@@MEAA_NXZ
	DQ	FLAT:?IsHaveDepthShader@Shader@@MEAA_NXZ
	DQ	FLAT:?DepthVertex@Shader@@UEAA?AV?$basic_string@DU?$char_traits@D@std@@V?$allocator@D@2@@std@@XZ
	DQ	FLAT:?DepthFragment@Shader@@UEAA?AV?$basic_string@DU?$char_traits@D@std@@V?$allocator@D@2@@std@@XZ
	DQ	FLAT:?GetVertexCode@Shader@@UEAA?AV?$basic_string@DU?$char_traits@D@std@@V?$allocator@D@2@@std@@XZ
	DQ	FLAT:?GetFragmentCode@Shader@@UEAA?AV?$basic_string@DU?$char_traits@D@std@@V?$allocator@D@2@@std@@XZ
	DQ	FLAT:?vertexShaderSrc@Shader@@UEAAPEBDXZ
	DQ	FLAT:?init@Shader@@UEAAXXZ
CONST	ENDS
;	COMDAT ??_R2_Fmt_buffer_traits@std@@8
rdata$r	SEGMENT
??_R2_Fmt_buffer_traits@std@@8 DD imagerel ??_R1A@?0A@EA@_Fmt_buffer_traits@std@@8 ; std::_Fmt_buffer_traits::`RTTI Base Class Array'
	ORG $+3
rdata$r	ENDS
;	COMDAT ??_R0?AVbad_array_new_length@std@@@8
data$r	SEGMENT
??_R0?AVbad_array_new_length@std@@@8 DQ FLAT:??_7type_info@@6B@ ; std::bad_array_new_length `RTTI Type Descriptor'
	DQ	0000000000000000H
	DB	'.?AVbad_array_new_length@std@@', 00H
data$r	ENDS
;	COMDAT ??_R2TextureWorker@@8
rdata$r	SEGMENT
??_R2TextureWorker@@8 DD imagerel ??_R1A@?0A@EA@TextureWorker@@8 ; TextureWorker::`RTTI Base Class Array'
	DD	imagerel ??_R1A@?0A@EA@Worker@@8
	ORG $+3
rdata$r	ENDS
;	COMDAT ??_R2?$basic_ios@DU?$char_traits@D@std@@@std@@8
rdata$r	SEGMENT
??_R2?$basic_ios@DU?$char_traits@D@std@@@std@@8 DD imagerel ??_R1A@?0A@EA@?$basic_ios@DU?$char_traits@D@std@@@std@@8 ; std::basic_ios<char,std::char_traits<char> >::`RTTI Base Class Array'
	DD	imagerel ??_R1A@?0A@EA@ios_base@std@@8
	DD	imagerel ??_R17?0A@EA@?$_Iosb@H@std@@8
	ORG $+3
rdata$r	ENDS
;	COMDAT ??_R3runtime_error@std@@8
rdata$r	SEGMENT
??_R3runtime_error@std@@8 DD 00H			; std::runtime_error::`RTTI Class Hierarchy Descriptor'
	DD	00H
	DD	02H
	DD	imagerel ??_R2runtime_error@std@@8
rdata$r	ENDS
;	COMDAT ??_7system_error@std@@6B@
CONST	SEGMENT
??_7system_error@std@@6B@ DQ FLAT:??_R4system_error@std@@6B@ ; std::system_error::`vftable'
	DQ	FLAT:??_Esystem_error@std@@UEAAPEAXI@Z
	DQ	FLAT:?what@exception@std@@UEBAPEBDXZ
CONST	ENDS
;	COMDAT ??_R0?AVDirectionalLight@@@8
data$rs	SEGMENT
??_R0?AVDirectionalLight@@@8 DQ FLAT:??_7type_info@@6B@	; DirectionalLight `RTTI Type Descriptor'
	DQ	0000000000000000H
	DB	'.?AVDirectionalLight@@', 00H
data$rs	ENDS
;	COMDAT ??_R1A@?0A@EA@ScreenSpaceShadowShader@@8
rdata$r	SEGMENT
??_R1A@?0A@EA@ScreenSpaceShadowShader@@8 DD imagerel ??_R0?AVScreenSpaceShadowShader@@@8 ; ScreenSpaceShadowShader::`RTTI Base Class Descriptor at (0,-1,0,64)'
	DD	01H
	DD	00H
	DD	0ffffffffH
	DD	00H
	DD	040H
	DD	imagerel ??_R3ScreenSpaceShadowShader@@8
rdata$r	ENDS
;	COMDAT ??_R2?$_Fmt_buffer@D@std@@8
rdata$r	SEGMENT
??_R2?$_Fmt_buffer@D@std@@8 DD imagerel ??_R1A@?0A@EA@?$_Fmt_buffer@D@std@@8 ; std::_Fmt_buffer<char>::`RTTI Base Class Array'
	ORG $+3
rdata$r	ENDS
;	COMDAT _CTA3?AVformat_error@std@@
xdata$x	SEGMENT
_CTA3?AVformat_error@std@@ DD 03H
	DD	imagerel _CT??_R0?AVformat_error@std@@@8??0format_error@std@@QEAA@AEBV01@@Z24
	DD	imagerel _CT??_R0?AVruntime_error@std@@@8??0runtime_error@std@@QEAA@AEBV01@@Z24
	DD	imagerel _CT??_R0?AVexception@std@@@8??0exception@std@@QEAA@AEBV01@@Z24
xdata$x	ENDS
;	COMDAT ??_R0?AVMaterial@@@8
data$rs	SEGMENT
??_R0?AVMaterial@@@8 DQ FLAT:??_7type_info@@6B@		; Material `RTTI Type Descriptor'
	DQ	0000000000000000H
	DB	'.?AVMaterial@@', 00H
data$rs	ENDS
;	COMDAT ??_R0?AVShader3d@@@8
data$rs	SEGMENT
??_R0?AVShader3d@@@8 DQ FLAT:??_7type_info@@6B@		; Shader3d `RTTI Type Descriptor'
	DQ	0000000000000000H
	DB	'.?AVShader3d@@', 00H
data$rs	ENDS
;	COMDAT ??_R2Shader_CN@@8
rdata$r	SEGMENT
??_R2Shader_CN@@8 DD imagerel ??_R1A@?0A@EA@Shader_CN@@8 ; Shader_CN::`RTTI Base Class Array'
	DD	imagerel ??_R1A@?0A@EA@Shader3d@@8
	DD	imagerel ??_R1A@?0A@EA@Shader@@8
	ORG $+3
rdata$r	ENDS
;	COMDAT ??_R1A@?0A@EA@_System_error_category@std@@8
rdata$r	SEGMENT
??_R1A@?0A@EA@_System_error_category@std@@8 DD imagerel ??_R0?AV_System_error_category@std@@@8 ; std::_System_error_category::`RTTI Base Class Descriptor at (0,-1,0,64)'
	DD	01H
	DD	00H
	DD	0ffffffffH
	DD	00H
	DD	040H
	DD	imagerel ??_R3_System_error_category@std@@8
rdata$r	ENDS
;	COMDAT ??_R1A@?0A@EA@Worker@@8
rdata$r	SEGMENT
??_R1A@?0A@EA@Worker@@8 DD imagerel ??_R0?AVWorker@@@8	; Worker::`RTTI Base Class Descriptor at (0,-1,0,64)'
	DD	00H
	DD	00H
	DD	0ffffffffH
	DD	00H
	DD	040H
	DD	imagerel ??_R3Worker@@8
rdata$r	ENDS
;	COMDAT ??_R4LightSource@@6B@
rdata$r	SEGMENT
??_R4LightSource@@6B@ DD 01H				; LightSource::`RTTI Complete Object Locator'
	DD	00H
	DD	00H
	DD	imagerel ??_R0?AVLightSource@@@8
	DD	imagerel ??_R3LightSource@@8
	DD	imagerel ??_R4LightSource@@6B@
rdata$r	ENDS
;	COMDAT ??_R3Shader_CN@@8
rdata$r	SEGMENT
??_R3Shader_CN@@8 DD 00H				; Shader_CN::`RTTI Class Hierarchy Descriptor'
	DD	00H
	DD	03H
	DD	imagerel ??_R2Shader_CN@@8
rdata$r	ENDS
;	COMDAT ??_R17?0A@EA@?$_Iosb@H@std@@8
rdata$r	SEGMENT
??_R17?0A@EA@?$_Iosb@H@std@@8 DD imagerel ??_R0?AV?$_Iosb@H@std@@@8 ; std::_Iosb<int>::`RTTI Base Class Descriptor at (8,-1,0,64)'
	DD	00H
	DD	08H
	DD	0ffffffffH
	DD	00H
	DD	040H
	DD	imagerel ??_R3?$_Iosb@H@std@@8
rdata$r	ENDS
;	COMDAT ??_R0?AVexception@std@@@8
data$r	SEGMENT
??_R0?AVexception@std@@@8 DQ FLAT:??_7type_info@@6B@	; std::exception `RTTI Type Descriptor'
	DQ	0000000000000000H
	DB	'.?AVexception@std@@', 00H
data$r	ENDS
;	COMDAT ??_R2facet@locale@std@@8
rdata$r	SEGMENT
??_R2facet@locale@std@@8 DD imagerel ??_R1A@?0A@EA@facet@locale@std@@8 ; std::locale::facet::`RTTI Base Class Array'
	DD	imagerel ??_R1A@?0A@EA@_Facet_base@std@@8
	DD	imagerel ??_R17?0A@EA@_Crt_new_delete@std@@8
	ORG $+3
rdata$r	ENDS
;	COMDAT ??_R2_Facet_base@std@@8
rdata$r	SEGMENT
??_R2_Facet_base@std@@8 DD imagerel ??_R1A@?0A@EA@_Facet_base@std@@8 ; std::_Facet_base::`RTTI Base Class Array'
	ORG $+3
rdata$r	ENDS
;	COMDAT ??_R1A@?0A@EA@_Fmt_buffer_traits@std@@8
rdata$r	SEGMENT
??_R1A@?0A@EA@_Fmt_buffer_traits@std@@8 DD imagerel ??_R0?AU_Fmt_buffer_traits@std@@@8 ; std::_Fmt_buffer_traits::`RTTI Base Class Descriptor at (0,-1,0,64)'
	DD	00H
	DD	00H
	DD	0ffffffffH
	DD	00H
	DD	040H
	DD	imagerel ??_R3_Fmt_buffer_traits@std@@8
rdata$r	ENDS
;	COMDAT ??_7?$basic_istringstream@DU?$char_traits@D@std@@V?$allocator@D@2@@std@@6B@
CONST	SEGMENT
??_7?$basic_istringstream@DU?$char_traits@D@std@@V?$allocator@D@2@@std@@6B@ DQ FLAT:??_R4?$basic_istringstream@DU?$char_traits@D@std@@V?$allocator@D@2@@std@@6B@ ; std::basic_istringstream<char,std::char_traits<char>,std::allocator<char> >::`vftable'
	DQ	FLAT:??_E?$basic_istringstream@DU?$char_traits@D@std@@V?$allocator@D@2@@std@@$4PPPPPPPM@A@EAAPEAXI@Z
CONST	ENDS
;	COMDAT ??_R3?$_Iosb@H@std@@8
rdata$r	SEGMENT
??_R3?$_Iosb@H@std@@8 DD 00H				; std::_Iosb<int>::`RTTI Class Hierarchy Descriptor'
	DD	00H
	DD	01H
	DD	imagerel ??_R2?$_Iosb@H@std@@8
rdata$r	ENDS
;	COMDAT ??_7ScreenSpaceShadowShader@@6B@
CONST	SEGMENT
??_7ScreenSpaceShadowShader@@6B@ DQ FLAT:??_R4ScreenSpaceShadowShader@@6B@ ; ScreenSpaceShadowShader::`vftable'
	DQ	FLAT:?IsDepthShaderOverrided@Shader@@MEAA_NXZ
	DQ	FLAT:?IsHaveDepthShader@Shader@@MEAA_NXZ
	DQ	FLAT:?DepthVertex@Shader@@UEAA?AV?$basic_string@DU?$char_traits@D@std@@V?$allocator@D@2@@std@@XZ
	DQ	FLAT:?DepthFragment@Shader@@UEAA?AV?$basic_string@DU?$char_traits@D@std@@V?$allocator@D@2@@std@@XZ
	DQ	FLAT:?GetVertexCode@ScreenSpaceShadowShader@@EEAA?AV?$basic_string@DU?$char_traits@D@std@@V?$allocator@D@2@@std@@XZ
	DQ	FLAT:?GetFragmentCode@ScreenSpaceShadowShader@@EEAA?AV?$basic_string@DU?$char_traits@D@std@@V?$allocator@D@2@@std@@XZ
	DQ	FLAT:?vertexShaderSrc@Shader@@UEAAPEBDXZ
	DQ	FLAT:?init@Shader@@UEAAXXZ
CONST	ENDS
;	COMDAT ??_R2?$basic_ifstream@DU?$char_traits@D@std@@@std@@8
rdata$r	SEGMENT
??_R2?$basic_ifstream@DU?$char_traits@D@std@@@std@@8 DD imagerel ??_R1A@?0A@EA@?$basic_ifstream@DU?$char_traits@D@std@@@std@@8 ; std::basic_ifstream<char,std::char_traits<char> >::`RTTI Base Class Array'
	DD	imagerel ??_R1A@?0A@EA@?$basic_istream@DU?$char_traits@D@std@@@std@@8
	DD	imagerel ??_R1A@A@3FA@?$basic_ios@DU?$char_traits@D@std@@@std@@8
	DD	imagerel ??_R1A@A@3EA@ios_base@std@@8
	DD	imagerel ??_R17A@3EA@?$_Iosb@H@std@@8
	ORG $+3
rdata$r	ENDS
;	COMDAT _TI3?AVbad_array_new_length@std@@
xdata$x	SEGMENT
_TI3?AVbad_array_new_length@std@@ DD 00H
	DD	imagerel ??1bad_array_new_length@std@@UEAA@XZ
	DD	00H
	DD	imagerel _CTA3?AVbad_array_new_length@std@@
xdata$x	ENDS
;	COMDAT ??_R1A@?0A@EA@?$basic_ios@DU?$char_traits@D@std@@@std@@8
rdata$r	SEGMENT
??_R1A@?0A@EA@?$basic_ios@DU?$char_traits@D@std@@@std@@8 DD imagerel ??_R0?AV?$basic_ios@DU?$char_traits@D@std@@@std@@@8 ; std::basic_ios<char,std::char_traits<char> >::`RTTI Base Class Descriptor at (0,-1,0,64)'
	DD	02H
	DD	00H
	DD	0ffffffffH
	DD	00H
	DD	040H
	DD	imagerel ??_R3?$basic_ios@DU?$char_traits@D@std@@@std@@8
rdata$r	ENDS
;	COMDAT ??_R1A@?0A@EA@filesystem_error@filesystem@std@@8
rdata$r	SEGMENT
??_R1A@?0A@EA@filesystem_error@filesystem@std@@8 DD imagerel ??_R0?AVfilesystem_error@filesystem@std@@@8 ; std::filesystem::filesystem_error::`RTTI Base Class Descriptor at (0,-1,0,64)'
	DD	04H
	DD	00H
	DD	0ffffffffH
	DD	00H
	DD	040H
	DD	imagerel ??_R3filesystem_error@filesystem@std@@8
rdata$r	ENDS
;	COMDAT ??_7Material@@6B@
CONST	SEGMENT
??_7Material@@6B@ DQ FLAT:??_R4Material@@6B@		; Material::`vftable'
	DQ	FLAT:?UseMaterial@Material@@UEAAXXZ
CONST	ENDS
;	COMDAT ??_R1A@A@3EA@ios_base@std@@8
rdata$r	SEGMENT
??_R1A@A@3EA@ios_base@std@@8 DD imagerel ??_R0?AVios_base@std@@@8 ; std::ios_base::`RTTI Base Class Descriptor at (0,0,4,64)'
	DD	01H
	DD	00H
	DD	00H
	DD	04H
	DD	040H
	DD	imagerel ??_R3ios_base@std@@8
rdata$r	ENDS
;	COMDAT ??_R3system_error@std@@8
rdata$r	SEGMENT
??_R3system_error@std@@8 DD 00H				; std::system_error::`RTTI Class Hierarchy Descriptor'
	DD	00H
	DD	04H
	DD	imagerel ??_R2system_error@std@@8
rdata$r	ENDS
;	COMDAT _CT??_R0?AVexception@std@@@8??0exception@std@@QEAA@AEBV01@@Z24
xdata$x	SEGMENT
_CT??_R0?AVexception@std@@@8??0exception@std@@QEAA@AEBV01@@Z24 DD 00H
	DD	imagerel ??_R0?AVexception@std@@@8
	DD	00H
	DD	0ffffffffH
	ORG $+4
	DD	018H
	DD	imagerel ??0exception@std@@QEAA@AEBV01@@Z
xdata$x	ENDS
;	COMDAT ??_R2?$_Iosb@H@std@@8
rdata$r	SEGMENT
??_R2?$_Iosb@H@std@@8 DD imagerel ??_R1A@?0A@EA@?$_Iosb@H@std@@8 ; std::_Iosb<int>::`RTTI Base Class Array'
	ORG $+3
rdata$r	ENDS
;	COMDAT ??_R4Worker@@6B@
rdata$r	SEGMENT
??_R4Worker@@6B@ DD 01H					; Worker::`RTTI Complete Object Locator'
	DD	00H
	DD	00H
	DD	imagerel ??_R0?AVWorker@@@8
	DD	imagerel ??_R3Worker@@8
	DD	imagerel ??_R4Worker@@6B@
rdata$r	ENDS
;	COMDAT ??_7?$basic_ifstream@DU?$char_traits@D@std@@@std@@6B@
CONST	SEGMENT
??_7?$basic_ifstream@DU?$char_traits@D@std@@@std@@6B@ DQ FLAT:??_R4?$basic_ifstream@DU?$char_traits@D@std@@@std@@6B@ ; std::basic_ifstream<char,std::char_traits<char> >::`vftable'
	DQ	FLAT:??_E?$basic_ifstream@DU?$char_traits@D@std@@@std@@$4PPPPPPPM@A@EAAPEAXI@Z
CONST	ENDS
;	COMDAT ??_R2bad_optional_access@std@@8
rdata$r	SEGMENT
??_R2bad_optional_access@std@@8 DD imagerel ??_R1A@?0A@EA@bad_optional_access@std@@8 ; std::bad_optional_access::`RTTI Base Class Array'
	DD	imagerel ??_R1A@?0A@EA@exception@std@@8
	ORG $+3
rdata$r	ENDS
;	COMDAT ??_R4ScreenSpacePostProcessing@@6B@
rdata$r	SEGMENT
??_R4ScreenSpacePostProcessing@@6B@ DD 01H		; ScreenSpacePostProcessing::`RTTI Complete Object Locator'
	DD	00H
	DD	00H
	DD	imagerel ??_R0?AVScreenSpacePostProcessing@@@8
	DD	imagerel ??_R3ScreenSpacePostProcessing@@8
	DD	imagerel ??_R4ScreenSpacePostProcessing@@6B@
rdata$r	ENDS
;	COMDAT _TI3?AVformat_error@std@@
xdata$x	SEGMENT
_TI3?AVformat_error@std@@ DD 00H
	DD	imagerel ??1format_error@std@@UEAA@XZ
	DD	00H
	DD	imagerel _CTA3?AVformat_error@std@@
xdata$x	ENDS
;	COMDAT ??_7Worker@@6B@
CONST	SEGMENT
??_7Worker@@6B@ DQ FLAT:??_R4Worker@@6B@		; Worker::`vftable'
	DQ	FLAT:?GetName@Worker@@UEAA?AV?$basic_string@DU?$char_traits@D@std@@V?$allocator@D@2@@std@@XZ
	DQ	FLAT:?Work@Worker@@UEAAXXZ
CONST	ENDS
;	COMDAT ?tag@?DE@??stbi__process_marker@@YAHPEAUstbi__jpeg@@H@Z@4QBEB
CONST	SEGMENT
?tag@?DE@??stbi__process_marker@@YAHPEAUstbi__jpeg@@H@Z@4QBEB DB 041H ; `stbi__process_marker'::`52'::tag
	DB	064H
	DB	06fH
	DB	062H
	DB	065H
	DB	00H
CONST	ENDS
;	COMDAT ??_R1A@?0A@EA@bad_array_new_length@std@@8
rdata$r	SEGMENT
??_R1A@?0A@EA@bad_array_new_length@std@@8 DD imagerel ??_R0?AVbad_array_new_length@std@@@8 ; std::bad_array_new_length::`RTTI Base Class Descriptor at (0,-1,0,64)'
	DD	02H
	DD	00H
	DD	0ffffffffH
	DD	00H
	DD	040H
	DD	imagerel ??_R3bad_array_new_length@std@@8
rdata$r	ENDS
;	COMDAT ??_R3?$basic_streambuf@DU?$char_traits@D@std@@@std@@8
rdata$r	SEGMENT
??_R3?$basic_streambuf@DU?$char_traits@D@std@@@std@@8 DD 00H ; std::basic_streambuf<char,std::char_traits<char> >::`RTTI Class Hierarchy Descriptor'
	DD	00H
	DD	01H
	DD	imagerel ??_R2?$basic_streambuf@DU?$char_traits@D@std@@@std@@8
rdata$r	ENDS
;	COMDAT ??_R2?$basic_filebuf@DU?$char_traits@D@std@@@std@@8
rdata$r	SEGMENT
??_R2?$basic_filebuf@DU?$char_traits@D@std@@@std@@8 DD imagerel ??_R1A@?0A@EA@?$basic_filebuf@DU?$char_traits@D@std@@@std@@8 ; std::basic_filebuf<char,std::char_traits<char> >::`RTTI Base Class Array'
	DD	imagerel ??_R1A@?0A@EA@?$basic_streambuf@DU?$char_traits@D@std@@@std@@8
	ORG $+3
rdata$r	ENDS
;	COMDAT ??_7DirectionalLight@@6B@
CONST	SEGMENT
??_7DirectionalLight@@6B@ DQ FLAT:??_R4DirectionalLight@@6B@ ; DirectionalLight::`vftable'
	DQ	FLAT:?Render@DirectionalLight@@UEAAXXZ
CONST	ENDS
;	COMDAT ??_R2format_error@std@@8
rdata$r	SEGMENT
??_R2format_error@std@@8 DD imagerel ??_R1A@?0A@EA@format_error@std@@8 ; std::format_error::`RTTI Base Class Array'
	DD	imagerel ??_R1A@?0A@EA@runtime_error@std@@8
	DD	imagerel ??_R1A@?0A@EA@exception@std@@8
	ORG $+3
rdata$r	ENDS
;	COMDAT ??_R3ios_base@std@@8
rdata$r	SEGMENT
??_R3ios_base@std@@8 DD 00H				; std::ios_base::`RTTI Class Hierarchy Descriptor'
	DD	00H
	DD	02H
	DD	imagerel ??_R2ios_base@std@@8
rdata$r	ENDS
;	COMDAT ??_R0?AUGlFrameBuffer@@@8
data$rs	SEGMENT
??_R0?AUGlFrameBuffer@@@8 DQ FLAT:??_7type_info@@6B@	; GlFrameBuffer `RTTI Type Descriptor'
	DQ	0000000000000000H
	DB	'.?AUGlFrameBuffer@@', 00H
data$rs	ENDS
;	COMDAT ??_R4?$basic_istringstream@DU?$char_traits@D@std@@V?$allocator@D@2@@std@@6B@
rdata$r	SEGMENT
??_R4?$basic_istringstream@DU?$char_traits@D@std@@V?$allocator@D@2@@std@@6B@ DD 01H ; std::basic_istringstream<char,std::char_traits<char>,std::allocator<char> >::`RTTI Complete Object Locator'
	DD	090H
	DD	04H
	DD	imagerel ??_R0?AV?$basic_istringstream@DU?$char_traits@D@std@@V?$allocator@D@2@@std@@@8
	DD	imagerel ??_R3?$basic_istringstream@DU?$char_traits@D@std@@V?$allocator@D@2@@std@@8
	DD	imagerel ??_R4?$basic_istringstream@DU?$char_traits@D@std@@V?$allocator@D@2@@std@@6B@
rdata$r	ENDS
;	COMDAT ??_R2_Crt_new_delete@std@@8
rdata$r	SEGMENT
??_R2_Crt_new_delete@std@@8 DD imagerel ??_R1A@?0A@EA@_Crt_new_delete@std@@8 ; std::_Crt_new_delete::`RTTI Base Class Array'
	ORG $+3
rdata$r	ENDS
;	COMDAT ??_R2GameObject@@8
rdata$r	SEGMENT
??_R2GameObject@@8 DD imagerel ??_R1A@?0A@EA@GameObject@@8 ; GameObject::`RTTI Base Class Array'
	ORG $+3
rdata$r	ENDS
;	COMDAT ??_R0?AV_System_error@std@@@8
data$r	SEGMENT
??_R0?AV_System_error@std@@@8 DQ FLAT:??_7type_info@@6B@ ; std::_System_error `RTTI Type Descriptor'
	DQ	0000000000000000H
	DB	'.?AV_System_error@std@@', 00H
data$r	ENDS
;	COMDAT ??_R1A@?0A@EA@?$numpunct@D@std@@8
rdata$r	SEGMENT
??_R1A@?0A@EA@?$numpunct@D@std@@8 DD imagerel ??_R0?AV?$numpunct@D@std@@@8 ; std::numpunct<char>::`RTTI Base Class Descriptor at (0,-1,0,64)'
	DD	03H
	DD	00H
	DD	0ffffffffH
	DD	00H
	DD	040H
	DD	imagerel ??_R3?$numpunct@D@std@@8
rdata$r	ENDS
;	COMDAT ??_R1A@?0A@EA@GameObject@@8
rdata$r	SEGMENT
??_R1A@?0A@EA@GameObject@@8 DD imagerel ??_R0?AVGameObject@@@8 ; GameObject::`RTTI Base Class Descriptor at (0,-1,0,64)'
	DD	00H
	DD	00H
	DD	0ffffffffH
	DD	00H
	DD	040H
	DD	imagerel ??_R3GameObject@@8
rdata$r	ENDS
;	COMDAT ??_R4DirectionalLight@@6B@
rdata$r	SEGMENT
??_R4DirectionalLight@@6B@ DD 01H			; DirectionalLight::`RTTI Complete Object Locator'
	DD	00H
	DD	00H
	DD	imagerel ??_R0?AVDirectionalLight@@@8
	DD	imagerel ??_R3DirectionalLight@@8
	DD	imagerel ??_R4DirectionalLight@@6B@
rdata$r	ENDS
;	COMDAT _CTA5?AVfilesystem_error@filesystem@std@@
xdata$x	SEGMENT
_CTA5?AVfilesystem_error@filesystem@std@@ DD 05H
	DD	imagerel _CT??_R0?AVfilesystem_error@filesystem@std@@@8??0filesystem_error@filesystem@std@@QEAA@AEBV012@@Z136
	DD	imagerel _CT??_R0?AVsystem_error@std@@@8??0system_error@std@@QEAA@AEBV01@@Z40
	DD	imagerel _CT??_R0?AV_System_error@std@@@8??0_System_error@std@@QEAA@AEBV01@@Z40
	DD	imagerel _CT??_R0?AVruntime_error@std@@@8??0runtime_error@std@@QEAA@AEBV01@@Z24
	DD	imagerel _CT??_R0?AVexception@std@@@8??0exception@std@@QEAA@AEBV01@@Z24
xdata$x	ENDS
;	COMDAT ??_R2ios_base@std@@8
rdata$r	SEGMENT
??_R2ios_base@std@@8 DD imagerel ??_R1A@?0A@EA@ios_base@std@@8 ; std::ios_base::`RTTI Base Class Array'
	DD	imagerel ??_R17?0A@EA@?$_Iosb@H@std@@8
	ORG $+3
rdata$r	ENDS
;	COMDAT ??_7_System_error_category@std@@6B@
CONST	SEGMENT
??_7_System_error_category@std@@6B@ DQ FLAT:??_R4_System_error_category@std@@6B@ ; std::_System_error_category::`vftable'
	DQ	FLAT:??_E_System_error_category@std@@UEAAPEAXI@Z
	DQ	FLAT:?name@_System_error_category@std@@UEBAPEBDXZ
	DQ	FLAT:?message@_System_error_category@std@@UEBA?AV?$basic_string@DU?$char_traits@D@std@@V?$allocator@D@2@@2@H@Z
	DQ	FLAT:?default_error_condition@_System_error_category@std@@UEBA?AVerror_condition@2@H@Z
	DQ	FLAT:?equivalent@error_category@std@@UEBA_NAEBVerror_code@2@H@Z
	DQ	FLAT:?equivalent@error_category@std@@UEBA_NHAEBVerror_condition@2@@Z
CONST	ENDS
;	COMDAT ??_R3?$basic_filebuf@DU?$char_traits@D@std@@@std@@8
rdata$r	SEGMENT
??_R3?$basic_filebuf@DU?$char_traits@D@std@@@std@@8 DD 00H ; std::basic_filebuf<char,std::char_traits<char> >::`RTTI Class Hierarchy Descriptor'
	DD	00H
	DD	02H
	DD	imagerel ??_R2?$basic_filebuf@DU?$char_traits@D@std@@@std@@8
rdata$r	ENDS
;	COMDAT ??_R1CA@?0A@EA@_Fmt_buffer_traits@std@@8
rdata$r	SEGMENT
??_R1CA@?0A@EA@_Fmt_buffer_traits@std@@8 DD imagerel ??_R0?AU_Fmt_buffer_traits@std@@@8 ; std::_Fmt_buffer_traits::`RTTI Base Class Descriptor at (32,-1,0,64)'
	DD	00H
	DD	020H
	DD	0ffffffffH
	DD	00H
	DD	040H
	DD	imagerel ??_R3_Fmt_buffer_traits@std@@8
rdata$r	ENDS
;	COMDAT ?uvs@M_Cube@@0QBMB
CONST	SEGMENT
?uvs@M_Cube@@0QBMB DD 000000000r		; 0	; M_Cube::uvs
	DD	000000000r			; 0
	DD	03f800000r			; 1
	DD	000000000r			; 0
	DD	000000000r			; 0
	DD	03f800000r			; 1
	DD	03f800000r			; 1
	DD	03f800000r			; 1
CONST	ENDS
;	COMDAT ??_R4bad_array_new_length@std@@6B@
rdata$r	SEGMENT
??_R4bad_array_new_length@std@@6B@ DD 01H		; std::bad_array_new_length::`RTTI Complete Object Locator'
	DD	00H
	DD	00H
	DD	imagerel ??_R0?AVbad_array_new_length@std@@@8
	DD	imagerel ??_R3bad_array_new_length@std@@8
	DD	imagerel ??_R4bad_array_new_length@std@@6B@
rdata$r	ENDS
;	COMDAT ??_R1A@A@3FA@?$basic_ios@DU?$char_traits@D@std@@@std@@8
rdata$r	SEGMENT
??_R1A@A@3FA@?$basic_ios@DU?$char_traits@D@std@@@std@@8 DD imagerel ??_R0?AV?$basic_ios@DU?$char_traits@D@std@@@std@@@8 ; std::basic_ios<char,std::char_traits<char> >::`RTTI Base Class Descriptor at (0,0,4,80)'
	DD	02H
	DD	00H
	DD	00H
	DD	04H
	DD	050H
	DD	imagerel ??_R3?$basic_ios@DU?$char_traits@D@std@@@std@@8
rdata$r	ENDS
;	COMDAT ??_R2runtime_error@std@@8
rdata$r	SEGMENT
??_R2runtime_error@std@@8 DD imagerel ??_R1A@?0A@EA@runtime_error@std@@8 ; std::runtime_error::`RTTI Base Class Array'
	DD	imagerel ??_R1A@?0A@EA@exception@std@@8
	ORG $+3
rdata$r	ENDS
;	COMDAT ??_R4?$numpunct@D@std@@6B@
rdata$r	SEGMENT
??_R4?$numpunct@D@std@@6B@ DD 01H			; std::numpunct<char>::`RTTI Complete Object Locator'
	DD	00H
	DD	00H
	DD	imagerel ??_R0?AV?$numpunct@D@std@@@8
	DD	imagerel ??_R3?$numpunct@D@std@@8
	DD	imagerel ??_R4?$numpunct@D@std@@6B@
rdata$r	ENDS
;	COMDAT _CT??_R0?AV_System_error@std@@@8??0_System_error@std@@QEAA@AEBV01@@Z40
xdata$x	SEGMENT
_CT??_R0?AV_System_error@std@@@8??0_System_error@std@@QEAA@AEBV01@@Z40 DD 00H
	DD	imagerel ??_R0?AV_System_error@std@@@8
	DD	00H
	DD	0ffffffffH
	ORG $+4
	DD	028H
	DD	imagerel ??0_System_error@std@@QEAA@AEBV01@@Z
xdata$x	ENDS
;	COMDAT ??_R3?$_Fmt_buffer@D@std@@8
rdata$r	SEGMENT
??_R3?$_Fmt_buffer@D@std@@8 DD 00H			; std::_Fmt_buffer<char>::`RTTI Class Hierarchy Descriptor'
	DD	00H
	DD	01H
	DD	imagerel ??_R2?$_Fmt_buffer@D@std@@8
rdata$r	ENDS
;	COMDAT ??_R3?$numpunct@D@std@@8
rdata$r	SEGMENT
??_R3?$numpunct@D@std@@8 DD 00H				; std::numpunct<char>::`RTTI Class Hierarchy Descriptor'
	DD	01H
	DD	04H
	DD	imagerel ??_R2?$numpunct@D@std@@8
rdata$r	ENDS
;	COMDAT ??_R1A@?0A@EA@GlFrameBuffer@@8
rdata$r	SEGMENT
??_R1A@?0A@EA@GlFrameBuffer@@8 DD imagerel ??_R0?AUGlFrameBuffer@@@8 ; GlFrameBuffer::`RTTI Base Class Descriptor at (0,-1,0,64)'
	DD	00H
	DD	00H
	DD	0ffffffffH
	DD	00H
	DD	040H
	DD	imagerel ??_R3GlFrameBuffer@@8
rdata$r	ENDS
;	COMDAT ??_R1A@?0A@EA@?$basic_filebuf@DU?$char_traits@D@std@@@std@@8
rdata$r	SEGMENT
??_R1A@?0A@EA@?$basic_filebuf@DU?$char_traits@D@std@@@std@@8 DD imagerel ??_R0?AV?$basic_filebuf@DU?$char_traits@D@std@@@std@@@8 ; std::basic_filebuf<char,std::char_traits<char> >::`RTTI Base Class Descriptor at (0,-1,0,64)'
	DD	01H
	DD	00H
	DD	0ffffffffH
	DD	00H
	DD	040H
	DD	imagerel ??_R3?$basic_filebuf@DU?$char_traits@D@std@@@std@@8
rdata$r	ENDS
;	COMDAT ??_R2filesystem_error@filesystem@std@@8
rdata$r	SEGMENT
??_R2filesystem_error@filesystem@std@@8 DD imagerel ??_R1A@?0A@EA@filesystem_error@filesystem@std@@8 ; std::filesystem::filesystem_error::`RTTI Base Class Array'
	DD	imagerel ??_R1A@?0A@EA@system_error@std@@8
	DD	imagerel ??_R1A@?0A@EA@_System_error@std@@8
	DD	imagerel ??_R1A@?0A@EA@runtime_error@std@@8
	DD	imagerel ??_R1A@?0A@EA@exception@std@@8
	ORG $+3
rdata$r	ENDS
;	COMDAT ??_R1A@?0A@EA@format_error@std@@8
rdata$r	SEGMENT
??_R1A@?0A@EA@format_error@std@@8 DD imagerel ??_R0?AVformat_error@std@@@8 ; std::format_error::`RTTI Base Class Descriptor at (0,-1,0,64)'
	DD	02H
	DD	00H
	DD	0ffffffffH
	DD	00H
	DD	040H
	DD	imagerel ??_R3format_error@std@@8
rdata$r	ENDS
;	COMDAT _CT??_R0?AVbad_optional_access@std@@@8??0bad_optional_access@std@@QEAA@AEBV01@@Z24
xdata$x	SEGMENT
_CT??_R0?AVbad_optional_access@std@@@8??0bad_optional_access@std@@QEAA@AEBV01@@Z24 DD 00H
	DD	imagerel ??_R0?AVbad_optional_access@std@@@8
	DD	00H
	DD	0ffffffffH
	ORG $+4
	DD	018H
	DD	imagerel ??0bad_optional_access@std@@QEAA@AEBV01@@Z
xdata$x	ENDS
;	COMDAT ??_R1A@?0A@EA@ScreenSpacePostProcessing@@8
rdata$r	SEGMENT
??_R1A@?0A@EA@ScreenSpacePostProcessing@@8 DD imagerel ??_R0?AVScreenSpacePostProcessing@@@8 ; ScreenSpacePostProcessing::`RTTI Base Class Descriptor at (0,-1,0,64)'
	DD	00H
	DD	00H
	DD	0ffffffffH
	DD	00H
	DD	040H
	DD	imagerel ??_R3ScreenSpacePostProcessing@@8
rdata$r	ENDS
;	COMDAT ??_R2?$_Fmt_iterator_buffer@V?$back_insert_iterator@V?$basic_string@DU?$char_traits@D@std@@V?$allocator@D@2@@std@@@std@@DU_Fmt_buffer_traits@2@@std@@8
rdata$r	SEGMENT
??_R2?$_Fmt_iterator_buffer@V?$back_insert_iterator@V?$basic_string@DU?$char_traits@D@std@@V?$allocator@D@2@@std@@@std@@DU_Fmt_buffer_traits@2@@std@@8 DD imagerel ??_R1A@?0A@EA@?$_Fmt_iterator_buffer@V?$back_insert_iterator@V?$basic_string@DU?$char_traits@D@std@@V?$allocator@D@2@@std@@@std@@DU_Fmt_buffer_traits@2@@std@@8 ; std::_Fmt_iterator_buffer<std::back_insert_iterator<std::basic_string<char,std::char_traits<char>,std::allocator<char> > >,char,std::_Fmt_buffer_traits>::`RTTI Base Class Array'
	DD	imagerel ??_R1CA@?0A@EA@_Fmt_buffer_traits@std@@8
	DD	imagerel ??_R1A@?0A@EA@?$_Fmt_buffer@D@std@@8
	ORG $+3
rdata$r	ENDS
;	COMDAT ??_R3bad_alloc@std@@8
rdata$r	SEGMENT
??_R3bad_alloc@std@@8 DD 00H				; std::bad_alloc::`RTTI Class Hierarchy Descriptor'
	DD	00H
	DD	02H
	DD	imagerel ??_R2bad_alloc@std@@8
rdata$r	ENDS
;	COMDAT ??_R4?$basic_stringbuf@DU?$char_traits@D@std@@V?$allocator@D@2@@std@@6B@
rdata$r	SEGMENT
??_R4?$basic_stringbuf@DU?$char_traits@D@std@@V?$allocator@D@2@@std@@6B@ DD 01H ; std::basic_stringbuf<char,std::char_traits<char>,std::allocator<char> >::`RTTI Complete Object Locator'
	DD	00H
	DD	00H
	DD	imagerel ??_R0?AV?$basic_stringbuf@DU?$char_traits@D@std@@V?$allocator@D@2@@std@@@8
	DD	imagerel ??_R3?$basic_stringbuf@DU?$char_traits@D@std@@V?$allocator@D@2@@std@@8
	DD	imagerel ??_R4?$basic_stringbuf@DU?$char_traits@D@std@@V?$allocator@D@2@@std@@6B@
rdata$r	ENDS
;	COMDAT ?png_sig@?1??stbi__check_png_header@@YAHPEAUstbi__context@@@Z@4QBEB
CONST	SEGMENT
?png_sig@?1??stbi__check_png_header@@YAHPEAUstbi__context@@@Z@4QBEB DB 089H ; `stbi__check_png_header'::`2'::png_sig
	DB	050H
	DB	04eH
	DB	047H
	DB	0dH
	DB	0aH
	DB	01aH
	DB	0aH
CONST	ENDS
;	COMDAT ??_R0?AVfilesystem_error@filesystem@std@@@8
data$r	SEGMENT
??_R0?AVfilesystem_error@filesystem@std@@@8 DQ FLAT:??_7type_info@@6B@ ; std::filesystem::filesystem_error `RTTI Type Descriptor'
	DQ	0000000000000000H
	DB	'.?AVfilesystem_error@filesystem@std@@', 00H
data$r	ENDS
;	COMDAT _CT??_R0?AVbad_alloc@std@@@8??0bad_alloc@std@@QEAA@AEBV01@@Z24
xdata$x	SEGMENT
_CT??_R0?AVbad_alloc@std@@@8??0bad_alloc@std@@QEAA@AEBV01@@Z24 DD 010H
	DD	imagerel ??_R0?AVbad_alloc@std@@@8
	DD	00H
	DD	0ffffffffH
	ORG $+4
	DD	018H
	DD	imagerel ??0bad_alloc@std@@QEAA@AEBV01@@Z
xdata$x	ENDS
;	COMDAT ??_R3bad_array_new_length@std@@8
rdata$r	SEGMENT
??_R3bad_array_new_length@std@@8 DD 00H			; std::bad_array_new_length::`RTTI Class Hierarchy Descriptor'
	DD	00H
	DD	03H
	DD	imagerel ??_R2bad_array_new_length@std@@8
rdata$r	ENDS
;	COMDAT ??_R1A@?0A@EA@LightSource@@8
rdata$r	SEGMENT
??_R1A@?0A@EA@LightSource@@8 DD imagerel ??_R0?AVLightSource@@@8 ; LightSource::`RTTI Base Class Descriptor at (0,-1,0,64)'
	DD	01H
	DD	00H
	DD	0ffffffffH
	DD	00H
	DD	040H
	DD	imagerel ??_R3LightSource@@8
rdata$r	ENDS
;	COMDAT _CT??_R0?AVbad_cast@std@@@8??0bad_cast@std@@QEAA@AEBV01@@Z24
xdata$x	SEGMENT
_CT??_R0?AVbad_cast@std@@@8??0bad_cast@std@@QEAA@AEBV01@@Z24 DD 00H
	DD	imagerel ??_R0?AVbad_cast@std@@@8
	DD	00H
	DD	0ffffffffH
	ORG $+4
	DD	018H
	DD	imagerel ??0bad_cast@std@@QEAA@AEBV01@@Z
xdata$x	ENDS
;	COMDAT ??_8?$basic_istringstream@DU?$char_traits@D@std@@V?$allocator@D@2@@std@@7B@
CONST	SEGMENT
??_8?$basic_istringstream@DU?$char_traits@D@std@@V?$allocator@D@2@@std@@7B@ DD 00H ; std::basic_istringstream<char,std::char_traits<char>,std::allocator<char> >::`vbtable'
	DD	090H
CONST	ENDS
;	COMDAT ?rgb@?BG@??stbi__process_frame_header@@YAHPEAUstbi__jpeg@@H@Z@4QBEB
CONST	SEGMENT
?rgb@?BG@??stbi__process_frame_header@@YAHPEAUstbi__jpeg@@H@Z@4QBEB DB 052H ; `stbi__process_frame_header'::`22'::rgb
	DB	047H
	DB	042H
CONST	ENDS
;	COMDAT ??_R3_System_error_category@std@@8
rdata$r	SEGMENT
??_R3_System_error_category@std@@8 DD 00H		; std::_System_error_category::`RTTI Class Hierarchy Descriptor'
	DD	00H
	DD	02H
	DD	imagerel ??_R2_System_error_category@std@@8
rdata$r	ENDS
;	COMDAT ??_R1A@?0A@EA@_Crt_new_delete@std@@8
rdata$r	SEGMENT
??_R1A@?0A@EA@_Crt_new_delete@std@@8 DD imagerel ??_R0?AU_Crt_new_delete@std@@@8 ; std::_Crt_new_delete::`RTTI Base Class Descriptor at (0,-1,0,64)'
	DD	00H
	DD	00H
	DD	0ffffffffH
	DD	00H
	DD	040H
	DD	imagerel ??_R3_Crt_new_delete@std@@8
rdata$r	ENDS
;	COMDAT ??_R4bad_cast@std@@6B@
rdata$r	SEGMENT
??_R4bad_cast@std@@6B@ DD 01H				; std::bad_cast::`RTTI Complete Object Locator'
	DD	00H
	DD	00H
	DD	imagerel ??_R0?AVbad_cast@std@@@8
	DD	imagerel ??_R3bad_cast@std@@8
	DD	imagerel ??_R4bad_cast@std@@6B@
rdata$r	ENDS
;	COMDAT ??_R3filesystem_error@filesystem@std@@8
rdata$r	SEGMENT
??_R3filesystem_error@filesystem@std@@8 DD 00H		; std::filesystem::filesystem_error::`RTTI Class Hierarchy Descriptor'
	DD	00H
	DD	05H
	DD	imagerel ??_R2filesystem_error@filesystem@std@@8
rdata$r	ENDS
;	COMDAT ??_7TextureWorker@@6B@
CONST	SEGMENT
??_7TextureWorker@@6B@ DQ FLAT:??_R4TextureWorker@@6B@	; TextureWorker::`vftable'
	DQ	FLAT:?GetName@Worker@@UEAA?AV?$basic_string@DU?$char_traits@D@std@@V?$allocator@D@2@@std@@XZ
	DQ	FLAT:?Work@TextureWorker@@UEAAXXZ
CONST	ENDS
;	COMDAT ??_R0?AVScreenSpacePostProcessing@@@8
data$rs	SEGMENT
??_R0?AVScreenSpacePostProcessing@@@8 DQ FLAT:??_7type_info@@6B@ ; ScreenSpacePostProcessing `RTTI Type Descriptor'
	DQ	0000000000000000H
	DB	'.?AVScreenSpacePostProcessing@@', 00H
data$rs	ENDS
;	COMDAT ??_R4bad_alloc@std@@6B@
rdata$r	SEGMENT
??_R4bad_alloc@std@@6B@ DD 01H				; std::bad_alloc::`RTTI Complete Object Locator'
	DD	00H
	DD	00H
	DD	imagerel ??_R0?AVbad_alloc@std@@@8
	DD	imagerel ??_R3bad_alloc@std@@8
	DD	imagerel ??_R4bad_alloc@std@@6B@
rdata$r	ENDS
;	COMDAT ??_R3error_category@std@@8
rdata$r	SEGMENT
??_R3error_category@std@@8 DD 00H			; std::error_category::`RTTI Class Hierarchy Descriptor'
	DD	00H
	DD	01H
	DD	imagerel ??_R2error_category@std@@8
rdata$r	ENDS
;	COMDAT ??_R3bad_cast@std@@8
rdata$r	SEGMENT
??_R3bad_cast@std@@8 DD 00H				; std::bad_cast::`RTTI Class Hierarchy Descriptor'
	DD	00H
	DD	02H
	DD	imagerel ??_R2bad_cast@std@@8
rdata$r	ENDS
;	COMDAT ??_R1A@?0A@EA@_System_error@std@@8
rdata$r	SEGMENT
??_R1A@?0A@EA@_System_error@std@@8 DD imagerel ??_R0?AV_System_error@std@@@8 ; std::_System_error::`RTTI Base Class Descriptor at (0,-1,0,64)'
	DD	02H
	DD	00H
	DD	0ffffffffH
	DD	00H
	DD	040H
	DD	imagerel ??_R3_System_error@std@@8
rdata$r	ENDS
;	COMDAT ??_7?$_Fmt_buffer@D@std@@6B@
CONST	SEGMENT
??_7?$_Fmt_buffer@D@std@@6B@ DQ FLAT:??_R4?$_Fmt_buffer@D@std@@6B@ ; std::_Fmt_buffer<char>::`vftable'
	DQ	FLAT:_purecall
CONST	ENDS
;	COMDAT _CT??_R0?AVruntime_error@std@@@8??0runtime_error@std@@QEAA@AEBV01@@Z24
xdata$x	SEGMENT
_CT??_R0?AVruntime_error@std@@@8??0runtime_error@std@@QEAA@AEBV01@@Z24 DD 00H
	DD	imagerel ??_R0?AVruntime_error@std@@@8
	DD	00H
	DD	0ffffffffH
	ORG $+4
	DD	018H
	DD	imagerel ??0runtime_error@std@@QEAA@AEBV01@@Z
xdata$x	ENDS
;	COMDAT ??_R2_Generic_error_category@std@@8
rdata$r	SEGMENT
??_R2_Generic_error_category@std@@8 DD imagerel ??_R1A@?0A@EA@_Generic_error_category@std@@8 ; std::_Generic_error_category::`RTTI Base Class Array'
	DD	imagerel ??_R1A@?0A@EA@error_category@std@@8
	ORG $+3
rdata$r	ENDS
;	COMDAT ?_Min_buckets@?$_Hash@V?$_Uset_traits@PEAUTransform@@V?$_Uhash_compare@PEAUTransform@@U?$hash@PEAUTransform@@@std@@U?$equal_to@PEAUTransform@@@3@@std@@V?$allocator@PEAUTransform@@@3@$0A@@std@@@std@@2_KB
CONST	SEGMENT
?_Min_buckets@?$_Hash@V?$_Uset_traits@PEAUTransform@@V?$_Uhash_compare@PEAUTransform@@U?$hash@PEAUTransform@@@std@@U?$equal_to@PEAUTransform@@@3@@std@@V?$allocator@PEAUTransform@@@3@$0A@@std@@@std@@2_KB DQ 0000000000000008H ; std::_Hash<std::_Uset_traits<Transform *,std::_Uhash_compare<Transform *,std::hash<Transform *>,std::equal_to<Transform *> >,std::allocator<Transform *>,0> >::_Min_buckets
CONST	ENDS
;	COMDAT ?_Extended_Pictographic_property_data@std@@3U?$_Unicode_property_data@W4_Extended_Pictographic_property_values@std@@$0EO@@1@B
CONST	SEGMENT
?_Extended_Pictographic_property_data@std@@3U?$_Unicode_property_data@W4_Extended_Pictographic_property_values@std@@$0EO@@1@B DD 0a9H ; std::_Extended_Pictographic_property_data
	DD	0aeH
	DD	0203cH
	DD	02049H
	DD	02122H
	DD	02139H
	DD	02194H
	DD	021a9H
	DD	0231aH
	DD	02328H
	DD	02388H
	DD	023cfH
	DD	023e9H
	DD	023f8H
	DD	024c2H
	DD	025aaH
	DD	025b6H
	DD	025c0H
	DD	025fbH
	DD	02600H
	DD	02607H
	DD	02614H
	DD	02690H
	DD	02708H
	DD	02714H
	DD	02716H
	DD	0271dH
	DD	02721H
	DD	02728H
	DD	02733H
	DD	02744H
	DD	02747H
	DD	0274cH
	DD	0274eH
	DD	02753H
	DD	02757H
	DD	02763H
	DD	02795H
	DD	027a1H
	DD	027b0H
	DD	027bfH
	DD	02934H
	DD	02b05H
	DD	02b1bH
	DD	02b50H
	DD	02b55H
	DD	03030H
	DD	0303dH
	DD	03297H
	DD	03299H
	DD	01f000H
	DD	01f10dH
	DD	01f12fH
	DD	01f16cH
	DD	01f17eH
	DD	01f18eH
	DD	01f191H
	DD	01f1adH
	DD	01f201H
	DD	01f21aH
	DD	01f22fH
	DD	01f232H
	DD	01f23cH
	DD	01f249H
	DD	01f400H
	DD	01f546H
	DD	01f680H
	DD	01f774H
	DD	01f7d5H
	DD	01f80cH
	DD	01f848H
	DD	01f85aH
	DD	01f888H
	DD	01f8aeH
	DD	01f90cH
	DD	01f93cH
	DD	01f947H
	DD	01fc00H
	DW	01H
	DW	01H
	DW	01H
	DW	01H
	DW	01H
	DW	01H
	DW	06H
	DW	02H
	DW	02H
	DW	01H
	DW	01H
	DW	01H
	DW	0bH
	DW	03H
	DW	01H
	DW	02H
	DW	01H
	DW	01H
	DW	04H
	DW	06H
	DW	0cH
	DW	072H
	DW	076H
	DW	0bH
	DW	01H
	DW	01H
	DW	01H
	DW	01H
	DW	01H
	DW	02H
	DW	01H
	DW	01H
	DW	01H
	DW	01H
	DW	03H
	DW	01H
	DW	05H
	DW	03H
	DW	01H
	DW	01H
	DW	01H
	DW	02H
	DW	03H
	DW	02H
	DW	01H
	DW	01H
	DW	01H
	DW	01H
	DW	01H
	DW	01H
	DW	0100H
	DW	03H
	DW	01H
	DW	06H
	DW	02H
	DW	01H
	DW	0aH
	DW	039H
	DW	0fH
	DW	01H
	DW	01H
	DW	09H
	DW	04H
	DW	01b2H
	DW	013eH
	DW	010aH
	DW	080H
	DW	0cH
	DW	02bH
	DW	04H
	DW	08H
	DW	06H
	DW	08H
	DW	052H
	DW	02fH
	DW	0aH
	DW	01b9H
	DW	03feH
CONST	ENDS
;	COMDAT ?piecewise_construct@std@@3Upiecewise_construct_t@1@B
CONST	SEGMENT
?piecewise_construct@std@@3Upiecewise_construct_t@1@B	ORG $+1 ; std::piecewise_construct
CONST	ENDS
;	COMDAT ?__FLOAT_POW5_SPLIT@std@@3QB_KB
CONST	SEGMENT
?__FLOAT_POW5_SPLIT@std@@3QB_KB DQ 1000000000000000H	; std::__FLOAT_POW5_SPLIT
	DQ	1400000000000000H
	DQ	1900000000000000H
	DQ	1f40000000000000H
	DQ	1388000000000000H
	DQ	186a000000000000H
	DQ	1e84800000000000H
	DQ	1312d00000000000H
	DQ	17d7840000000000H
	DQ	1dcd650000000000H
	DQ	12a05f2000000000H
	DQ	174876e800000000H
	DQ	1d1a94a200000000H
	DQ	12309ce540000000H
	DQ	16bcc41e90000000H
	DQ	1c6bf52634000000H
	DQ	11c37937e0800000H
	DQ	16345785d8a00000H
	DQ	1bc16d674ec80000H
	DQ	1158e460913d0000H
	DQ	15af1d78b58c4000H
	DQ	1b1ae4d6e2ef5000H
	DQ	10f0cf064dd59200H
	DQ	152d02c7e14af680H
	DQ	1a784379d99db420H
	DQ	108b2a2c28029094H
	DQ	14adf4b7320334b9H
	DQ	19d971e4fe8401e7H
	DQ	1027e72f1f128130H
	DQ	1431e0fae6d7217cH
	DQ	193e5939a08ce9dbH
	DQ	1f8def8808b02452H
	DQ	13b8b5b5056e16b3H
	DQ	18a6e32246c99c60H
	DQ	1ed09bead87c0378H
	DQ	13426172c74d822bH
	DQ	1812f9cf7920e2b6H
	DQ	1e17b84357691b64H
	DQ	12ced32a16a1b11eH
	DQ	178287f49c4a1d66H
	DQ	1d6329f1c35ca4bfH
	DQ	125dfa371a19e6f7H
	DQ	16f578c4e0a060b5H
	DQ	1cb2d6f618c878e3H
	DQ	11efc659cf7d4b8dH
	DQ	166bb7f0435c9e71H
	DQ	1c06a5ec5433c60dH
CONST	ENDS
;	COMDAT ?_Width_estimate_intervals@std@@3QB_UB
CONST	SEGMENT
?_Width_estimate_intervals@std@@3QB_UB DD 01100H	; std::_Width_estimate_intervals
	DD	01160H
	DD	02329H
	DD	0232bH
	DD	02e80H
	DD	0303fH
	DD	03040H
	DD	0a4d0H
	DD	0ac00H
	DD	0d7a4H
	DD	0f900H
	DD	0fb00H
	DD	0fe10H
	DD	0fe1aH
	DD	0fe30H
	DD	0fe70H
	DD	0ff00H
	DD	0ff61H
	DD	0ffe0H
	DD	0ffe7H
	DD	01f300H
	DD	01f650H
	DD	01f900H
	DD	01fa00H
	DD	020000H
	DD	02fffeH
	DD	030000H
	DD	03fffeH
CONST	ENDS
;	COMDAT ?_Charconv_digits@std@@3QBDB
CONST	SEGMENT
?_Charconv_digits@std@@3QBDB DB 030H			; std::_Charconv_digits
	DB	031H
	DB	032H
	DB	033H
	DB	034H
	DB	035H
	DB	036H
	DB	037H
	DB	038H
	DB	039H
	DB	061H
	DB	062H
	DB	063H
	DB	064H
	DB	065H
	DB	066H
	DB	067H
	DB	068H
	DB	069H
	DB	06aH
	DB	06bH
	DB	06cH
	DB	06dH
	DB	06eH
	DB	06fH
	DB	070H
	DB	071H
	DB	072H
	DB	073H
	DB	074H
	DB	075H
	DB	076H
	DB	077H
	DB	078H
	DB	079H
	DB	07aH
CONST	ENDS
;	COMDAT ?__MIN_BLOCK_2@std@@3QBEB
CONST	SEGMENT
?__MIN_BLOCK_2@std@@3QBEB DB 00H			; std::__MIN_BLOCK_2
	DB	00H
	DB	00H
	DB	00H
	DB	00H
	DB	00H
	DB	01H
	DB	01H
	DB	02H
	DB	03H
	DB	03H
	DB	04H
	DB	04H
	DB	05H
	DB	05H
	DB	06H
	DB	06H
	DB	07H
	DB	07H
	DB	08H
	DB	08H
	DB	09H
	DB	09H
	DB	0aH
	DB	0bH
	DB	0bH
	DB	0cH
	DB	0cH
	DB	0dH
	DB	0dH
	DB	0eH
	DB	0eH
	DB	0fH
	DB	0fH
	DB	010H
	DB	010H
	DB	011H
	DB	011H
	DB	012H
	DB	013H
	DB	013H
	DB	014H
	DB	014H
	DB	015H
	DB	015H
	DB	016H
	DB	016H
	DB	017H
	DB	017H
	DB	018H
	DB	018H
	DB	019H
	DB	01aH
	DB	01aH
	DB	01bH
	DB	01bH
	DB	01cH
	DB	01cH
	DB	01dH
	DB	01dH
	DB	01eH
	DB	01eH
	DB	01fH
	DB	01fH
	DB	020H
	DB	020H
	DB	021H
	DB	022H
	DB	00H
CONST	ENDS
;	COMDAT ?_Grapheme_Break_property_data@std@@3U?$_Unicode_property_data@W4_Grapheme_Break_property_values@std@@$0FEL@@1@B
CONST	SEGMENT
?_Grapheme_Break_property_data@std@@3U?$_Unicode_property_data@W4_Grapheme_Break_property_values@std@@$0FEL@@1@B DD 00H ; std::_Grapheme_Break_property_data
	DD	0aH
	DD	0bH
	DD	0dH
	DD	0eH
	DD	07fH
	DD	0adH
	DD	0300H
	DD	0483H
	DD	0591H
	DD	05bfH
	DD	05c1H
	DD	05c4H
	DD	05c7H
	DD	0600H
	DD	0610H
	DD	061cH
	DD	064bH
	DD	0670H
	DD	06d6H
	DD	06ddH
	DD	06dfH
	DD	06e7H
	DD	06eaH
	DD	070fH
	DD	0711H
	DD	0730H
	DD	07a6H
	DD	07ebH
	DD	07fdH
	DD	0816H
	DD	081bH
	DD	0825H
	DD	0829H
	DD	0859H
	DD	0890H
	DD	0898H
	DD	08caH
	DD	08e2H
	DD	08e3H
	DD	0903H
	DD	093aH
	DD	093bH
	DD	093cH
	DD	093eH
	DD	0941H
	DD	0949H
	DD	094dH
	DD	094eH
	DD	0951H
	DD	0962H
	DD	0981H
	DD	0982H
	DD	09bcH
	DD	09beH
	DD	09bfH
	DD	09c1H
	DD	09c7H
	DD	09cbH
	DD	09cdH
	DD	09d7H
	DD	09e2H
	DD	09feH
	DD	0a01H
	DD	0a03H
	DD	0a3cH
	DD	0a3eH
	DD	0a41H
	DD	0a47H
	DD	0a4bH
	DD	0a51H
	DD	0a70H
	DD	0a75H
	DD	0a81H
	DD	0a83H
	DD	0abcH
	DD	0abeH
	DD	0ac1H
	DD	0ac7H
	DD	0ac9H
	DD	0acbH
	DD	0acdH
	DD	0ae2H
	DD	0afaH
	DD	0b01H
	DD	0b02H
	DD	0b3cH
	DD	0b3eH
	DD	0b40H
	DD	0b41H
	DD	0b47H
	DD	0b4bH
	DD	0b4dH
	DD	0b55H
	DD	0b62H
	DD	0b82H
	DD	0bbeH
	DD	0bbfH
	DD	0bc0H
	DD	0bc1H
	DD	0bc6H
	DD	0bcaH
	DD	0bcdH
	DD	0bd7H
	DD	0c00H
	DD	0c01H
	DD	0c04H
	DD	0c3cH
	DD	0c3eH
	DD	0c41H
	DD	0c46H
	DD	0c4aH
	DD	0c55H
	DD	0c62H
	DD	0c81H
	DD	0c82H
	DD	0cbcH
	DD	0cbeH
	DD	0cbfH
	DD	0cc0H
	DD	0cc2H
	DD	0cc3H
	DD	0cc6H
	DD	0cc7H
	DD	0ccaH
	DD	0cccH
	DD	0cd5H
	DD	0ce2H
	DD	0d00H
	DD	0d02H
	DD	0d3bH
	DD	0d3eH
	DD	0d3fH
	DD	0d41H
	DD	0d46H
	DD	0d4aH
	DD	0d4dH
	DD	0d4eH
	DD	0d57H
	DD	0d62H
	DD	0d81H
	DD	0d82H
	DD	0dcaH
	DD	0dcfH
	DD	0dd0H
	DD	0dd2H
	DD	0dd6H
	DD	0dd8H
	DD	0ddfH
	DD	0df2H
	DD	0e31H
	DD	0e33H
	DD	0e34H
	DD	0e47H
	DD	0eb1H
	DD	0eb3H
	DD	0eb4H
	DD	0ec8H
	DD	0f18H
	DD	0f35H
	DD	0f37H
	DD	0f39H
	DD	0f3eH
	DD	0f71H
	DD	0f7fH
	DD	0f80H
	DD	0f86H
	DD	0f8dH
	DD	0f99H
	DD	0fc6H
	DD	0102dH
	DD	01031H
	DD	01032H
	DD	01039H
	DD	0103bH
	DD	0103dH
	DD	01056H
	DD	01058H
	DD	0105eH
	DD	01071H
	DD	01082H
	DD	01084H
	DD	01085H
	DD	0108dH
	DD	0109dH
	DD	01100H
	DD	01160H
	DD	011a8H
	DD	0135dH
	DD	01712H
	DD	01715H
	DD	01732H
	DD	01734H
	DD	01752H
	DD	01772H
	DD	017b4H
	DD	017b6H
	DD	017b7H
	DD	017beH
	DD	017c6H
	DD	017c7H
	DD	017c9H
	DD	017ddH
	DD	0180bH
	DD	0180eH
	DD	0180fH
	DD	01885H
	DD	018a9H
	DD	01920H
	DD	01923H
	DD	01927H
	DD	01929H
	DD	01930H
	DD	01932H
	DD	01933H
	DD	01939H
	DD	01a17H
	DD	01a19H
	DD	01a1bH
	DD	01a55H
	DD	01a56H
	DD	01a57H
	DD	01a58H
	DD	01a60H
	DD	01a62H
	DD	01a65H
	DD	01a6dH
	DD	01a73H
	DD	01a7fH
	DD	01ab0H
	DD	01b00H
	DD	01b04H
	DD	01b34H
	DD	01b3bH
	DD	01b3cH
	DD	01b3dH
	DD	01b42H
	DD	01b43H
	DD	01b6bH
	DD	01b80H
	DD	01b82H
	DD	01ba1H
	DD	01ba2H
	DD	01ba6H
	DD	01ba8H
	DD	01baaH
	DD	01babH
	DD	01be6H
	DD	01be7H
	DD	01be8H
	DD	01beaH
	DD	01bedH
	DD	01beeH
	DD	01befH
	DD	01bf2H
	DD	01c24H
	DD	01c2cH
	DD	01c34H
	DD	01c36H
	DD	01cd0H
	DD	01cd4H
	DD	01ce1H
	DD	01ce2H
	DD	01cedH
	DD	01cf4H
	DD	01cf7H
	DD	01cf8H
	DD	01dc0H
	DD	0200bH
	DD	0200cH
	DD	0200dH
	DD	0200eH
	DD	02028H
	DD	02060H
	DD	020d0H
	DD	02cefH
	DD	02d7fH
	DD	02de0H
	DD	0302aH
	DD	03099H
	DD	0a66fH
	DD	0a674H
	DD	0a69eH
	DD	0a6f0H
	DD	0a802H
	DD	0a806H
	DD	0a80bH
	DD	0a823H
	DD	0a825H
	DD	0a827H
	DD	0a82cH
	DD	0a880H
	DD	0a8b4H
	DD	0a8c4H
	DD	0a8e0H
	DD	0a8ffH
	DD	0a926H
	DD	0a947H
	DD	0a952H
	DD	0a960H
	DD	0a980H
	DD	0a983H
	DD	0a9b3H
	DD	0a9b4H
	DD	0a9b6H
	DD	0a9baH
	DD	0a9bcH
	DD	0a9beH
	DD	0a9e5H
	DD	0aa29H
	DD	0aa2fH
	DD	0aa31H
	DD	0aa33H
	DD	0aa35H
	DD	0aa43H
	DD	0aa4cH
	DD	0aa4dH
	DD	0aa7cH
	DD	0aab0H
	DD	0aab2H
	DD	0aab7H
	DD	0aabeH
	DD	0aac1H
	DD	0aaebH
	DD	0aaecH
	DD	0aaeeH
	DD	0aaf5H
	DD	0aaf6H
	DD	0abe3H
	DD	0abe5H
	DD	0abe6H
	DD	0abe8H
	DD	0abe9H
	DD	0abecH
	DD	0abedH
	DD	0ac00H
	DD	0ac01H
	DD	0ac1cH
	DD	0ac1dH
	DD	0ac38H
	DD	0ac39H
	DD	0ac54H
	DD	0ac55H
	DD	0ac70H
	DD	0ac71H
	DD	0ac8cH
	DD	0ac8dH
	DD	0aca8H
	DD	0aca9H
	DD	0acc4H
	DD	0acc5H
	DD	0ace0H
	DD	0ace1H
	DD	0acfcH
	DD	0acfdH
	DD	0ad18H
	DD	0ad19H
	DD	0ad34H
	DD	0ad35H
	DD	0ad50H
	DD	0ad51H
	DD	0ad6cH
	DD	0ad6dH
	DD	0ad88H
	DD	0ad89H
	DD	0ada4H
	DD	0ada5H
	DD	0adc0H
	DD	0adc1H
	DD	0addcH
	DD	0adddH
	DD	0adf8H
	DD	0adf9H
	DD	0ae14H
	DD	0ae15H
	DD	0ae30H
	DD	0ae31H
	DD	0ae4cH
	DD	0ae4dH
	DD	0ae68H
	DD	0ae69H
	DD	0ae84H
	DD	0ae85H
	DD	0aea0H
	DD	0aea1H
	DD	0aebcH
	DD	0aebdH
	DD	0aed8H
	DD	0aed9H
	DD	0aef4H
	DD	0aef5H
	DD	0af10H
	DD	0af11H
	DD	0af2cH
	DD	0af2dH
	DD	0af48H
	DD	0af49H
	DD	0af64H
	DD	0af65H
	DD	0af80H
	DD	0af81H
	DD	0af9cH
	DD	0af9dH
	DD	0afb8H
	DD	0afb9H
	DD	0afd4H
	DD	0afd5H
	DD	0aff0H
	DD	0aff1H
	DD	0b00cH
	DD	0b00dH
	DD	0b028H
	DD	0b029H
	DD	0b044H
	DD	0b045H
	DD	0b060H
	DD	0b061H
	DD	0b07cH
	DD	0b07dH
	DD	0b098H
	DD	0b099H
	DD	0b0b4H
	DD	0b0b5H
	DD	0b0d0H
	DD	0b0d1H
	DD	0b0ecH
	DD	0b0edH
	DD	0b108H
	DD	0b109H
	DD	0b124H
	DD	0b125H
	DD	0b140H
	DD	0b141H
	DD	0b15cH
	DD	0b15dH
	DD	0b178H
	DD	0b179H
	DD	0b194H
	DD	0b195H
	DD	0b1b0H
	DD	0b1b1H
	DD	0b1ccH
	DD	0b1cdH
	DD	0b1e8H
	DD	0b1e9H
	DD	0b204H
	DD	0b205H
	DD	0b220H
	DD	0b221H
	DD	0b23cH
	DD	0b23dH
	DD	0b258H
	DD	0b259H
	DD	0b274H
	DD	0b275H
	DD	0b290H
	DD	0b291H
	DD	0b2acH
	DD	0b2adH
	DD	0b2c8H
	DD	0b2c9H
	DD	0b2e4H
	DD	0b2e5H
	DD	0b300H
	DD	0b301H
	DD	0b31cH
	DD	0b31dH
	DD	0b338H
	DD	0b339H
	DD	0b354H
	DD	0b355H
	DD	0b370H
	DD	0b371H
	DD	0b38cH
	DD	0b38dH
	DD	0b3a8H
	DD	0b3a9H
	DD	0b3c4H
	DD	0b3c5H
	DD	0b3e0H
	DD	0b3e1H
	DD	0b3fcH
	DD	0b3fdH
	DD	0b418H
	DD	0b419H
	DD	0b434H
	DD	0b435H
	DD	0b450H
	DD	0b451H
	DD	0b46cH
	DD	0b46dH
	DD	0b488H
	DD	0b489H
	DD	0b4a4H
	DD	0b4a5H
	DD	0b4c0H
	DD	0b4c1H
	DD	0b4dcH
	DD	0b4ddH
	DD	0b4f8H
	DD	0b4f9H
	DD	0b514H
	DD	0b515H
	DD	0b530H
	DD	0b531H
	DD	0b54cH
	DD	0b54dH
	DD	0b568H
	DD	0b569H
	DD	0b584H
	DD	0b585H
	DD	0b5a0H
	DD	0b5a1H
	DD	0b5bcH
	DD	0b5bdH
	DD	0b5d8H
	DD	0b5d9H
	DD	0b5f4H
	DD	0b5f5H
	DD	0b610H
	DD	0b611H
	DD	0b62cH
	DD	0b62dH
	DD	0b648H
	DD	0b649H
	DD	0b664H
	DD	0b665H
	DD	0b680H
	DD	0b681H
	DD	0b69cH
	DD	0b69dH
	DD	0b6b8H
	DD	0b6b9H
	DD	0b6d4H
	DD	0b6d5H
	DD	0b6f0H
	DD	0b6f1H
	DD	0b70cH
	DD	0b70dH
	DD	0b728H
	DD	0b729H
	DD	0b744H
	DD	0b745H
	DD	0b760H
	DD	0b761H
	DD	0b77cH
	DD	0b77dH
	DD	0b798H
	DD	0b799H
	DD	0b7b4H
	DD	0b7b5H
	DD	0b7d0H
	DD	0b7d1H
	DD	0b7ecH
	DD	0b7edH
	DD	0b808H
	DD	0b809H
	DD	0b824H
	DD	0b825H
	DD	0b840H
	DD	0b841H
	DD	0b85cH
	DD	0b85dH
	DD	0b878H
	DD	0b879H
	DD	0b894H
	DD	0b895H
	DD	0b8b0H
	DD	0b8b1H
	DD	0b8ccH
	DD	0b8cdH
	DD	0b8e8H
	DD	0b8e9H
	DD	0b904H
	DD	0b905H
	DD	0b920H
	DD	0b921H
	DD	0b93cH
	DD	0b93dH
	DD	0b958H
	DD	0b959H
	DD	0b974H
	DD	0b975H
	DD	0b990H
	DD	0b991H
	DD	0b9acH
	DD	0b9adH
	DD	0b9c8H
	DD	0b9c9H
	DD	0b9e4H
	DD	0b9e5H
	DD	0ba00H
	DD	0ba01H
	DD	0ba1cH
	DD	0ba1dH
	DD	0ba38H
	DD	0ba39H
	DD	0ba54H
	DD	0ba55H
	DD	0ba70H
	DD	0ba71H
	DD	0ba8cH
	DD	0ba8dH
	DD	0baa8H
	DD	0baa9H
	DD	0bac4H
	DD	0bac5H
	DD	0bae0H
	DD	0bae1H
	DD	0bafcH
	DD	0bafdH
	DD	0bb18H
	DD	0bb19H
	DD	0bb34H
	DD	0bb35H
	DD	0bb50H
	DD	0bb51H
	DD	0bb6cH
	DD	0bb6dH
	DD	0bb88H
	DD	0bb89H
	DD	0bba4H
	DD	0bba5H
	DD	0bbc0H
	DD	0bbc1H
	DD	0bbdcH
	DD	0bbddH
	DD	0bbf8H
	DD	0bbf9H
	DD	0bc14H
	DD	0bc15H
	DD	0bc30H
	DD	0bc31H
	DD	0bc4cH
	DD	0bc4dH
	DD	0bc68H
	DD	0bc69H
	DD	0bc84H
	DD	0bc85H
	DD	0bca0H
	DD	0bca1H
	DD	0bcbcH
	DD	0bcbdH
	DD	0bcd8H
	DD	0bcd9H
	DD	0bcf4H
	DD	0bcf5H
	DD	0bd10H
	DD	0bd11H
	DD	0bd2cH
	DD	0bd2dH
	DD	0bd48H
	DD	0bd49H
	DD	0bd64H
	DD	0bd65H
	DD	0bd80H
	DD	0bd81H
	DD	0bd9cH
	DD	0bd9dH
	DD	0bdb8H
	DD	0bdb9H
	DD	0bdd4H
	DD	0bdd5H
	DD	0bdf0H
	DD	0bdf1H
	DD	0be0cH
	DD	0be0dH
	DD	0be28H
	DD	0be29H
	DD	0be44H
	DD	0be45H
	DD	0be60H
	DD	0be61H
	DD	0be7cH
	DD	0be7dH
	DD	0be98H
	DD	0be99H
	DD	0beb4H
	DD	0beb5H
	DD	0bed0H
	DD	0bed1H
	DD	0beecH
	DD	0beedH
	DD	0bf08H
	DD	0bf09H
	DD	0bf24H
	DD	0bf25H
	DD	0bf40H
	DD	0bf41H
	DD	0bf5cH
	DD	0bf5dH
	DD	0bf78H
	DD	0bf79H
	DD	0bf94H
	DD	0bf95H
	DD	0bfb0H
	DD	0bfb1H
	DD	0bfccH
	DD	0bfcdH
	DD	0bfe8H
	DD	0bfe9H
	DD	0c004H
	DD	0c005H
	DD	0c020H
	DD	0c021H
	DD	0c03cH
	DD	0c03dH
	DD	0c058H
	DD	0c059H
	DD	0c074H
	DD	0c075H
	DD	0c090H
	DD	0c091H
	DD	0c0acH
	DD	0c0adH
	DD	0c0c8H
	DD	0c0c9H
	DD	0c0e4H
	DD	0c0e5H
	DD	0c100H
	DD	0c101H
	DD	0c11cH
	DD	0c11dH
	DD	0c138H
	DD	0c139H
	DD	0c154H
	DD	0c155H
	DD	0c170H
	DD	0c171H
	DD	0c18cH
	DD	0c18dH
	DD	0c1a8H
	DD	0c1a9H
	DD	0c1c4H
	DD	0c1c5H
	DD	0c1e0H
	DD	0c1e1H
	DD	0c1fcH
	DD	0c1fdH
	DD	0c218H
	DD	0c219H
	DD	0c234H
	DD	0c235H
	DD	0c250H
	DD	0c251H
	DD	0c26cH
	DD	0c26dH
	DD	0c288H
	DD	0c289H
	DD	0c2a4H
	DD	0c2a5H
	DD	0c2c0H
	DD	0c2c1H
	DD	0c2dcH
	DD	0c2ddH
	DD	0c2f8H
	DD	0c2f9H
	DD	0c314H
	DD	0c315H
	DD	0c330H
	DD	0c331H
	DD	0c34cH
	DD	0c34dH
	DD	0c368H
	DD	0c369H
	DD	0c384H
	DD	0c385H
	DD	0c3a0H
	DD	0c3a1H
	DD	0c3bcH
	DD	0c3bdH
	DD	0c3d8H
	DD	0c3d9H
	DD	0c3f4H
	DD	0c3f5H
	DD	0c410H
	DD	0c411H
	DD	0c42cH
	DD	0c42dH
	DD	0c448H
	DD	0c449H
	DD	0c464H
	DD	0c465H
	DD	0c480H
	DD	0c481H
	DD	0c49cH
	DD	0c49dH
	DD	0c4b8H
	DD	0c4b9H
	DD	0c4d4H
	DD	0c4d5H
	DD	0c4f0H
	DD	0c4f1H
	DD	0c50cH
	DD	0c50dH
	DD	0c528H
	DD	0c529H
	DD	0c544H
	DD	0c545H
	DD	0c560H
	DD	0c561H
	DD	0c57cH
	DD	0c57dH
	DD	0c598H
	DD	0c599H
	DD	0c5b4H
	DD	0c5b5H
	DD	0c5d0H
	DD	0c5d1H
	DD	0c5ecH
	DD	0c5edH
	DD	0c608H
	DD	0c609H
	DD	0c624H
	DD	0c625H
	DD	0c640H
	DD	0c641H
	DD	0c65cH
	DD	0c65dH
	DD	0c678H
	DD	0c679H
	DD	0c694H
	DD	0c695H
	DD	0c6b0H
	DD	0c6b1H
	DD	0c6ccH
	DD	0c6cdH
	DD	0c6e8H
	DD	0c6e9H
	DD	0c704H
	DD	0c705H
	DD	0c720H
	DD	0c721H
	DD	0c73cH
	DD	0c73dH
	DD	0c758H
	DD	0c759H
	DD	0c774H
	DD	0c775H
	DD	0c790H
	DD	0c791H
	DD	0c7acH
	DD	0c7adH
	DD	0c7c8H
	DD	0c7c9H
	DD	0c7e4H
	DD	0c7e5H
	DD	0c800H
	DD	0c801H
	DD	0c81cH
	DD	0c81dH
	DD	0c838H
	DD	0c839H
	DD	0c854H
	DD	0c855H
	DD	0c870H
	DD	0c871H
	DD	0c88cH
	DD	0c88dH
	DD	0c8a8H
	DD	0c8a9H
	DD	0c8c4H
	DD	0c8c5H
	DD	0c8e0H
	DD	0c8e1H
	DD	0c8fcH
	DD	0c8fdH
	DD	0c918H
	DD	0c919H
	DD	0c934H
	DD	0c935H
	DD	0c950H
	DD	0c951H
	DD	0c96cH
	DD	0c96dH
	DD	0c988H
	DD	0c989H
	DD	0c9a4H
	DD	0c9a5H
	DD	0c9c0H
	DD	0c9c1H
	DD	0c9dcH
	DD	0c9ddH
	DD	0c9f8H
	DD	0c9f9H
	DD	0ca14H
	DD	0ca15H
	DD	0ca30H
	DD	0ca31H
	DD	0ca4cH
	DD	0ca4dH
	DD	0ca68H
	DD	0ca69H
	DD	0ca84H
	DD	0ca85H
	DD	0caa0H
	DD	0caa1H
	DD	0cabcH
	DD	0cabdH
	DD	0cad8H
	DD	0cad9H
	DD	0caf4H
	DD	0caf5H
	DD	0cb10H
	DD	0cb11H
	DD	0cb2cH
	DD	0cb2dH
	DD	0cb48H
	DD	0cb49H
	DD	0cb64H
	DD	0cb65H
	DD	0cb80H
	DD	0cb81H
	DD	0cb9cH
	DD	0cb9dH
	DD	0cbb8H
	DD	0cbb9H
	DD	0cbd4H
	DD	0cbd5H
	DD	0cbf0H
	DD	0cbf1H
	DD	0cc0cH
	DD	0cc0dH
	DD	0cc28H
	DD	0cc29H
	DD	0cc44H
	DD	0cc45H
	DD	0cc60H
	DD	0cc61H
	DD	0cc7cH
	DD	0cc7dH
	DD	0cc98H
	DD	0cc99H
	DD	0ccb4H
	DD	0ccb5H
	DD	0ccd0H
	DD	0ccd1H
	DD	0ccecH
	DD	0ccedH
	DD	0cd08H
	DD	0cd09H
	DD	0cd24H
	DD	0cd25H
	DD	0cd40H
	DD	0cd41H
	DD	0cd5cH
	DD	0cd5dH
	DD	0cd78H
	DD	0cd79H
	DD	0cd94H
	DD	0cd95H
	DD	0cdb0H
	DD	0cdb1H
	DD	0cdccH
	DD	0cdcdH
	DD	0cde8H
	DD	0cde9H
	DD	0ce04H
	DD	0ce05H
	DD	0ce20H
	DD	0ce21H
	DD	0ce3cH
	DD	0ce3dH
	DD	0ce58H
	DD	0ce59H
	DD	0ce74H
	DD	0ce75H
	DD	0ce90H
	DD	0ce91H
	DD	0ceacH
	DD	0ceadH
	DD	0cec8H
	DD	0cec9H
	DD	0cee4H
	DD	0cee5H
	DD	0cf00H
	DD	0cf01H
	DD	0cf1cH
	DD	0cf1dH
	DD	0cf38H
	DD	0cf39H
	DD	0cf54H
	DD	0cf55H
	DD	0cf70H
	DD	0cf71H
	DD	0cf8cH
	DD	0cf8dH
	DD	0cfa8H
	DD	0cfa9H
	DD	0cfc4H
	DD	0cfc5H
	DD	0cfe0H
	DD	0cfe1H
	DD	0cffcH
	DD	0cffdH
	DD	0d018H
	DD	0d019H
	DD	0d034H
	DD	0d035H
	DD	0d050H
	DD	0d051H
	DD	0d06cH
	DD	0d06dH
	DD	0d088H
	DD	0d089H
	DD	0d0a4H
	DD	0d0a5H
	DD	0d0c0H
	DD	0d0c1H
	DD	0d0dcH
	DD	0d0ddH
	DD	0d0f8H
	DD	0d0f9H
	DD	0d114H
	DD	0d115H
	DD	0d130H
	DD	0d131H
	DD	0d14cH
	DD	0d14dH
	DD	0d168H
	DD	0d169H
	DD	0d184H
	DD	0d185H
	DD	0d1a0H
	DD	0d1a1H
	DD	0d1bcH
	DD	0d1bdH
	DD	0d1d8H
	DD	0d1d9H
	DD	0d1f4H
	DD	0d1f5H
	DD	0d210H
	DD	0d211H
	DD	0d22cH
	DD	0d22dH
	DD	0d248H
	DD	0d249H
	DD	0d264H
	DD	0d265H
	DD	0d280H
	DD	0d281H
	DD	0d29cH
	DD	0d29dH
	DD	0d2b8H
	DD	0d2b9H
	DD	0d2d4H
	DD	0d2d5H
	DD	0d2f0H
	DD	0d2f1H
	DD	0d30cH
	DD	0d30dH
	DD	0d328H
	DD	0d329H
	DD	0d344H
	DD	0d345H
	DD	0d360H
	DD	0d361H
	DD	0d37cH
	DD	0d37dH
	DD	0d398H
	DD	0d399H
	DD	0d3b4H
	DD	0d3b5H
	DD	0d3d0H
	DD	0d3d1H
	DD	0d3ecH
	DD	0d3edH
	DD	0d408H
	DD	0d409H
	DD	0d424H
	DD	0d425H
	DD	0d440H
	DD	0d441H
	DD	0d45cH
	DD	0d45dH
	DD	0d478H
	DD	0d479H
	DD	0d494H
	DD	0d495H
	DD	0d4b0H
	DD	0d4b1H
	DD	0d4ccH
	DD	0d4cdH
	DD	0d4e8H
	DD	0d4e9H
	DD	0d504H
	DD	0d505H
	DD	0d520H
	DD	0d521H
	DD	0d53cH
	DD	0d53dH
	DD	0d558H
	DD	0d559H
	DD	0d574H
	DD	0d575H
	DD	0d590H
	DD	0d591H
	DD	0d5acH
	DD	0d5adH
	DD	0d5c8H
	DD	0d5c9H
	DD	0d5e4H
	DD	0d5e5H
	DD	0d600H
	DD	0d601H
	DD	0d61cH
	DD	0d61dH
	DD	0d638H
	DD	0d639H
	DD	0d654H
	DD	0d655H
	DD	0d670H
	DD	0d671H
	DD	0d68cH
	DD	0d68dH
	DD	0d6a8H
	DD	0d6a9H
	DD	0d6c4H
	DD	0d6c5H
	DD	0d6e0H
	DD	0d6e1H
	DD	0d6fcH
	DD	0d6fdH
	DD	0d718H
	DD	0d719H
	DD	0d734H
	DD	0d735H
	DD	0d750H
	DD	0d751H
	DD	0d76cH
	DD	0d76dH
	DD	0d788H
	DD	0d789H
	DD	0d7b0H
	DD	0d7cbH
	DD	0fb1eH
	DD	0fe00H
	DD	0fe20H
	DD	0feffH
	DD	0ff9eH
	DD	0fff0H
	DD	0101fdH
	DD	0102e0H
	DD	010376H
	DD	010a01H
	DD	010a05H
	DD	010a0cH
	DD	010a38H
	DD	010a3fH
	DD	010ae5H
	DD	010d24H
	DD	010eabH
	DD	010f46H
	DD	010f82H
	DD	011000H
	DD	011001H
	DD	011002H
	DD	011038H
	DD	011070H
	DD	011073H
	DD	01107fH
	DD	011082H
	DD	0110b0H
	DD	0110b3H
	DD	0110b7H
	DD	0110b9H
	DD	0110bdH
	DD	0110c2H
	DD	0110cdH
	DD	011100H
	DD	011127H
	DD	01112cH
	DD	01112dH
	DD	011145H
	DD	011173H
	DD	011180H
	DD	011182H
	DD	0111b3H
	DD	0111b6H
	DD	0111bfH
	DD	0111c2H
	DD	0111c9H
	DD	0111ceH
	DD	0111cfH
	DD	01122cH
	DD	01122fH
	DD	011232H
	DD	011234H
	DD	011235H
	DD	011236H
	DD	01123eH
	DD	0112dfH
	DD	0112e0H
	DD	0112e3H
	DD	011300H
	DD	011302H
	DD	01133bH
	DD	01133eH
	DD	01133fH
	DD	011340H
	DD	011341H
	DD	011347H
	DD	01134bH
	DD	011357H
	DD	011362H
	DD	011366H
	DD	011370H
	DD	011435H
	DD	011438H
	DD	011440H
	DD	011442H
	DD	011445H
	DD	011446H
	DD	01145eH
	DD	0114b0H
	DD	0114b1H
	DD	0114b3H
	DD	0114b9H
	DD	0114baH
	DD	0114bbH
	DD	0114bdH
	DD	0114beH
	DD	0114bfH
	DD	0114c1H
	DD	0114c2H
	DD	0115afH
	DD	0115b0H
	DD	0115b2H
	DD	0115b8H
	DD	0115bcH
	DD	0115beH
	DD	0115bfH
	DD	0115dcH
	DD	011630H
	DD	011633H
	DD	01163bH
	DD	01163dH
	DD	01163eH
	DD	01163fH
	DD	0116abH
	DD	0116acH
	DD	0116adH
	DD	0116aeH
	DD	0116b0H
	DD	0116b6H
	DD	0116b7H
	DD	01171dH
	DD	011722H
	DD	011726H
	DD	011727H
	DD	01182cH
	DD	01182fH
	DD	011838H
	DD	011839H
	DD	011930H
	DD	011931H
	DD	011937H
	DD	01193bH
	DD	01193dH
	DD	01193eH
	DD	01193fH
	DD	011940H
	DD	011941H
	DD	011942H
	DD	011943H
	DD	0119d1H
	DD	0119d4H
	DD	0119daH
	DD	0119dcH
	DD	0119e0H
	DD	0119e4H
	DD	011a01H
	DD	011a33H
	DD	011a39H
	DD	011a3aH
	DD	011a3bH
	DD	011a47H
	DD	011a51H
	DD	011a57H
	DD	011a59H
	DD	011a84H
	DD	011a8aH
	DD	011a97H
	DD	011a98H
	DD	011c2fH
	DD	011c30H
	DD	011c38H
	DD	011c3eH
	DD	011c3fH
	DD	011c92H
	DD	011ca9H
	DD	011caaH
	DD	011cb1H
	DD	011cb2H
	DD	011cb4H
	DD	011cb5H
	DD	011d31H
	DD	011d3aH
	DD	011d3cH
	DD	011d3fH
	DD	011d46H
	DD	011d47H
	DD	011d8aH
	DD	011d90H
	DD	011d93H
	DD	011d95H
	DD	011d96H
	DD	011d97H
	DD	011ef3H
	DD	011ef5H
	DD	013430H
	DD	016af0H
	DD	016b30H
	DD	016f4fH
	DD	016f51H
	DD	016f8fH
	DD	016fe4H
	DD	016ff0H
	DD	01bc9dH
	DD	01bca0H
	DD	01cf00H
	DD	01cf30H
	DD	01d165H
	DD	01d166H
	DD	01d167H
	DD	01d16dH
	DD	01d16eH
	DD	01d173H
	DD	01d17bH
	DD	01d185H
	DD	01d1aaH
	DD	01d242H
	DD	01da00H
	DD	01da3bH
	DD	01da75H
	DD	01da84H
	DD	01da9bH
	DD	01daa1H
	DD	01e000H
	DD	01e008H
	DD	01e01bH
	DD	01e023H
	DD	01e026H
	DD	01e130H
	DD	01e2aeH
	DD	01e2ecH
	DD	01e8d0H
	DD	01e944H
	DD	01f1e6H
	DD	01f3fbH
	DD	0e0000H
	DD	0e0020H
	DD	0e0080H
	DD	0e0100H
	DD	0e01f0H
	DW	0100aH
	DW	04001H
	DW	01002H
	DW	01H
	DW	01012H
	DW	01021H
	DW	01001H
	DW	02070H
	DW	02007H
	DW	0202dH
	DW	02001H
	DW	02002H
	DW	02002H
	DW	02001H
	DW	07006H
	DW	0200bH
	DW	01001H
	DW	02015H
	DW	02001H
	DW	02007H
	DW	07001H
	DW	02006H
	DW	02002H
	DW	02004H
	DW	07001H
	DW	02001H
	DW	0201bH
	DW	0200bH
	DW	02009H
	DW	02001H
	DW	02004H
	DW	02009H
	DW	02003H
	DW	02005H
	DW	02003H
	DW	07002H
	DW	02008H
	DW	02018H
	DW	07001H
	DW	02020H
	DW	09001H
	DW	02001H
	DW	09001H
	DW	02001H
	DW	09003H
	DW	02008H
	DW	09004H
	DW	02001H
	DW	09002H
	DW	02007H
	DW	02002H
	DW	02001H
	DW	09002H
	DW	02001H
	DW	02001H
	DW	09002H
	DW	02004H
	DW	09002H
	DW	09002H
	DW	02001H
	DW	02001H
	DW	02002H
	DW	02001H
	DW	02002H
	DW	09001H
	DW	02001H
	DW	09003H
	DW	02002H
	DW	02002H
	DW	02003H
	DW	02001H
	DW	02002H
	DW	02001H
	DW	02002H
	DW	09001H
	DW	02001H
	DW	09003H
	DW	02005H
	DW	02002H
	DW	09001H
	DW	09002H
	DW	02001H
	DW	02002H
	DW	02006H
	DW	02001H
	DW	09002H
	DW	02001H
	DW	02002H
	DW	09001H
	DW	02004H
	DW	09002H
	DW	09002H
	DW	02001H
	DW	02003H
	DW	02002H
	DW	02001H
	DW	02001H
	DW	09001H
	DW	02001H
	DW	09002H
	DW	09003H
	DW	09003H
	DW	02001H
	DW	02001H
	DW	02001H
	DW	09003H
	DW	02001H
	DW	02001H
	DW	02003H
	DW	09004H
	DW	02003H
	DW	02004H
	DW	02002H
	DW	02002H
	DW	02001H
	DW	09002H
	DW	02001H
	DW	09001H
	DW	02001H
	DW	09002H
	DW	02001H
	DW	09002H
	DW	02001H
	DW	09002H
	DW	09002H
	DW	02002H
	DW	02002H
	DW	02002H
	DW	02002H
	DW	09002H
	DW	02002H
	DW	02001H
	DW	09002H
	DW	02004H
	DW	09003H
	DW	09003H
	DW	02001H
	DW	07001H
	DW	02001H
	DW	02002H
	DW	02001H
	DW	09002H
	DW	02001H
	DW	02001H
	DW	09002H
	DW	02003H
	DW	02001H
	DW	09007H
	DW	02001H
	DW	09002H
	DW	02001H
	DW	09001H
	DW	02007H
	DW	02008H
	DW	02001H
	DW	09001H
	DW	02009H
	DW	02006H
	DW	02002H
	DW	02001H
	DW	02001H
	DW	02001H
	DW	09002H
	DW	0200eH
	DW	09001H
	DW	02005H
	DW	02002H
	DW	0200bH
	DW	02024H
	DW	02001H
	DW	02004H
	DW	09001H
	DW	02006H
	DW	02002H
	DW	09002H
	DW	02002H
	DW	09002H
	DW	02002H
	DW	02003H
	DW	02004H
	DW	02001H
	DW	09001H
	DW	02002H
	DW	02001H
	DW	02001H
	DW	03060H
	DW	0b048H
	DW	0a058H
	DW	02003H
	DW	02003H
	DW	09001H
	DW	02002H
	DW	09001H
	DW	02002H
	DW	02002H
	DW	02002H
	DW	09001H
	DW	02007H
	DW	09008H
	DW	02001H
	DW	09002H
	DW	0200bH
	DW	02001H
	DW	02003H
	DW	01001H
	DW	02001H
	DW	02002H
	DW	02001H
	DW	02003H
	DW	09004H
	DW	02002H
	DW	09003H
	DW	09002H
	DW	02001H
	DW	09006H
	DW	02003H
	DW	02002H
	DW	09002H
	DW	02001H
	DW	09001H
	DW	02001H
	DW	09001H
	DW	02007H
	DW	02001H
	DW	02001H
	DW	02008H
	DW	09006H
	DW	0200aH
	DW	02001H
	DW	0201fH
	DW	02004H
	DW	09001H
	DW	02007H
	DW	09001H
	DW	02001H
	DW	09005H
	DW	02001H
	DW	09002H
	DW	02009H
	DW	02002H
	DW	09001H
	DW	09001H
	DW	02004H
	DW	09002H
	DW	02002H
	DW	09001H
	DW	02003H
	DW	02001H
	DW	09001H
	DW	02002H
	DW	09003H
	DW	02001H
	DW	09001H
	DW	02003H
	DW	09002H
	DW	09008H
	DW	02008H
	DW	09002H
	DW	02002H
	DW	02003H
	DW	0200dH
	DW	09001H
	DW	02007H
	DW	02001H
	DW	02001H
	DW	09001H
	DW	02002H
	DW	02040H
	DW	01001H
	DW	02001H
	DW	0c001H
	DW	01002H
	DW	01007H
	DW	01010H
	DW	02021H
	DW	02003H
	DW	02001H
	DW	02020H
	DW	02006H
	DW	02002H
	DW	02004H
	DW	0200aH
	DW	02002H
	DW	02002H
	DW	02001H
	DW	02001H
	DW	02001H
	DW	09002H
	DW	02002H
	DW	09001H
	DW	02001H
	DW	09002H
	DW	09010H
	DW	02002H
	DW	02012H
	DW	02001H
	DW	02008H
	DW	0200bH
	DW	09002H
	DW	0301dH
	DW	02003H
	DW	09001H
	DW	02001H
	DW	09002H
	DW	02004H
	DW	09002H
	DW	02002H
	DW	09003H
	DW	02001H
	DW	02006H
	DW	09002H
	DW	02002H
	DW	09002H
	DW	02002H
	DW	02001H
	DW	02001H
	DW	09001H
	DW	02001H
	DW	02001H
	DW	02003H
	DW	02002H
	DW	02002H
	DW	02001H
	DW	09001H
	DW	02002H
	DW	09002H
	DW	09001H
	DW	02001H
	DW	09002H
	DW	02001H
	DW	09002H
	DW	02001H
	DW	09002H
	DW	09001H
	DW	02001H
	DW	05001H
	DW	0601bH
	DW	05001H
	DW	0601bH
	DW	05001H
	DW	0601bH
	DW	05001H
	DW	0601bH
	DW	05001H
	DW	0601bH
	DW	05001H
	DW	0601bH
	DW	05001H
	DW	0601bH
	DW	05001H
	DW	0601bH
	DW	05001H
	DW	0601bH
	DW	05001H
	DW	0601bH
	DW	05001H
	DW	0601bH
	DW	05001H
	DW	0601bH
	DW	05001H
	DW	0601bH
	DW	05001H
	DW	0601bH
	DW	05001H
	DW	0601bH
	DW	05001H
	DW	0601bH
	DW	05001H
	DW	0601bH
	DW	05001H
	DW	0601bH
	DW	05001H
	DW	0601bH
	DW	05001H
	DW	0601bH
	DW	05001H
	DW	0601bH
	DW	05001H
	DW	0601bH
	DW	05001H
	DW	0601bH
	DW	05001H
	DW	0601bH
	DW	05001H
	DW	0601bH
	DW	05001H
	DW	0601bH
	DW	05001H
	DW	0601bH
	DW	05001H
	DW	0601bH
	DW	05001H
	DW	0601bH
	DW	05001H
	DW	0601bH
	DW	05001H
	DW	0601bH
	DW	05001H
	DW	0601bH
	DW	05001H
	DW	0601bH
	DW	05001H
	DW	0601bH
	DW	05001H
	DW	0601bH
	DW	05001H
	DW	0601bH
	DW	05001H
	DW	0601bH
	DW	05001H
	DW	0601bH
	DW	05001H
	DW	0601bH
	DW	05001H
	DW	0601bH
	DW	05001H
	DW	0601bH
	DW	05001H
	DW	0601bH
	DW	05001H
	DW	0601bH
	DW	05001H
	DW	0601bH
	DW	05001H
	DW	0601bH
	DW	05001H
	DW	0601bH
	DW	05001H
	DW	0601bH
	DW	05001H
	DW	0601bH
	DW	05001H
	DW	0601bH
	DW	05001H
	DW	0601bH
	DW	05001H
	DW	0601bH
	DW	05001H
	DW	0601bH
	DW	05001H
	DW	0601bH
	DW	05001H
	DW	0601bH
	DW	05001H
	DW	0601bH
	DW	05001H
	DW	0601bH
	DW	05001H
	DW	0601bH
	DW	05001H
	DW	0601bH
	DW	05001H
	DW	0601bH
	DW	05001H
	DW	0601bH
	DW	05001H
	DW	0601bH
	DW	05001H
	DW	0601bH
	DW	05001H
	DW	0601bH
	DW	05001H
	DW	0601bH
	DW	05001H
	DW	0601bH
	DW	05001H
	DW	0601bH
	DW	05001H
	DW	0601bH
	DW	05001H
	DW	0601bH
	DW	05001H
	DW	0601bH
	DW	05001H
	DW	0601bH
	DW	05001H
	DW	0601bH
	DW	05001H
	DW	0601bH
	DW	05001H
	DW	0601bH
	DW	05001H
	DW	0601bH
	DW	05001H
	DW	0601bH
	DW	05001H
	DW	0601bH
	DW	05001H
	DW	0601bH
	DW	05001H
	DW	0601bH
	DW	05001H
	DW	0601bH
	DW	05001H
	DW	0601bH
	DW	05001H
	DW	0601bH
	DW	05001H
	DW	0601bH
	DW	05001H
	DW	0601bH
	DW	05001H
	DW	0601bH
	DW	05001H
	DW	0601bH
	DW	05001H
	DW	0601bH
	DW	05001H
	DW	0601bH
	DW	05001H
	DW	0601bH
	DW	05001H
	DW	0601bH
	DW	05001H
	DW	0601bH
	DW	05001H
	DW	0601bH
	DW	05001H
	DW	0601bH
	DW	05001H
	DW	0601bH
	DW	05001H
	DW	0601bH
	DW	05001H
	DW	0601bH
	DW	05001H
	DW	0601bH
	DW	05001H
	DW	0601bH
	DW	05001H
	DW	0601bH
	DW	05001H
	DW	0601bH
	DW	05001H
	DW	0601bH
	DW	05001H
	DW	0601bH
	DW	05001H
	DW	0601bH
	DW	05001H
	DW	0601bH
	DW	05001H
	DW	0601bH
	DW	05001H
	DW	0601bH
	DW	05001H
	DW	0601bH
	DW	05001H
	DW	0601bH
	DW	05001H
	DW	0601bH
	DW	05001H
	DW	0601bH
	DW	05001H
	DW	0601bH
	DW	05001H
	DW	0601bH
	DW	05001H
	DW	0601bH
	DW	05001H
	DW	0601bH
	DW	05001H
	DW	0601bH
	DW	05001H
	DW	0601bH
	DW	05001H
	DW	0601bH
	DW	05001H
	DW	0601bH
	DW	05001H
	DW	0601bH
	DW	05001H
	DW	0601bH
	DW	05001H
	DW	0601bH
	DW	05001H
	DW	0601bH
	DW	05001H
	DW	0601bH
	DW	05001H
	DW	0601bH
	DW	05001H
	DW	0601bH
	DW	05001H
	DW	0601bH
	DW	05001H
	DW	0601bH
	DW	05001H
	DW	0601bH
	DW	05001H
	DW	0601bH
	DW	05001H
	DW	0601bH
	DW	05001H
	DW	0601bH
	DW	05001H
	DW	0601bH
	DW	05001H
	DW	0601bH
	DW	05001H
	DW	0601bH
	DW	05001H
	DW	0601bH
	DW	05001H
	DW	0601bH
	DW	05001H
	DW	0601bH
	DW	05001H
	DW	0601bH
	DW	05001H
	DW	0601bH
	DW	05001H
	DW	0601bH
	DW	05001H
	DW	0601bH
	DW	05001H
	DW	0601bH
	DW	05001H
	DW	0601bH
	DW	05001H
	DW	0601bH
	DW	05001H
	DW	0601bH
	DW	05001H
	DW	0601bH
	DW	05001H
	DW	0601bH
	DW	05001H
	DW	0601bH
	DW	05001H
	DW	0601bH
	DW	05001H
	DW	0601bH
	DW	05001H
	DW	0601bH
	DW	05001H
	DW	0601bH
	DW	05001H
	DW	0601bH
	DW	05001H
	DW	0601bH
	DW	05001H
	DW	0601bH
	DW	05001H
	DW	0601bH
	DW	05001H
	DW	0601bH
	DW	05001H
	DW	0601bH
	DW	05001H
	DW	0601bH
	DW	05001H
	DW	0601bH
	DW	05001H
	DW	0601bH
	DW	05001H
	DW	0601bH
	DW	05001H
	DW	0601bH
	DW	05001H
	DW	0601bH
	DW	05001H
	DW	0601bH
	DW	05001H
	DW	0601bH
	DW	05001H
	DW	0601bH
	DW	05001H
	DW	0601bH
	DW	05001H
	DW	0601bH
	DW	05001H
	DW	0601bH
	DW	05001H
	DW	0601bH
	DW	05001H
	DW	0601bH
	DW	05001H
	DW	0601bH
	DW	05001H
	DW	0601bH
	DW	05001H
	DW	0601bH
	DW	05001H
	DW	0601bH
	DW	05001H
	DW	0601bH
	DW	05001H
	DW	0601bH
	DW	05001H
	DW	0601bH
	DW	05001H
	DW	0601bH
	DW	05001H
	DW	0601bH
	DW	05001H
	DW	0601bH
	DW	05001H
	DW	0601bH
	DW	05001H
	DW	0601bH
	DW	05001H
	DW	0601bH
	DW	05001H
	DW	0601bH
	DW	05001H
	DW	0601bH
	DW	05001H
	DW	0601bH
	DW	05001H
	DW	0601bH
	DW	05001H
	DW	0601bH
	DW	05001H
	DW	0601bH
	DW	05001H
	DW	0601bH
	DW	05001H
	DW	0601bH
	DW	05001H
	DW	0601bH
	DW	05001H
	DW	0601bH
	DW	05001H
	DW	0601bH
	DW	05001H
	DW	0601bH
	DW	05001H
	DW	0601bH
	DW	05001H
	DW	0601bH
	DW	05001H
	DW	0601bH
	DW	05001H
	DW	0601bH
	DW	05001H
	DW	0601bH
	DW	05001H
	DW	0601bH
	DW	05001H
	DW	0601bH
	DW	05001H
	DW	0601bH
	DW	05001H
	DW	0601bH
	DW	05001H
	DW	0601bH
	DW	05001H
	DW	0601bH
	DW	05001H
	DW	0601bH
	DW	05001H
	DW	0601bH
	DW	05001H
	DW	0601bH
	DW	05001H
	DW	0601bH
	DW	05001H
	DW	0601bH
	DW	05001H
	DW	0601bH
	DW	05001H
	DW	0601bH
	DW	05001H
	DW	0601bH
	DW	05001H
	DW	0601bH
	DW	05001H
	DW	0601bH
	DW	05001H
	DW	0601bH
	DW	05001H
	DW	0601bH
	DW	05001H
	DW	0601bH
	DW	05001H
	DW	0601bH
	DW	05001H
	DW	0601bH
	DW	05001H
	DW	0601bH
	DW	05001H
	DW	0601bH
	DW	05001H
	DW	0601bH
	DW	05001H
	DW	0601bH
	DW	05001H
	DW	0601bH
	DW	05001H
	DW	0601bH
	DW	05001H
	DW	0601bH
	DW	05001H
	DW	0601bH
	DW	05001H
	DW	0601bH
	DW	05001H
	DW	0601bH
	DW	05001H
	DW	0601bH
	DW	05001H
	DW	0601bH
	DW	05001H
	DW	0601bH
	DW	05001H
	DW	0601bH
	DW	05001H
	DW	0601bH
	DW	05001H
	DW	0601bH
	DW	05001H
	DW	0601bH
	DW	05001H
	DW	0601bH
	DW	05001H
	DW	0601bH
	DW	05001H
	DW	0601bH
	DW	05001H
	DW	0601bH
	DW	05001H
	DW	0601bH
	DW	05001H
	DW	0601bH
	DW	05001H
	DW	0601bH
	DW	05001H
	DW	0601bH
	DW	05001H
	DW	0601bH
	DW	05001H
	DW	0601bH
	DW	05001H
	DW	0601bH
	DW	05001H
	DW	0601bH
	DW	05001H
	DW	0601bH
	DW	05001H
	DW	0601bH
	DW	05001H
	DW	0601bH
	DW	05001H
	DW	0601bH
	DW	05001H
	DW	0601bH
	DW	05001H
	DW	0601bH
	DW	05001H
	DW	0601bH
	DW	05001H
	DW	0601bH
	DW	05001H
	DW	0601bH
	DW	05001H
	DW	0601bH
	DW	05001H
	DW	0601bH
	DW	05001H
	DW	0601bH
	DW	05001H
	DW	0601bH
	DW	05001H
	DW	0601bH
	DW	05001H
	DW	0601bH
	DW	05001H
	DW	0601bH
	DW	05001H
	DW	0601bH
	DW	05001H
	DW	0601bH
	DW	05001H
	DW	0601bH
	DW	05001H
	DW	0601bH
	DW	05001H
	DW	0601bH
	DW	05001H
	DW	0601bH
	DW	05001H
	DW	0601bH
	DW	05001H
	DW	0601bH
	DW	05001H
	DW	0601bH
	DW	05001H
	DW	0601bH
	DW	05001H
	DW	0601bH
	DW	05001H
	DW	0601bH
	DW	05001H
	DW	0601bH
	DW	05001H
	DW	0601bH
	DW	05001H
	DW	0601bH
	DW	05001H
	DW	0601bH
	DW	05001H
	DW	0601bH
	DW	05001H
	DW	0601bH
	DW	05001H
	DW	0601bH
	DW	05001H
	DW	0601bH
	DW	05001H
	DW	0601bH
	DW	05001H
	DW	0601bH
	DW	05001H
	DW	0601bH
	DW	05001H
	DW	0601bH
	DW	05001H
	DW	0601bH
	DW	05001H
	DW	0601bH
	DW	05001H
	DW	0601bH
	DW	05001H
	DW	0601bH
	DW	05001H
	DW	0601bH
	DW	05001H
	DW	0601bH
	DW	05001H
	DW	0601bH
	DW	05001H
	DW	0601bH
	DW	05001H
	DW	0601bH
	DW	05001H
	DW	0601bH
	DW	05001H
	DW	0601bH
	DW	05001H
	DW	0601bH
	DW	05001H
	DW	0601bH
	DW	05001H
	DW	0601bH
	DW	05001H
	DW	0601bH
	DW	05001H
	DW	0601bH
	DW	05001H
	DW	0601bH
	DW	05001H
	DW	0601bH
	DW	05001H
	DW	0601bH
	DW	05001H
	DW	0601bH
	DW	05001H
	DW	0601bH
	DW	05001H
	DW	0601bH
	DW	05001H
	DW	0601bH
	DW	05001H
	DW	0601bH
	DW	05001H
	DW	0601bH
	DW	05001H
	DW	0601bH
	DW	05001H
	DW	0601bH
	DW	05001H
	DW	0601bH
	DW	05001H
	DW	0601bH
	DW	05001H
	DW	0601bH
	DW	05001H
	DW	0601bH
	DW	05001H
	DW	0601bH
	DW	05001H
	DW	0601bH
	DW	05001H
	DW	0601bH
	DW	05001H
	DW	0601bH
	DW	05001H
	DW	0601bH
	DW	05001H
	DW	0601bH
	DW	05001H
	DW	0601bH
	DW	05001H
	DW	0601bH
	DW	05001H
	DW	0601bH
	DW	05001H
	DW	0601bH
	DW	05001H
	DW	0601bH
	DW	05001H
	DW	0601bH
	DW	05001H
	DW	0601bH
	DW	05001H
	DW	0601bH
	DW	05001H
	DW	0601bH
	DW	05001H
	DW	0601bH
	DW	05001H
	DW	0601bH
	DW	05001H
	DW	0601bH
	DW	05001H
	DW	0601bH
	DW	05001H
	DW	0601bH
	DW	05001H
	DW	0601bH
	DW	05001H
	DW	0601bH
	DW	05001H
	DW	0601bH
	DW	05001H
	DW	0601bH
	DW	05001H
	DW	0601bH
	DW	05001H
	DW	0601bH
	DW	05001H
	DW	0601bH
	DW	05001H
	DW	0601bH
	DW	05001H
	DW	0601bH
	DW	05001H
	DW	0601bH
	DW	05001H
	DW	0601bH
	DW	05001H
	DW	0601bH
	DW	05001H
	DW	0601bH
	DW	05001H
	DW	0601bH
	DW	05001H
	DW	0601bH
	DW	05001H
	DW	0601bH
	DW	05001H
	DW	0601bH
	DW	05001H
	DW	0601bH
	DW	05001H
	DW	0601bH
	DW	05001H
	DW	0601bH
	DW	05001H
	DW	0601bH
	DW	05001H
	DW	0601bH
	DW	05001H
	DW	0601bH
	DW	05001H
	DW	0601bH
	DW	05001H
	DW	0601bH
	DW	05001H
	DW	0601bH
	DW	05001H
	DW	0601bH
	DW	05001H
	DW	0601bH
	DW	05001H
	DW	0601bH
	DW	05001H
	DW	0601bH
	DW	05001H
	DW	0601bH
	DW	05001H
	DW	0601bH
	DW	05001H
	DW	0601bH
	DW	05001H
	DW	0601bH
	DW	05001H
	DW	0601bH
	DW	05001H
	DW	0601bH
	DW	05001H
	DW	0601bH
	DW	05001H
	DW	0601bH
	DW	05001H
	DW	0601bH
	DW	05001H
	DW	0601bH
	DW	05001H
	DW	0601bH
	DW	05001H
	DW	0601bH
	DW	05001H
	DW	0601bH
	DW	05001H
	DW	0601bH
	DW	05001H
	DW	0601bH
	DW	05001H
	DW	0601bH
	DW	05001H
	DW	0601bH
	DW	05001H
	DW	0601bH
	DW	05001H
	DW	0601bH
	DW	05001H
	DW	0601bH
	DW	05001H
	DW	0601bH
	DW	05001H
	DW	0601bH
	DW	05001H
	DW	0601bH
	DW	05001H
	DW	0601bH
	DW	05001H
	DW	0601bH
	DW	05001H
	DW	0601bH
	DW	05001H
	DW	0601bH
	DW	0b017H
	DW	0a031H
	DW	02001H
	DW	02010H
	DW	02010H
	DW	01001H
	DW	02002H
	DW	0100cH
	DW	02001H
	DW	02001H
	DW	02005H
	DW	02003H
	DW	02002H
	DW	02004H
	DW	02003H
	DW	02001H
	DW	02002H
	DW	02004H
	DW	02002H
	DW	0200bH
	DW	02004H
	DW	09001H
	DW	02001H
	DW	09001H
	DW	0200fH
	DW	02001H
	DW	02002H
	DW	02003H
	DW	09001H
	DW	09003H
	DW	02004H
	DW	09002H
	DW	02002H
	DW	07001H
	DW	02001H
	DW	07001H
	DW	02003H
	DW	02005H
	DW	09001H
	DW	02008H
	DW	09002H
	DW	02001H
	DW	02002H
	DW	09001H
	DW	09003H
	DW	02009H
	DW	09002H
	DW	07002H
	DW	02004H
	DW	09001H
	DW	02001H
	DW	09003H
	DW	02003H
	DW	09002H
	DW	02001H
	DW	09001H
	DW	02002H
	DW	02001H
	DW	02001H
	DW	09003H
	DW	02008H
	DW	02002H
	DW	09002H
	DW	02002H
	DW	02001H
	DW	09001H
	DW	02001H
	DW	09004H
	DW	09002H
	DW	09003H
	DW	02001H
	DW	09002H
	DW	02007H
	DW	02005H
	DW	09003H
	DW	02008H
	DW	09002H
	DW	02003H
	DW	09001H
	DW	02001H
	DW	02001H
	DW	02001H
	DW	09002H
	DW	02006H
	DW	09001H
	DW	02001H
	DW	09002H
	DW	02001H
	DW	09001H
	DW	02002H
	DW	09001H
	DW	02002H
	DW	02001H
	DW	09002H
	DW	02004H
	DW	09004H
	DW	02002H
	DW	09001H
	DW	02002H
	DW	02002H
	DW	09003H
	DW	02008H
	DW	09002H
	DW	02001H
	DW	09001H
	DW	02002H
	DW	02001H
	DW	09001H
	DW	02001H
	DW	09002H
	DW	02006H
	DW	09001H
	DW	02001H
	DW	02003H
	DW	02004H
	DW	09001H
	DW	02005H
	DW	09003H
	DW	02009H
	DW	09001H
	DW	02002H
	DW	02001H
	DW	09005H
	DW	09002H
	DW	02002H
	DW	09001H
	DW	02001H
	DW	07001H
	DW	09001H
	DW	07001H
	DW	09001H
	DW	02001H
	DW	09003H
	DW	02004H
	DW	02002H
	DW	09004H
	DW	02001H
	DW	09001H
	DW	0200aH
	DW	02006H
	DW	09001H
	DW	07001H
	DW	02004H
	DW	02001H
	DW	02006H
	DW	09002H
	DW	02003H
	DW	07006H
	DW	0200dH
	DW	09001H
	DW	02002H
	DW	09001H
	DW	02007H
	DW	02006H
	DW	09001H
	DW	02001H
	DW	02016H
	DW	09001H
	DW	02007H
	DW	09001H
	DW	02002H
	DW	09001H
	DW	02002H
	DW	02006H
	DW	02001H
	DW	02002H
	DW	02007H
	DW	07001H
	DW	02001H
	DW	09005H
	DW	02002H
	DW	09002H
	DW	02001H
	DW	09001H
	DW	02001H
	DW	02002H
	DW	09002H
	DW	01009H
	DW	02005H
	DW	02007H
	DW	02001H
	DW	09037H
	DW	02004H
	DW	02001H
	DW	09002H
	DW	02002H
	DW	01004H
	DW	0202eH
	DW	02017H
	DW	02001H
	DW	09001H
	DW	02003H
	DW	09001H
	DW	02005H
	DW	01008H
	DW	02008H
	DW	02007H
	DW	02004H
	DW	02003H
	DW	02037H
	DW	02032H
	DW	02001H
	DW	02001H
	DW	02005H
	DW	0200fH
	DW	02007H
	DW	02011H
	DW	02007H
	DW	02002H
	DW	02005H
	DW	02007H
	DW	02001H
	DW	02004H
	DW	02007H
	DW	02007H
	DW	0801aH
	DW	02005H
	DW	01020H
	DW	02060H
	DW	01080H
	DW	020f0H
	DW	01e10H
	ORG $+2
CONST	ENDS
;	COMDAT ?_Max_P@?$_General_precision_tables_2@N@std@@2HB
CONST	SEGMENT
?_Max_P@?$_General_precision_tables_2@N@std@@2HB DD 0135H ; std::_General_precision_tables_2<double>::_Max_P
CONST	ENDS
;	COMDAT ?__FLOAT_POW5_INV_SPLIT@std@@3QB_KB
CONST	SEGMENT
?__FLOAT_POW5_INV_SPLIT@std@@3QB_KB DQ 0800000000000001H ; std::__FLOAT_POW5_INV_SPLIT
	DQ	0666666666666667H
	DQ	051eb851eb851eb9H
	DQ	04189374bc6a7efaH
	DQ	068db8bac710cb2aH
	DQ	053e2d6238da3c22H
	DQ	0431bde82d7b634eH
	DQ	06b5fca6af2bd216H
	DQ	055e63b88c230e78H
	DQ	044b82fa09b5a52dH
	DQ	06df37f675ef6eaeH
	DQ	057f5ff85e592558H
	DQ	0465e6604b7a8447H
	DQ	0709709a125da071H
	DQ	05a126e1a84ae6c1H
	DQ	0480ebe7b9d58567H
	DQ	0734aca5f6226f0bH
	DQ	05c3bd5191b525a3H
	DQ	049c97747490eae9H
	DQ	0760f253edb4ab0eH
	DQ	05e72843249088d8H
	DQ	04b8ed0283a6d3e0H
	DQ	078e480405d7b966H
	DQ	060b6cd004ac9452H
	DQ	04d5f0a66a23a9dbH
	DQ	07bcb43d769f762bH
	DQ	063090312bb2c4efH
	DQ	04f3a68dbc8f03f3H
	DQ	07ec3daf94180651H
	DQ	065697bfa9acd1daH
	DQ	051212ffbaf0a7e2H
CONST	ENDS
;	COMDAT ?less@strong_ordering@std@@2U12@B
CONST	SEGMENT
?less@strong_ordering@std@@2U12@B DB 0ffH		; std::strong_ordering::less
CONST	ENDS
;	COMDAT ?default_sentinel@std@@3Udefault_sentinel_t@1@B
CONST	SEGMENT
?default_sentinel@std@@3Udefault_sentinel_t@1@B	ORG $+1	; std::default_sentinel
CONST	ENDS
;	COMDAT ??$__DIGIT_TABLE@D@std@@3QBDB
CONST	SEGMENT
??$__DIGIT_TABLE@D@std@@3QBDB DB 030H			; std::__DIGIT_TABLE<char>
	DB	030H
	DB	030H
	DB	031H
	DB	030H
	DB	032H
	DB	030H
	DB	033H
	DB	030H
	DB	034H
	DB	030H
	DB	035H
	DB	030H
	DB	036H
	DB	030H
	DB	037H
	DB	030H
	DB	038H
	DB	030H
	DB	039H
	DB	031H
	DB	030H
	DB	031H
	DB	031H
	DB	031H
	DB	032H
	DB	031H
	DB	033H
	DB	031H
	DB	034H
	DB	031H
	DB	035H
	DB	031H
	DB	036H
	DB	031H
	DB	037H
	DB	031H
	DB	038H
	DB	031H
	DB	039H
	DB	032H
	DB	030H
	DB	032H
	DB	031H
	DB	032H
	DB	032H
	DB	032H
	DB	033H
	DB	032H
	DB	034H
	DB	032H
	DB	035H
	DB	032H
	DB	036H
	DB	032H
	DB	037H
	DB	032H
	DB	038H
	DB	032H
	DB	039H
	DB	033H
	DB	030H
	DB	033H
	DB	031H
	DB	033H
	DB	032H
	DB	033H
	DB	033H
	DB	033H
	DB	034H
	DB	033H
	DB	035H
	DB	033H
	DB	036H
	DB	033H
	DB	037H
	DB	033H
	DB	038H
	DB	033H
	DB	039H
	DB	034H
	DB	030H
	DB	034H
	DB	031H
	DB	034H
	DB	032H
	DB	034H
	DB	033H
	DB	034H
	DB	034H
	DB	034H
	DB	035H
	DB	034H
	DB	036H
	DB	034H
	DB	037H
	DB	034H
	DB	038H
	DB	034H
	DB	039H
	DB	035H
	DB	030H
	DB	035H
	DB	031H
	DB	035H
	DB	032H
	DB	035H
	DB	033H
	DB	035H
	DB	034H
	DB	035H
	DB	035H
	DB	035H
	DB	036H
	DB	035H
	DB	037H
	DB	035H
	DB	038H
	DB	035H
	DB	039H
	DB	036H
	DB	030H
	DB	036H
	DB	031H
	DB	036H
	DB	032H
	DB	036H
	DB	033H
	DB	036H
	DB	034H
	DB	036H
	DB	035H
	DB	036H
	DB	036H
	DB	036H
	DB	037H
	DB	036H
	DB	038H
	DB	036H
	DB	039H
	DB	037H
	DB	030H
	DB	037H
	DB	031H
	DB	037H
	DB	032H
	DB	037H
	DB	033H
	DB	037H
	DB	034H
	DB	037H
	DB	035H
	DB	037H
	DB	036H
	DB	037H
	DB	037H
	DB	037H
	DB	038H
	DB	037H
	DB	039H
	DB	038H
	DB	030H
	DB	038H
	DB	031H
	DB	038H
	DB	032H
	DB	038H
	DB	033H
	DB	038H
	DB	034H
	DB	038H
	DB	035H
	DB	038H
	DB	036H
	DB	038H
	DB	037H
	DB	038H
	DB	038H
	DB	038H
	DB	039H
	DB	039H
	DB	030H
	DB	039H
	DB	031H
	DB	039H
	DB	032H
	DB	039H
	DB	033H
	DB	039H
	DB	034H
	DB	039H
	DB	035H
	DB	039H
	DB	036H
	DB	039H
	DB	037H
	DB	039H
	DB	038H
	DB	039H
	DB	039H
CONST	ENDS
;	COMDAT ?equal@strong_ordering@std@@2U12@B
CONST	SEGMENT
?equal@strong_ordering@std@@2U12@B DB 00H		; std::strong_ordering::equal
CONST	ENDS
;	COMDAT ?__POW10_OFFSET_2@std@@3QBGB
CONST	SEGMENT
?__POW10_OFFSET_2@std@@3QBGB DW 00H			; std::__POW10_OFFSET_2
	DW	02H
	DW	06H
	DW	0cH
	DW	014H
	DW	01dH
	DW	028H
	DW	034H
	DW	042H
	DW	050H
	DW	05fH
	DW	070H
	DW	082H
	DW	096H
	DW	0aaH
	DW	0c0H
	DW	0d7H
	DW	0f0H
	DW	0109H
	DW	0124H
	DW	0140H
	DW	015eH
	DW	017dH
	DW	019dH
	DW	01beH
	DW	01e0H
	DW	0204H
	DW	0228H
	DW	024eH
	DW	0275H
	DW	029eH
	DW	02c8H
	DW	02f3H
	DW	031fH
	DW	034dH
	DW	037cH
	DW	03acH
	DW	03ddH
	DW	0410H
	DW	0444H
	DW	0479H
	DW	04afH
	DW	04e6H
	DW	051fH
	DW	0559H
	DW	0594H
	DW	05d0H
	DW	060eH
	DW	064dH
	DW	068eH
	DW	06cfH
	DW	0712H
	DW	0756H
	DW	079bH
	DW	07e1H
	DW	0828H
	DW	0871H
	DW	08bbH
	DW	0907H
	DW	0953H
	DW	09a1H
	DW	09f0H
	DW	0a41H
	DW	0a92H
	DW	0ae5H
	DW	0b39H
	DW	0b8fH
	DW	0be6H
	DW	0c3dH
CONST	ENDS
;	COMDAT ?_Min_buckets@?$_Hash@V?$_Uset_traits@PEAUGLMeshBuffers@@V?$_Uhash_compare@PEAUGLMeshBuffers@@U?$hash@PEAUGLMeshBuffers@@@std@@U?$equal_to@PEAUGLMeshBuffers@@@3@@std@@V?$allocator@PEAUGLMeshBuffers@@@3@$0A@@std@@@std@@2_KB
CONST	SEGMENT
?_Min_buckets@?$_Hash@V?$_Uset_traits@PEAUGLMeshBuffers@@V?$_Uhash_compare@PEAUGLMeshBuffers@@U?$hash@PEAUGLMeshBuffers@@@std@@U?$equal_to@PEAUGLMeshBuffers@@@3@@std@@V?$allocator@PEAUGLMeshBuffers@@@3@$0A@@std@@@std@@2_KB DQ 0000000000000008H ; std::_Hash<std::_Uset_traits<GLMeshBuffers *,std::_Uhash_compare<GLMeshBuffers *,std::hash<GLMeshBuffers *>,std::equal_to<GLMeshBuffers *> >,std::allocator<GLMeshBuffers *>,0> >::_Min_buckets
CONST	ENDS
;	COMDAT ?greater@strong_ordering@std@@2U12@B
CONST	SEGMENT
?greater@strong_ordering@std@@2U12@B DB 01H		; std::strong_ordering::greater
CONST	ENDS
;	COMDAT ?fill_n@ranges@std@@3V_Fill_n_fn@12@B
CONST	SEGMENT
?fill_n@ranges@std@@3V_Fill_n_fn@12@B	ORG $+1		; std::ranges::fill_n
CONST	ENDS
;	COMDAT ?_Uend@_Cpos@ranges@std@@3V_Cpo@_Unchecked_end@23@B
CONST	SEGMENT
?_Uend@_Cpos@ranges@std@@3V_Cpo@_Unchecked_end@23@B	ORG $+1 ; std::ranges::_Cpos::_Uend
CONST	ENDS
;	COMDAT ?begin@_Cpos@ranges@std@@3V_Cpo@_Begin@23@B
CONST	SEGMENT
?begin@_Cpos@ranges@std@@3V_Cpo@_Begin@23@B	ORG $+1	; std::ranges::_Cpos::begin
CONST	ENDS
;	COMDAT ?copy@ranges@std@@3V_Copy_fn@12@B
CONST	SEGMENT
?copy@ranges@std@@3V_Copy_fn@12@B	ORG $+1		; std::ranges::copy
CONST	ENDS
;	COMDAT ?_Max_P@?$_General_precision_tables_2@M@std@@2HB
CONST	SEGMENT
?_Max_P@?$_General_precision_tables_2@M@std@@2HB DD 027H ; std::_General_precision_tables_2<float>::_Max_P
CONST	ENDS
;	COMDAT ?__POW10_OFFSET@std@@3QBGB
CONST	SEGMENT
?__POW10_OFFSET@std@@3QBGB DW 00H			; std::__POW10_OFFSET
	DW	02H
	DW	05H
	DW	08H
	DW	0cH
	DW	010H
	DW	015H
	DW	01aH
	DW	020H
	DW	027H
	DW	02eH
	DW	036H
	DW	03eH
	DW	047H
	DW	050H
	DW	05aH
	DW	064H
	DW	06fH
	DW	07aH
	DW	086H
	DW	092H
	DW	09fH
	DW	0adH
	DW	0bbH
	DW	0caH
	DW	0d9H
	DW	0e9H
	DW	0f9H
	DW	010aH
	DW	011bH
	DW	012dH
	DW	013fH
	DW	0152H
	DW	0165H
	DW	0179H
	DW	018dH
	DW	01a2H
	DW	01b8H
	DW	01ceH
	DW	01e5H
	DW	01fcH
	DW	0214H
	DW	022cH
	DW	0245H
	DW	025eH
	DW	0278H
	DW	0292H
	DW	02adH
	DW	02c8H
	DW	02e4H
	DW	0301H
	DW	031eH
	DW	033cH
	DW	035aH
	DW	0379H
	DW	0398H
	DW	03b8H
	DW	03d8H
	DW	03f9H
	DW	041aH
	DW	043cH
	DW	045eH
	DW	0481H
	DW	04a4H
CONST	ENDS
;	COMDAT ?_Fake_alloc@std@@3U_Fake_allocator@1@B
CONST	SEGMENT
?_Fake_alloc@std@@3U_Fake_allocator@1@B	ORG $+1		; std::_Fake_alloc
CONST	ENDS
;	COMDAT ??_R4?$_Fmt_buffer@D@std@@6B@
rdata$r	SEGMENT
??_R4?$_Fmt_buffer@D@std@@6B@ DD 01H			; std::_Fmt_buffer<char>::`RTTI Complete Object Locator'
	DD	00H
	DD	00H
	DD	imagerel ??_R0?AV?$_Fmt_buffer@D@std@@@8
	DD	imagerel ??_R3?$_Fmt_buffer@D@std@@8
	DD	imagerel ??_R4?$_Fmt_buffer@D@std@@6B@
rdata$r	ENDS
;	COMDAT ??_R1A@?0A@EA@?$basic_stringbuf@DU?$char_traits@D@std@@V?$allocator@D@2@@std@@8
rdata$r	SEGMENT
??_R1A@?0A@EA@?$basic_stringbuf@DU?$char_traits@D@std@@V?$allocator@D@2@@std@@8 DD imagerel ??_R0?AV?$basic_stringbuf@DU?$char_traits@D@std@@V?$allocator@D@2@@std@@@8 ; std::basic_stringbuf<char,std::char_traits<char>,std::allocator<char> >::`RTTI Base Class Descriptor at (0,-1,0,64)'
	DD	01H
	DD	00H
	DD	0ffffffffH
	DD	00H
	DD	040H
	DD	imagerel ??_R3?$basic_stringbuf@DU?$char_traits@D@std@@V?$allocator@D@2@@std@@8
rdata$r	ENDS
;	COMDAT ??_R3facet@locale@std@@8
rdata$r	SEGMENT
??_R3facet@locale@std@@8 DD 00H				; std::locale::facet::`RTTI Class Hierarchy Descriptor'
	DD	01H
	DD	03H
	DD	imagerel ??_R2facet@locale@std@@8
rdata$r	ENDS
;	COMDAT ?_Max_shifted_mantissa@?DC@???$__to_chars@D@std@@YA?AU?$pair@PEADW4errc@std@@@1@QEAD0U__floating_decimal_32@1@W4chars_format@1@II@Z@4QBIB
CONST	SEGMENT
?_Max_shifted_mantissa@?DC@???$__to_chars@D@std@@YA?AU?$pair@PEADW4errc@std@@@1@QEAD0U__floating_decimal_32@1@W4chars_format@1@II@Z@4QBIB DD 0ffffffH ; `std::__to_chars<char>'::`50'::_Max_shifted_mantissa
	DD	0333333H
	DD	0a3d70H
	DD	020c49H
	DD	068dbH
	DD	014f8H
	DD	0431H
	DD	0d6H
	DD	02aH
	DD	08H
	DD	01H
CONST	ENDS
;	COMDAT ??_R0?AVformat_error@std@@@8
data$r	SEGMENT
??_R0?AVformat_error@std@@@8 DQ FLAT:??_7type_info@@6B@	; std::format_error `RTTI Type Descriptor'
	DQ	0000000000000000H
	DB	'.?AVformat_error@std@@', 00H
data$r	ENDS
;	COMDAT ??_R2Shader3d@@8
rdata$r	SEGMENT
??_R2Shader3d@@8 DD imagerel ??_R1A@?0A@EA@Shader3d@@8	; Shader3d::`RTTI Base Class Array'
	DD	imagerel ??_R1A@?0A@EA@Shader@@8
	ORG $+3
rdata$r	ENDS
;	COMDAT ??_R2LightSource@@8
rdata$r	SEGMENT
??_R2LightSource@@8 DD imagerel ??_R1A@?0A@EA@LightSource@@8 ; LightSource::`RTTI Base Class Array'
	DD	imagerel ??_R17?0A@EA@GameObject@@8
	ORG $+3
rdata$r	ENDS
;	COMDAT ??_R2Material@@8
rdata$r	SEGMENT
??_R2Material@@8 DD imagerel ??_R1A@?0A@EA@Material@@8	; Material::`RTTI Base Class Array'
	ORG $+3
rdata$r	ENDS
;	COMDAT ??_8?$basic_ifstream@DU?$char_traits@D@std@@@std@@7B@
CONST	SEGMENT
??_8?$basic_ifstream@DU?$char_traits@D@std@@@std@@7B@ DD 00H ; std::basic_ifstream<char,std::char_traits<char> >::`vbtable'
	DD	0b0H
CONST	ENDS
;	COMDAT ??_R0?AVfacet@locale@std@@@8
data$rs	SEGMENT
??_R0?AVfacet@locale@std@@@8 DQ FLAT:??_7type_info@@6B@	; std::locale::facet `RTTI Type Descriptor'
	DQ	0000000000000000H
	DB	'.?AVfacet@locale@std@@', 00H
data$rs	ENDS
;	COMDAT ??_R1A@?0A@EA@?$_Iosb@H@std@@8
rdata$r	SEGMENT
??_R1A@?0A@EA@?$_Iosb@H@std@@8 DD imagerel ??_R0?AV?$_Iosb@H@std@@@8 ; std::_Iosb<int>::`RTTI Base Class Descriptor at (0,-1,0,64)'
	DD	00H
	DD	00H
	DD	0ffffffffH
	DD	00H
	DD	040H
	DD	imagerel ??_R3?$_Iosb@H@std@@8
rdata$r	ENDS
;	COMDAT ??_R2?$basic_streambuf@DU?$char_traits@D@std@@@std@@8
rdata$r	SEGMENT
??_R2?$basic_streambuf@DU?$char_traits@D@std@@@std@@8 DD imagerel ??_R1A@?0A@EA@?$basic_streambuf@DU?$char_traits@D@std@@@std@@8 ; std::basic_streambuf<char,std::char_traits<char> >::`RTTI Base Class Array'
	ORG $+3
rdata$r	ENDS
;	COMDAT ??_R1A@?0A@EA@LightShader@@8
rdata$r	SEGMENT
??_R1A@?0A@EA@LightShader@@8 DD imagerel ??_R0?AVLightShader@@@8 ; LightShader::`RTTI Base Class Descriptor at (0,-1,0,64)'
	DD	01H
	DD	00H
	DD	0ffffffffH
	DD	00H
	DD	040H
	DD	imagerel ??_R3LightShader@@8
rdata$r	ENDS
;	COMDAT ??_R2ScreenSpacePostProcessing@@8
rdata$r	SEGMENT
??_R2ScreenSpacePostProcessing@@8 DD imagerel ??_R1A@?0A@EA@ScreenSpacePostProcessing@@8 ; ScreenSpacePostProcessing::`RTTI Base Class Array'
	ORG $+3
rdata$r	ENDS
;	COMDAT ??_R2?$numpunct@D@std@@8
rdata$r	SEGMENT
??_R2?$numpunct@D@std@@8 DD imagerel ??_R1A@?0A@EA@?$numpunct@D@std@@8 ; std::numpunct<char>::`RTTI Base Class Array'
	DD	imagerel ??_R1A@?0A@EA@facet@locale@std@@8
	DD	imagerel ??_R1A@?0A@EA@_Facet_base@std@@8
	DD	imagerel ??_R17?0A@EA@_Crt_new_delete@std@@8
	ORG $+3
rdata$r	ENDS
;	COMDAT ??_R3ScreenSpacePostProcessing@@8
rdata$r	SEGMENT
??_R3ScreenSpacePostProcessing@@8 DD 00H		; ScreenSpacePostProcessing::`RTTI Class Hierarchy Descriptor'
	DD	00H
	DD	01H
	DD	imagerel ??_R2ScreenSpacePostProcessing@@8
rdata$r	ENDS
;	COMDAT ??_R1A@?0A@EA@DepthBuffer@@8
rdata$r	SEGMENT
??_R1A@?0A@EA@DepthBuffer@@8 DD imagerel ??_R0?AUDepthBuffer@@@8 ; DepthBuffer::`RTTI Base Class Descriptor at (0,-1,0,64)'
	DD	01H
	DD	00H
	DD	0ffffffffH
	DD	00H
	DD	040H
	DD	imagerel ??_R3DepthBuffer@@8
rdata$r	ENDS
;	COMDAT ??_R4Shader3d@@6B@
rdata$r	SEGMENT
??_R4Shader3d@@6B@ DD 01H				; Shader3d::`RTTI Complete Object Locator'
	DD	00H
	DD	00H
	DD	imagerel ??_R0?AVShader3d@@@8
	DD	imagerel ??_R3Shader3d@@8
	DD	imagerel ??_R4Shader3d@@6B@
rdata$r	ENDS
;	COMDAT ??_7_System_error@std@@6B@
CONST	SEGMENT
??_7_System_error@std@@6B@ DQ FLAT:??_R4_System_error@std@@6B@ ; std::_System_error::`vftable'
	DQ	FLAT:??_E_System_error@std@@UEAAPEAXI@Z
	DQ	FLAT:?what@exception@std@@UEBAPEBDXZ
CONST	ENDS
;	COMDAT ??_R0?AV?$basic_ios@DU?$char_traits@D@std@@@std@@@8
data$rs	SEGMENT
??_R0?AV?$basic_ios@DU?$char_traits@D@std@@@std@@@8 DQ FLAT:??_7type_info@@6B@ ; std::basic_ios<char,std::char_traits<char> > `RTTI Type Descriptor'
	DQ	0000000000000000H
	DB	'.?AV?$basic_ios@DU?$char_traits@D@std@@@std@@', 00H
data$rs	ENDS
;	COMDAT ??_R4?$basic_filebuf@DU?$char_traits@D@std@@@std@@6B@
rdata$r	SEGMENT
??_R4?$basic_filebuf@DU?$char_traits@D@std@@@std@@6B@ DD 01H ; std::basic_filebuf<char,std::char_traits<char> >::`RTTI Complete Object Locator'
	DD	00H
	DD	00H
	DD	imagerel ??_R0?AV?$basic_filebuf@DU?$char_traits@D@std@@@std@@@8
	DD	imagerel ??_R3?$basic_filebuf@DU?$char_traits@D@std@@@std@@8
	DD	imagerel ??_R4?$basic_filebuf@DU?$char_traits@D@std@@@std@@6B@
rdata$r	ENDS
;	COMDAT ?_Max_shifted_mantissa@?DC@???$__to_chars@D@std@@YA?AU?$pair@PEADW4errc@std@@@1@QEAD0U__floating_decimal_64@1@W4chars_format@1@N@Z@4QB_KB
CONST	SEGMENT
?_Max_shifted_mantissa@?DC@???$__to_chars@D@std@@YA?AU?$pair@PEADW4errc@std@@@1@QEAD0U__floating_decimal_64@1@W4chars_format@1@N@Z@4QB_KB DQ 001fffffffffffffH ; `std::__to_chars<char>'::`50'::_Max_shifted_mantissa
	DQ	0006666666666666H
	DQ	000147ae147ae147H
	DQ	00004189374bc6a7H
	DQ	00000d1b71758e21H
	DQ	0000029f16b11c6dH
	DQ	0000008637bd05afH
	DQ	0000001ad7f29abcH
	DQ	000000055e63b88cH
	DQ	0000000112e0be82H
	DQ	0000000036f9bfb3H
	DQ	000000000afebff0H
	DQ	000000000232f330H
	DQ	0000000000709709H
	DQ	000000000016849bH
	DQ	00000000000480ebH
	DQ	000000000000e695H
	DQ	0000000000002e1dH
	DQ	0000000000000939H
	DQ	00000000000001d8H
	DQ	000000000000005eH
	DQ	0000000000000012H
	DQ	0000000000000003H
CONST	ENDS
;	COMDAT ??_R3Worker@@8
rdata$r	SEGMENT
??_R3Worker@@8 DD 00H					; Worker::`RTTI Class Hierarchy Descriptor'
	DD	00H
	DD	01H
	DD	imagerel ??_R2Worker@@8
rdata$r	ENDS
;	COMDAT ??_7runtime_error@std@@6B@
CONST	SEGMENT
??_7runtime_error@std@@6B@ DQ FLAT:??_R4runtime_error@std@@6B@ ; std::runtime_error::`vftable'
	DQ	FLAT:??_Eruntime_error@std@@UEAAPEAXI@Z
	DQ	FLAT:?what@exception@std@@UEBAPEBDXZ
CONST	ENDS
;	COMDAT _CT??_R0?AVbad_array_new_length@std@@@8??0bad_array_new_length@std@@QEAA@AEBV01@@Z24
xdata$x	SEGMENT
_CT??_R0?AVbad_array_new_length@std@@@8??0bad_array_new_length@std@@QEAA@AEBV01@@Z24 DD 00H
	DD	imagerel ??_R0?AVbad_array_new_length@std@@@8
	DD	00H
	DD	0ffffffffH
	ORG $+4
	DD	018H
	DD	imagerel ??0bad_array_new_length@std@@QEAA@AEBV01@@Z
xdata$x	ENDS
;	COMDAT ??_7LightShader@@6B@
CONST	SEGMENT
??_7LightShader@@6B@ DQ FLAT:??_R4LightShader@@6B@	; LightShader::`vftable'
	DQ	FLAT:?IsDepthShaderOverrided@Shader@@MEAA_NXZ
	DQ	FLAT:?IsHaveDepthShader@Shader@@MEAA_NXZ
	DQ	FLAT:?DepthVertex@Shader@@UEAA?AV?$basic_string@DU?$char_traits@D@std@@V?$allocator@D@2@@std@@XZ
	DQ	FLAT:?DepthFragment@Shader@@UEAA?AV?$basic_string@DU?$char_traits@D@std@@V?$allocator@D@2@@std@@XZ
	DQ	FLAT:?GetVertexCode@LightShader@@EEAA?AV?$basic_string@DU?$char_traits@D@std@@V?$allocator@D@2@@std@@XZ
	DQ	FLAT:?GetFragmentCode@LightShader@@EEAA?AV?$basic_string@DU?$char_traits@D@std@@V?$allocator@D@2@@std@@XZ
	DQ	FLAT:?vertexShaderSrc@Shader@@UEAAPEBDXZ
	DQ	FLAT:?init@Shader@@UEAAXXZ
CONST	ENDS
;	COMDAT ??_R3exception@std@@8
rdata$r	SEGMENT
??_R3exception@std@@8 DD 00H				; std::exception::`RTTI Class Hierarchy Descriptor'
	DD	00H
	DD	01H
	DD	imagerel ??_R2exception@std@@8
rdata$r	ENDS
;	COMDAT ??_R1A@?0A@EA@ios_base@std@@8
rdata$r	SEGMENT
??_R1A@?0A@EA@ios_base@std@@8 DD imagerel ??_R0?AVios_base@std@@@8 ; std::ios_base::`RTTI Base Class Descriptor at (0,-1,0,64)'
	DD	01H
	DD	00H
	DD	0ffffffffH
	DD	00H
	DD	040H
	DD	imagerel ??_R3ios_base@std@@8
rdata$r	ENDS
;	COMDAT ??_R0?AVGameObject@@@8
data$rs	SEGMENT
??_R0?AVGameObject@@@8 DQ FLAT:??_7type_info@@6B@	; GameObject `RTTI Type Descriptor'
	DQ	0000000000000000H
	DB	'.?AVGameObject@@', 00H
data$rs	ENDS
;	COMDAT ??_R4?$basic_ifstream@DU?$char_traits@D@std@@@std@@6B@
rdata$r	SEGMENT
??_R4?$basic_ifstream@DU?$char_traits@D@std@@@std@@6B@ DD 01H ; std::basic_ifstream<char,std::char_traits<char> >::`RTTI Complete Object Locator'
	DD	0b0H
	DD	04H
	DD	imagerel ??_R0?AV?$basic_ifstream@DU?$char_traits@D@std@@@std@@@8
	DD	imagerel ??_R3?$basic_ifstream@DU?$char_traits@D@std@@@std@@8
	DD	imagerel ??_R4?$basic_ifstream@DU?$char_traits@D@std@@@std@@6B@
rdata$r	ENDS
;	COMDAT ??_R0?AVbad_optional_access@std@@@8
data$r	SEGMENT
??_R0?AVbad_optional_access@std@@@8 DQ FLAT:??_7type_info@@6B@ ; std::bad_optional_access `RTTI Type Descriptor'
	DQ	0000000000000000H
	DB	'.?AVbad_optional_access@std@@', 00H
data$r	ENDS
;	COMDAT ??_R0?AV?$basic_istream@DU?$char_traits@D@std@@@std@@@8
data$rs	SEGMENT
??_R0?AV?$basic_istream@DU?$char_traits@D@std@@@std@@@8 DQ FLAT:??_7type_info@@6B@ ; std::basic_istream<char,std::char_traits<char> > `RTTI Type Descriptor'
	DQ	0000000000000000H
	DB	'.?AV?$basic_istream@DU?$char_traits@D@std@@@std@@', 00H
data$rs	ENDS
;	COMDAT ??_R0?AVShader@@@8
data$rs	SEGMENT
??_R0?AVShader@@@8 DQ FLAT:??_7type_info@@6B@		; Shader `RTTI Type Descriptor'
	DQ	0000000000000000H
	DB	'.?AVShader@@', 00H
data$rs	ENDS
;	COMDAT ??_R1A@?0A@EA@?$_Fmt_iterator_buffer@V?$back_insert_iterator@V?$basic_string@DU?$char_traits@D@std@@V?$allocator@D@2@@std@@@std@@DU_Fmt_buffer_traits@2@@std@@8
rdata$r	SEGMENT
??_R1A@?0A@EA@?$_Fmt_iterator_buffer@V?$back_insert_iterator@V?$basic_string@DU?$char_traits@D@std@@V?$allocator@D@2@@std@@@std@@DU_Fmt_buffer_traits@2@@std@@8 DD imagerel ??_R0?AV?$_Fmt_iterator_buffer@V?$back_insert_iterator@V?$basic_string@DU?$char_traits@D@std@@V?$allocator@D@2@@std@@@std@@DU_Fmt_buffer_traits@2@@std@@@8 ; std::_Fmt_iterator_buffer<std::back_insert_iterator<std::basic_string<char,std::char_traits<char>,std::allocator<char> > >,char,std::_Fmt_buffer_traits>::`RTTI Base Class Descriptor at (0,-1,0,64)'
	DD	02H
	DD	00H
	DD	0ffffffffH
	DD	00H
	DD	040H
	DD	imagerel ??_R3?$_Fmt_iterator_buffer@V?$back_insert_iterator@V?$basic_string@DU?$char_traits@D@std@@V?$allocator@D@2@@std@@@std@@DU_Fmt_buffer_traits@2@@std@@8
rdata$r	ENDS
;	COMDAT ??_R0?AV?$basic_istringstream@DU?$char_traits@D@std@@V?$allocator@D@2@@std@@@8
data$rs	SEGMENT
??_R0?AV?$basic_istringstream@DU?$char_traits@D@std@@V?$allocator@D@2@@std@@@8 DQ FLAT:??_7type_info@@6B@ ; std::basic_istringstream<char,std::char_traits<char>,std::allocator<char> > `RTTI Type Descriptor'
	DQ	0000000000000000H
	DB	'.?AV?$basic_istringstream@DU?$char_traits@D@std@@V?$allo'
	DB	'cator@D@2@@std@@', 00H
data$rs	ENDS
;	COMDAT ??_R17?0A@EA@GameObject@@8
rdata$r	SEGMENT
??_R17?0A@EA@GameObject@@8 DD imagerel ??_R0?AVGameObject@@@8 ; GameObject::`RTTI Base Class Descriptor at (8,-1,0,64)'
	DD	00H
	DD	08H
	DD	0ffffffffH
	DD	00H
	DD	040H
	DD	imagerel ??_R3GameObject@@8
rdata$r	ENDS
;	COMDAT ??_R3?$_Fmt_iterator_buffer@V?$back_insert_iterator@V?$basic_string@DU?$char_traits@D@std@@V?$allocator@D@2@@std@@@std@@DU_Fmt_buffer_traits@2@@std@@8
rdata$r	SEGMENT
??_R3?$_Fmt_iterator_buffer@V?$back_insert_iterator@V?$basic_string@DU?$char_traits@D@std@@V?$allocator@D@2@@std@@@std@@DU_Fmt_buffer_traits@2@@std@@8 DD 00H ; std::_Fmt_iterator_buffer<std::back_insert_iterator<std::basic_string<char,std::char_traits<char>,std::allocator<char> > >,char,std::_Fmt_buffer_traits>::`RTTI Class Hierarchy Descriptor'
	DD	01H
	DD	03H
	DD	imagerel ??_R2?$_Fmt_iterator_buffer@V?$back_insert_iterator@V?$basic_string@DU?$char_traits@D@std@@V?$allocator@D@2@@std@@@std@@DU_Fmt_buffer_traits@2@@std@@8
rdata$r	ENDS
;	COMDAT ??_7exception@std@@6B@
CONST	SEGMENT
??_7exception@std@@6B@ DQ FLAT:??_R4exception@std@@6B@	; std::exception::`vftable'
	DQ	FLAT:??_Eexception@std@@UEAAPEAXI@Z
	DQ	FLAT:?what@exception@std@@UEBAPEBDXZ
CONST	ENDS
;	COMDAT ??_R2DirectionalLight@@8
rdata$r	SEGMENT
??_R2DirectionalLight@@8 DD imagerel ??_R1A@?0A@EA@DirectionalLight@@8 ; DirectionalLight::`RTTI Base Class Array'
	DD	imagerel ??_R1A@?0A@EA@LightSource@@8
	DD	imagerel ??_R17?0A@EA@GameObject@@8
	ORG $+3
rdata$r	ENDS
;	COMDAT ??_R4Material@@6B@
rdata$r	SEGMENT
??_R4Material@@6B@ DD 01H				; Material::`RTTI Complete Object Locator'
	DD	00H
	DD	00H
	DD	imagerel ??_R0?AVMaterial@@@8
	DD	imagerel ??_R3Material@@8
	DD	imagerel ??_R4Material@@6B@
rdata$r	ENDS
;	COMDAT ??_R4Shader_CN@@6B@
rdata$r	SEGMENT
??_R4Shader_CN@@6B@ DD 01H				; Shader_CN::`RTTI Complete Object Locator'
	DD	00H
	DD	00H
	DD	imagerel ??_R0?AVShader_CN@@@8
	DD	imagerel ??_R3Shader_CN@@8
	DD	imagerel ??_R4Shader_CN@@6B@
rdata$r	ENDS
;	COMDAT ?_Static@?1???$_Immortalize_memcpy_image@V_System_error_category@std@@@std@@YAAEBV_System_error_category@1@XZ@4V21@B
_DATA	SEGMENT
?_Static@?1???$_Immortalize_memcpy_image@V_System_error_category@std@@@std@@YAAEBV_System_error_category@1@XZ@4V21@B DQ FLAT:??_7_System_error_category@std@@6B@ ; `std::_Immortalize_memcpy_image<std::_System_error_category>'::`2'::_Static
	DQ	0000000000000007H
_DATA	ENDS
;	COMDAT ??_R0?AVLightShader@@@8
data$rs	SEGMENT
??_R0?AVLightShader@@@8 DQ FLAT:??_7type_info@@6B@	; LightShader `RTTI Type Descriptor'
	DQ	0000000000000000H
	DB	'.?AVLightShader@@', 00H
data$rs	ENDS
;	COMDAT ??_R2Material_CNShader@@8
rdata$r	SEGMENT
??_R2Material_CNShader@@8 DD imagerel ??_R1A@?0A@EA@Material_CNShader@@8 ; Material_CNShader::`RTTI Base Class Array'
	DD	imagerel ??_R1A@?0A@EA@Material@@8
	ORG $+3
rdata$r	ENDS
;	COMDAT ??_R1A@?0A@EA@DirectionalLight@@8
rdata$r	SEGMENT
??_R1A@?0A@EA@DirectionalLight@@8 DD imagerel ??_R0?AVDirectionalLight@@@8 ; DirectionalLight::`RTTI Base Class Descriptor at (0,-1,0,64)'
	DD	02H
	DD	00H
	DD	0ffffffffH
	DD	00H
	DD	040H
	DD	imagerel ??_R3DirectionalLight@@8
rdata$r	ENDS
;	COMDAT ??_7?$_Fmt_iterator_buffer@V?$back_insert_iterator@V?$basic_string@DU?$char_traits@D@std@@V?$allocator@D@2@@std@@@std@@DU_Fmt_buffer_traits@2@@std@@6B@
CONST	SEGMENT
??_7?$_Fmt_iterator_buffer@V?$back_insert_iterator@V?$basic_string@DU?$char_traits@D@std@@V?$allocator@D@2@@std@@@std@@DU_Fmt_buffer_traits@2@@std@@6B@ DQ FLAT:??_R4?$_Fmt_iterator_buffer@V?$back_insert_iterator@V?$basic_string@DU?$char_traits@D@std@@V?$allocator@D@2@@std@@@std@@DU_Fmt_buffer_traits@2@@std@@6B@ ; std::_Fmt_iterator_buffer<std::back_insert_iterator<std::basic_string<char,std::char_traits<char>,std::allocator<char> > >,char,std::_Fmt_buffer_traits>::`vftable'
	DQ	FLAT:?_Grow@?$_Fmt_iterator_buffer@V?$back_insert_iterator@V?$basic_string@DU?$char_traits@D@std@@V?$allocator@D@2@@std@@@std@@DU_Fmt_buffer_traits@2@@std@@EEAAX_K@Z
CONST	ENDS
;	COMDAT ??_R1A@?0A@EA@Shader3d@@8
rdata$r	SEGMENT
??_R1A@?0A@EA@Shader3d@@8 DD imagerel ??_R0?AVShader3d@@@8 ; Shader3d::`RTTI Base Class Descriptor at (0,-1,0,64)'
	DD	01H
	DD	00H
	DD	0ffffffffH
	DD	00H
	DD	040H
	DD	imagerel ??_R3Shader3d@@8
rdata$r	ENDS
;	COMDAT ??_7?$basic_stringbuf@DU?$char_traits@D@std@@V?$allocator@D@2@@std@@6B@
CONST	SEGMENT
??_7?$basic_stringbuf@DU?$char_traits@D@std@@V?$allocator@D@2@@std@@6B@ DQ FLAT:??_R4?$basic_stringbuf@DU?$char_traits@D@std@@V?$allocator@D@2@@std@@6B@ ; std::basic_stringbuf<char,std::char_traits<char>,std::allocator<char> >::`vftable'
	DQ	FLAT:??_E?$basic_stringbuf@DU?$char_traits@D@std@@V?$allocator@D@2@@std@@UEAAPEAXI@Z
	DQ	FLAT:?_Lock@?$basic_streambuf@DU?$char_traits@D@std@@@std@@UEAAXXZ
	DQ	FLAT:?_Unlock@?$basic_streambuf@DU?$char_traits@D@std@@@std@@UEAAXXZ
	DQ	FLAT:?overflow@?$basic_stringbuf@DU?$char_traits@D@std@@V?$allocator@D@2@@std@@MEAAHH@Z
	DQ	FLAT:?pbackfail@?$basic_stringbuf@DU?$char_traits@D@std@@V?$allocator@D@2@@std@@MEAAHH@Z
	DQ	FLAT:?showmanyc@?$basic_streambuf@DU?$char_traits@D@std@@@std@@MEAA_JXZ
	DQ	FLAT:?underflow@?$basic_stringbuf@DU?$char_traits@D@std@@V?$allocator@D@2@@std@@MEAAHXZ
	DQ	FLAT:?uflow@?$basic_streambuf@DU?$char_traits@D@std@@@std@@MEAAHXZ
	DQ	FLAT:?xsgetn@?$basic_streambuf@DU?$char_traits@D@std@@@std@@MEAA_JPEAD_J@Z
	DQ	FLAT:?xsputn@?$basic_streambuf@DU?$char_traits@D@std@@@std@@MEAA_JPEBD_J@Z
	DQ	FLAT:?seekoff@?$basic_stringbuf@DU?$char_traits@D@std@@V?$allocator@D@2@@std@@MEAA?AV?$fpos@U_Mbstatet@@@2@_JHH@Z
	DQ	FLAT:?seekpos@?$basic_stringbuf@DU?$char_traits@D@std@@V?$allocator@D@2@@std@@MEAA?AV?$fpos@U_Mbstatet@@@2@V32@H@Z
	DQ	FLAT:?setbuf@?$basic_streambuf@DU?$char_traits@D@std@@@std@@MEAAPEAV12@PEAD_J@Z
	DQ	FLAT:?sync@?$basic_streambuf@DU?$char_traits@D@std@@@std@@MEAAHXZ
	DQ	FLAT:?imbue@?$basic_streambuf@DU?$char_traits@D@std@@@std@@MEAAXAEBVlocale@2@@Z
CONST	ENDS
;	COMDAT _CTA4?AVsystem_error@std@@
xdata$x	SEGMENT
_CTA4?AVsystem_error@std@@ DD 04H
	DD	imagerel _CT??_R0?AVsystem_error@std@@@8??0system_error@std@@QEAA@AEBV01@@Z40
	DD	imagerel _CT??_R0?AV_System_error@std@@@8??0_System_error@std@@QEAA@AEBV01@@Z40
	DD	imagerel _CT??_R0?AVruntime_error@std@@@8??0runtime_error@std@@QEAA@AEBV01@@Z24
	DD	imagerel _CT??_R0?AVexception@std@@@8??0exception@std@@QEAA@AEBV01@@Z24
xdata$x	ENDS
;	COMDAT ??_R3Shader3d@@8
rdata$r	SEGMENT
??_R3Shader3d@@8 DD 00H					; Shader3d::`RTTI Class Hierarchy Descriptor'
	DD	00H
	DD	02H
	DD	imagerel ??_R2Shader3d@@8
rdata$r	ENDS
;	COMDAT ??_R1A@?0A@EA@Shader@@8
rdata$r	SEGMENT
??_R1A@?0A@EA@Shader@@8 DD imagerel ??_R0?AVShader@@@8	; Shader::`RTTI Base Class Descriptor at (0,-1,0,64)'
	DD	00H
	DD	00H
	DD	0ffffffffH
	DD	00H
	DD	040H
	DD	imagerel ??_R3Shader@@8
rdata$r	ENDS
;	COMDAT _CTA2?AVbad_optional_access@std@@
xdata$x	SEGMENT
_CTA2?AVbad_optional_access@std@@ DD 02H
	DD	imagerel _CT??_R0?AVbad_optional_access@std@@@8??0bad_optional_access@std@@QEAA@AEBV01@@Z24
	DD	imagerel _CT??_R0?AVexception@std@@@8??0exception@std@@QEAA@AEBV01@@Z24
xdata$x	ENDS
;	COMDAT _TI2?AVbad_cast@std@@
xdata$x	SEGMENT
_TI2?AVbad_cast@std@@ DD 00H
	DD	imagerel ??1bad_cast@std@@UEAA@XZ
	DD	00H
	DD	imagerel _CTA2?AVbad_cast@std@@
xdata$x	ENDS
;	COMDAT ??_R3Material_CNShader@@8
rdata$r	SEGMENT
??_R3Material_CNShader@@8 DD 00H			; Material_CNShader::`RTTI Class Hierarchy Descriptor'
	DD	00H
	DD	02H
	DD	imagerel ??_R2Material_CNShader@@8
rdata$r	ENDS
;	COMDAT ??_R0?AVbad_cast@std@@@8
data$r	SEGMENT
??_R0?AVbad_cast@std@@@8 DQ FLAT:??_7type_info@@6B@	; std::bad_cast `RTTI Type Descriptor'
	DQ	0000000000000000H
	DB	'.?AVbad_cast@std@@', 00H
data$r	ENDS
;	COMDAT ??_R1A@?0A@EA@facet@locale@std@@8
rdata$r	SEGMENT
??_R1A@?0A@EA@facet@locale@std@@8 DD imagerel ??_R0?AVfacet@locale@std@@@8 ; std::locale::facet::`RTTI Base Class Descriptor at (0,-1,0,64)'
	DD	02H
	DD	00H
	DD	0ffffffffH
	DD	00H
	DD	040H
	DD	imagerel ??_R3facet@locale@std@@8
rdata$r	ENDS
;	COMDAT ??_7bad_optional_access@std@@6B@
CONST	SEGMENT
??_7bad_optional_access@std@@6B@ DQ FLAT:??_R4bad_optional_access@std@@6B@ ; std::bad_optional_access::`vftable'
	DQ	FLAT:??_Ebad_optional_access@std@@UEAAPEAXI@Z
	DQ	FLAT:?what@bad_optional_access@std@@UEBAPEBDXZ
CONST	ENDS
;	COMDAT ?tag@?CL@??stbi__process_marker@@YAHPEAUstbi__jpeg@@H@Z@4QBEB
CONST	SEGMENT
?tag@?CL@??stbi__process_marker@@YAHPEAUstbi__jpeg@@H@Z@4QBEB DB 04aH ; `stbi__process_marker'::`43'::tag
	DB	046H
	DB	049H
	DB	046H
	DB	00H
CONST	ENDS
;	COMDAT ??_R2error_category@std@@8
rdata$r	SEGMENT
??_R2error_category@std@@8 DD imagerel ??_R1A@?0A@EA@error_category@std@@8 ; std::error_category::`RTTI Base Class Array'
	ORG $+3
rdata$r	ENDS
;	COMDAT ??_R0?AUDepthBuffer@@@8
data$rs	SEGMENT
??_R0?AUDepthBuffer@@@8 DQ FLAT:??_7type_info@@6B@	; DepthBuffer `RTTI Type Descriptor'
	DQ	0000000000000000H
	DB	'.?AUDepthBuffer@@', 00H
data$rs	ENDS
;	COMDAT ??_R0?AVLightSource@@@8
data$rs	SEGMENT
??_R0?AVLightSource@@@8 DQ FLAT:??_7type_info@@6B@	; LightSource `RTTI Type Descriptor'
	DQ	0000000000000000H
	DB	'.?AVLightSource@@', 00H
data$rs	ENDS
;	COMDAT ??_R4DepthBuffer@@6B@
rdata$r	SEGMENT
??_R4DepthBuffer@@6B@ DD 01H				; DepthBuffer::`RTTI Complete Object Locator'
	DD	00H
	DD	00H
	DD	imagerel ??_R0?AUDepthBuffer@@@8
	DD	imagerel ??_R3DepthBuffer@@8
	DD	imagerel ??_R4DepthBuffer@@6B@
rdata$r	ENDS
;	COMDAT ??_R4ScreenSpaceShadows@@6B@
rdata$r	SEGMENT
??_R4ScreenSpaceShadows@@6B@ DD 01H			; ScreenSpaceShadows::`RTTI Complete Object Locator'
	DD	00H
	DD	00H
	DD	imagerel ??_R0?AVScreenSpaceShadows@@@8
	DD	imagerel ??_R3ScreenSpaceShadows@@8
	DD	imagerel ??_R4ScreenSpaceShadows@@6B@
rdata$r	ENDS
;	COMDAT ??_R3?$basic_istringstream@DU?$char_traits@D@std@@V?$allocator@D@2@@std@@8
rdata$r	SEGMENT
??_R3?$basic_istringstream@DU?$char_traits@D@std@@V?$allocator@D@2@@std@@8 DD 00H ; std::basic_istringstream<char,std::char_traits<char>,std::allocator<char> >::`RTTI Class Hierarchy Descriptor'
	DD	00H
	DD	05H
	DD	imagerel ??_R2?$basic_istringstream@DU?$char_traits@D@std@@V?$allocator@D@2@@std@@8
rdata$r	ENDS
;	COMDAT ??_R3format_error@std@@8
rdata$r	SEGMENT
??_R3format_error@std@@8 DD 00H				; std::format_error::`RTTI Class Hierarchy Descriptor'
	DD	00H
	DD	03H
	DD	imagerel ??_R2format_error@std@@8
rdata$r	ENDS
;	COMDAT ?length_dezigzag@?1??stbi__compute_huffman_codes@@YAHPEAUstbi__zbuf@@@Z@4QBEB
CONST	SEGMENT
?length_dezigzag@?1??stbi__compute_huffman_codes@@YAHPEAUstbi__zbuf@@@Z@4QBEB DB 010H ; `stbi__compute_huffman_codes'::`2'::length_dezigzag
	DB	011H
	DB	012H
	DB	00H
	DB	08H
	DB	07H
	DB	09H
	DB	06H
	DB	0aH
	DB	05H
	DB	0bH
	DB	04H
	DB	0cH
	DB	03H
	DB	0dH
	DB	02H
	DB	0eH
	DB	01H
	DB	0fH
CONST	ENDS
;	COMDAT ??_R0?AVMaterial_CNShader@@@8
data$rs	SEGMENT
??_R0?AVMaterial_CNShader@@@8 DQ FLAT:??_7type_info@@6B@ ; Material_CNShader `RTTI Type Descriptor'
	DQ	0000000000000000H
	DB	'.?AVMaterial_CNShader@@', 00H
data$rs	ENDS
;	COMDAT ??_R3_Generic_error_category@std@@8
rdata$r	SEGMENT
??_R3_Generic_error_category@std@@8 DD 00H		; std::_Generic_error_category::`RTTI Class Hierarchy Descriptor'
	DD	00H
	DD	02H
	DD	imagerel ??_R2_Generic_error_category@std@@8
rdata$r	ENDS
;	COMDAT ??_R3?$basic_ios@DU?$char_traits@D@std@@@std@@8
rdata$r	SEGMENT
??_R3?$basic_ios@DU?$char_traits@D@std@@@std@@8 DD 00H	; std::basic_ios<char,std::char_traits<char> >::`RTTI Class Hierarchy Descriptor'
	DD	00H
	DD	03H
	DD	imagerel ??_R2?$basic_ios@DU?$char_traits@D@std@@@std@@8
rdata$r	ENDS
;	COMDAT ??_R3ScreenSpaceShadowShader@@8
rdata$r	SEGMENT
??_R3ScreenSpaceShadowShader@@8 DD 00H			; ScreenSpaceShadowShader::`RTTI Class Hierarchy Descriptor'
	DD	00H
	DD	02H
	DD	imagerel ??_R2ScreenSpaceShadowShader@@8
rdata$r	ENDS
;	COMDAT ??_R2GlFrameBuffer@@8
rdata$r	SEGMENT
??_R2GlFrameBuffer@@8 DD imagerel ??_R1A@?0A@EA@GlFrameBuffer@@8 ; GlFrameBuffer::`RTTI Base Class Array'
	ORG $+3
rdata$r	ENDS
;	COMDAT ?invalid_chunk@?JH@??stbi__parse_png_file@@YAHPEAUstbi__png@@HH@Z@4PADA
_DATA	SEGMENT
?invalid_chunk@?JH@??stbi__parse_png_file@@YAHPEAUstbi__png@@HH@Z@4PADA DB 'X'
	DB	'XXX PNG chunk not known', 00H		; `stbi__parse_png_file'::`151'::invalid_chunk
_DATA	ENDS
;	COMDAT ??_7bad_cast@std@@6B@
CONST	SEGMENT
??_7bad_cast@std@@6B@ DQ FLAT:??_R4bad_cast@std@@6B@	; std::bad_cast::`vftable'
	DQ	FLAT:??_Ebad_cast@std@@UEAAPEAXI@Z
	DQ	FLAT:?what@exception@std@@UEBAPEBDXZ
CONST	ENDS
;	COMDAT _TI5?AVfilesystem_error@filesystem@std@@
xdata$x	SEGMENT
_TI5?AVfilesystem_error@filesystem@std@@ DD 00H
	DD	imagerel ??1filesystem_error@filesystem@std@@UEAA@XZ
	DD	00H
	DD	imagerel _CTA5?AVfilesystem_error@filesystem@std@@
xdata$x	ENDS
;	COMDAT ??_7Material_CNShader@@6B@
CONST	SEGMENT
??_7Material_CNShader@@6B@ DQ FLAT:??_R4Material_CNShader@@6B@ ; Material_CNShader::`vftable'
	DQ	FLAT:?UseMaterial@Material_CNShader@@UEAAXXZ
CONST	ENDS
;	COMDAT ??_R2exception@std@@8
rdata$r	SEGMENT
??_R2exception@std@@8 DD imagerel ??_R1A@?0A@EA@exception@std@@8 ; std::exception::`RTTI Base Class Array'
	ORG $+3
rdata$r	ENDS
;	COMDAT ??_R2bad_cast@std@@8
rdata$r	SEGMENT
??_R2bad_cast@std@@8 DD imagerel ??_R1A@?0A@EA@bad_cast@std@@8 ; std::bad_cast::`RTTI Base Class Array'
	DD	imagerel ??_R1A@?0A@EA@exception@std@@8
	ORG $+3
rdata$r	ENDS
;	COMDAT ??_R3?$basic_stringbuf@DU?$char_traits@D@std@@V?$allocator@D@2@@std@@8
rdata$r	SEGMENT
??_R3?$basic_stringbuf@DU?$char_traits@D@std@@V?$allocator@D@2@@std@@8 DD 00H ; std::basic_stringbuf<char,std::char_traits<char>,std::allocator<char> >::`RTTI Class Hierarchy Descriptor'
	DD	00H
	DD	02H
	DD	imagerel ??_R2?$basic_stringbuf@DU?$char_traits@D@std@@V?$allocator@D@2@@std@@8
rdata$r	ENDS
;	COMDAT ??_R0?AVTextureWorker@@@8
data$rs	SEGMENT
??_R0?AVTextureWorker@@@8 DQ FLAT:??_7type_info@@6B@	; TextureWorker `RTTI Type Descriptor'
	DQ	0000000000000000H
	DB	'.?AVTextureWorker@@', 00H
data$rs	ENDS
;	COMDAT ?_Unknown_error@?4??message@_System_error_category@std@@UEBA?AV?$basic_string@DU?$char_traits@D@std@@V?$allocator@D@2@@3@H@Z@4QBDB
CONST	SEGMENT
?_Unknown_error@?4??message@_System_error_category@std@@UEBA?AV?$basic_string@DU?$char_traits@D@std@@V?$allocator@D@2@@3@H@Z@4QBDB DB 075H ; `std::_System_error_category::message'::`5'::_Unknown_error
	DB	06eH
	DB	06bH
	DB	06eH
	DB	06fH
	DB	077H
	DB	06eH
	DB	020H
	DB	065H
	DB	072H
	DB	072H
	DB	06fH
	DB	072H
	DB	00H
CONST	ENDS
;	COMDAT ??_R4Material_CNShader@@6B@
rdata$r	SEGMENT
??_R4Material_CNShader@@6B@ DD 01H			; Material_CNShader::`RTTI Complete Object Locator'
	DD	00H
	DD	00H
	DD	imagerel ??_R0?AVMaterial_CNShader@@@8
	DD	imagerel ??_R3Material_CNShader@@8
	DD	imagerel ??_R4Material_CNShader@@6B@
rdata$r	ENDS
;	COMDAT _CT??_R0?AVsystem_error@std@@@8??0system_error@std@@QEAA@AEBV01@@Z40
xdata$x	SEGMENT
_CT??_R0?AVsystem_error@std@@@8??0system_error@std@@QEAA@AEBV01@@Z40 DD 00H
	DD	imagerel ??_R0?AVsystem_error@std@@@8
	DD	00H
	DD	0ffffffffH
	ORG $+4
	DD	028H
	DD	imagerel ??0system_error@std@@QEAA@AEBV01@@Z
xdata$x	ENDS
;	COMDAT ??_R0?AV?$basic_streambuf@DU?$char_traits@D@std@@@std@@@8
data$rs	SEGMENT
??_R0?AV?$basic_streambuf@DU?$char_traits@D@std@@@std@@@8 DQ FLAT:??_7type_info@@6B@ ; std::basic_streambuf<char,std::char_traits<char> > `RTTI Type Descriptor'
	DQ	0000000000000000H
	DB	'.?AV?$basic_streambuf@DU?$char_traits@D@std@@@std@@', 00H
data$rs	ENDS
;	COMDAT ??_7GlFrameBuffer@@6B@
CONST	SEGMENT
??_7GlFrameBuffer@@6B@ DQ FLAT:??_R4GlFrameBuffer@@6B@	; GlFrameBuffer::`vftable'
	DQ	FLAT:_purecall
CONST	ENDS
;	COMDAT ??_7bad_alloc@std@@6B@
CONST	SEGMENT
??_7bad_alloc@std@@6B@ DQ FLAT:??_R4bad_alloc@std@@6B@	; std::bad_alloc::`vftable'
	DQ	FLAT:??_Ebad_alloc@std@@UEAAPEAXI@Z
	DQ	FLAT:?what@exception@std@@UEBAPEBDXZ
CONST	ENDS
;	COMDAT _CT??_R0?AVformat_error@std@@@8??0format_error@std@@QEAA@AEBV01@@Z24
xdata$x	SEGMENT
_CT??_R0?AVformat_error@std@@@8??0format_error@std@@QEAA@AEBV01@@Z24 DD 00H
	DD	imagerel ??_R0?AVformat_error@std@@@8
	DD	00H
	DD	0ffffffffH
	ORG $+4
	DD	018H
	DD	imagerel ??0format_error@std@@QEAA@AEBV01@@Z
xdata$x	ENDS
;	COMDAT ?_Adjustment@?CB@???$__to_chars@D@std@@YA?AU?$pair@PEADW4errc@std@@@1@QEAD0U__floating_decimal_64@1@W4chars_format@1@N@Z@4QBEB
CONST	SEGMENT
?_Adjustment@?CB@???$__to_chars@D@std@@YA?AU?$pair@PEADW4errc@std@@@1@QEAD0U__floating_decimal_64@1@W4chars_format@1@N@Z@4QBEB DB 00H ; `std::__to_chars<char>'::`33'::_Adjustment
	DB	00H
	DB	00H
	DB	00H
	DB	00H
	DB	00H
	DB	00H
	DB	00H
	DB	00H
	DB	00H
	DB	00H
	DB	00H
	DB	00H
	DB	00H
	DB	00H
	DB	00H
	DB	00H
	DB	00H
	DB	00H
	DB	00H
	DB	00H
	DB	00H
	DB	00H
	DB	01H
	DB	01H
	DB	00H
	DB	00H
	DB	00H
	DB	01H
	DB	01H
	DB	00H
	DB	01H
	DB	00H
	DB	01H
	DB	01H
	DB	01H
	DB	00H
	DB	01H
	DB	01H
	DB	01H
	DB	00H
	DB	00H
	DB	00H
	DB	00H
	DB	00H
	DB	01H
	DB	01H
	DB	00H
	DB	00H
	DB	01H
	DB	00H
	DB	01H
	DB	01H
	DB	01H
	DB	00H
	DB	00H
	DB	00H
	DB	00H
	DB	01H
	DB	01H
	DB	01H
	DB	01H
	DB	00H
	DB	00H
	DB	00H
	DB	01H
	DB	01H
	DB	01H
	DB	01H
	DB	00H
	DB	00H
	DB	00H
	DB	01H
	DB	01H
	DB	01H
	DB	01H
	DB	00H
	DB	01H
	DB	00H
	DB	01H
	DB	00H
	DB	01H
	DB	01H
	DB	00H
	DB	00H
	DB	00H
	DB	00H
	DB	01H
	DB	01H
	DB	01H
	DB	01H
	DB	00H
	DB	00H
	DB	00H
	DB	00H
	DB	00H
	DB	00H
	DB	00H
	DB	01H
	DB	01H
	DB	00H
	DB	01H
	DB	01H
	DB	00H
	DB	00H
	DB	01H
	DB	00H
	DB	01H
	DB	00H
	DB	01H
	DB	00H
	DB	01H
	DB	01H
	DB	00H
	DB	00H
	DB	00H
	DB	00H
	DB	00H
	DB	01H
	DB	01H
	DB	01H
	DB	00H
	DB	00H
	DB	01H
	DB	01H
	DB	01H
	DB	01H
	DB	01H
	DB	00H
	DB	01H
	DB	00H
	DB	01H
	DB	01H
	DB	00H
	DB	01H
	DB	01H
	DB	00H
	DB	00H
	DB	00H
	DB	00H
	DB	00H
	DB	00H
	DB	00H
	DB	00H
	DB	00H
	DB	01H
	DB	01H
	DB	01H
	DB	00H
	DB	00H
	DB	01H
	DB	00H
	DB	00H
	DB	01H
	DB	00H
	DB	00H
	DB	01H
	DB	01H
	DB	01H
	DB	01H
	DB	00H
	DB	00H
	DB	01H
	DB	01H
	DB	00H
	DB	01H
	DB	01H
	DB	00H
	DB	01H
	DB	01H
	DB	00H
	DB	01H
	DB	00H
	DB	00H
	DB	00H
	DB	01H
	DB	00H
	DB	00H
	DB	00H
	DB	01H
	DB	00H
	DB	01H
	DB	00H
	DB	01H
	DB	00H
	DB	01H
	DB	01H
	DB	01H
	DB	00H
	DB	00H
	DB	00H
	DB	00H
	DB	00H
	DB	00H
	DB	01H
	DB	01H
	DB	01H
	DB	01H
	DB	00H
	DB	00H
	DB	01H
	DB	00H
	DB	01H
	DB	01H
	DB	01H
	DB	00H
	DB	00H
	DB	00H
	DB	01H
	DB	00H
	DB	01H
	DB	01H
	DB	01H
	DB	01H
	DB	01H
	DB	01H
	DB	00H
	DB	01H
	DB	00H
	DB	01H
	DB	01H
	DB	00H
	DB	00H
	DB	00H
	DB	01H
	DB	01H
	DB	01H
	DB	00H
	DB	01H
	DB	01H
	DB	00H
	DB	00H
	DB	00H
	DB	01H
	DB	00H
	DB	00H
	DB	00H
	DB	01H
	DB	00H
	DB	01H
	DB	00H
	DB	00H
	DB	00H
	DB	00H
	DB	00H
	DB	00H
	DB	00H
	DB	01H
	DB	00H
	DB	01H
	DB	01H
	DB	00H
	DB	00H
	DB	01H
	DB	01H
	DB	01H
	DB	00H
	DB	00H
	DB	00H
	DB	01H
	DB	00H
	DB	01H
	DB	00H
	DB	00H
	DB	00H
	DB	00H
	DB	00H
	DB	01H
	DB	01H
	DB	00H
	DB	00H
	DB	01H
	DB	00H
	DB	01H
	DB	01H
	DB	01H
	DB	00H
	DB	00H
	DB	01H
	DB	00H
	DB	00H
	DB	00H
	DB	00H
	DB	01H
	DB	00H
	DB	01H
	DB	00H
	DB	00H
	DB	00H
	DB	00H
	DB	00H
	DB	01H
	DB	00H
	DB	01H
	DB	00H
	DB	01H
	DB	01H
	DB	00H
	DB	01H
	DB	00H
	DB	00H
	DB	00H
	DB	00H
	DB	00H
	DB	01H
	DB	01H
	DB	00H
	DB	01H
	DB	00H
CONST	ENDS
;	COMDAT ??_R2_System_error_category@std@@8
rdata$r	SEGMENT
??_R2_System_error_category@std@@8 DD imagerel ??_R1A@?0A@EA@_System_error_category@std@@8 ; std::_System_error_category::`RTTI Base Class Array'
	DD	imagerel ??_R1A@?0A@EA@error_category@std@@8
	ORG $+3
rdata$r	ENDS
;	COMDAT ??_R3GlFrameBuffer@@8
rdata$r	SEGMENT
??_R3GlFrameBuffer@@8 DD 00H				; GlFrameBuffer::`RTTI Class Hierarchy Descriptor'
	DD	00H
	DD	01H
	DD	imagerel ??_R2GlFrameBuffer@@8
rdata$r	ENDS
;	COMDAT ??_R4LightShader@@6B@
rdata$r	SEGMENT
??_R4LightShader@@6B@ DD 01H				; LightShader::`RTTI Complete Object Locator'
	DD	00H
	DD	00H
	DD	imagerel ??_R0?AVLightShader@@@8
	DD	imagerel ??_R3LightShader@@8
	DD	imagerel ??_R4LightShader@@6B@
rdata$r	ENDS
;	COMDAT ??_R2Shader@@8
rdata$r	SEGMENT
??_R2Shader@@8 DD imagerel ??_R1A@?0A@EA@Shader@@8	; Shader::`RTTI Base Class Array'
	ORG $+3
rdata$r	ENDS
;	COMDAT ??_R0?AV?$numpunct@D@std@@@8
data$rs	SEGMENT
??_R0?AV?$numpunct@D@std@@@8 DQ FLAT:??_7type_info@@6B@	; std::numpunct<char> `RTTI Type Descriptor'
	DQ	0000000000000000H
	DB	'.?AV?$numpunct@D@std@@', 00H
data$rs	ENDS
;	COMDAT _CTA2?AVbad_cast@std@@
xdata$x	SEGMENT
_CTA2?AVbad_cast@std@@ DD 02H
	DD	imagerel _CT??_R0?AVbad_cast@std@@@8??0bad_cast@std@@QEAA@AEBV01@@Z24
	DD	imagerel _CT??_R0?AVexception@std@@@8??0exception@std@@QEAA@AEBV01@@Z24
xdata$x	ENDS
;	COMDAT ??_R17?0A@EA@_Crt_new_delete@std@@8
rdata$r	SEGMENT
??_R17?0A@EA@_Crt_new_delete@std@@8 DD imagerel ??_R0?AU_Crt_new_delete@std@@@8 ; std::_Crt_new_delete::`RTTI Base Class Descriptor at (8,-1,0,64)'
	DD	00H
	DD	08H
	DD	0ffffffffH
	DD	00H
	DD	040H
	DD	imagerel ??_R3_Crt_new_delete@std@@8
rdata$r	ENDS
;	COMDAT ?tris@M_Cube@@0QBIB
CONST	SEGMENT
?tris@M_Cube@@0QBIB DD 00H				; M_Cube::tris
	DD	01H
	DD	02H
	DD	03H
	DD	02H
	DD	01H
	DD	06H
	DD	05H
	DD	04H
	DD	05H
	DD	06H
	DD	07H
	DD	08H
	DD	09H
	DD	0aH
	DD	0bH
	DD	0aH
	DD	09H
	DD	0eH
	DD	0dH
	DD	0cH
	DD	0dH
	DD	0eH
	DD	0fH
	DD	012H
	DD	011H
	DD	010H
	DD	011H
	DD	012H
	DD	013H
	DD	014H
	DD	015H
	DD	016H
	DD	017H
	DD	016H
	DD	015H
CONST	ENDS
;	COMDAT ??_R3TextureWorker@@8
rdata$r	SEGMENT
??_R3TextureWorker@@8 DD 00H				; TextureWorker::`RTTI Class Hierarchy Descriptor'
	DD	00H
	DD	02H
	DD	imagerel ??_R2TextureWorker@@8
rdata$r	ENDS
;	COMDAT ??_R0?AV?$_Iosb@H@std@@@8
data$rs	SEGMENT
??_R0?AV?$_Iosb@H@std@@@8 DQ FLAT:??_7type_info@@6B@	; std::_Iosb<int> `RTTI Type Descriptor'
	DQ	0000000000000000H
	DB	'.?AV?$_Iosb@H@std@@', 00H
data$rs	ENDS
;	COMDAT ??_R1A@?0A@EA@Material_CNShader@@8
rdata$r	SEGMENT
??_R1A@?0A@EA@Material_CNShader@@8 DD imagerel ??_R0?AVMaterial_CNShader@@@8 ; Material_CNShader::`RTTI Base Class Descriptor at (0,-1,0,64)'
	DD	01H
	DD	00H
	DD	0ffffffffH
	DD	00H
	DD	040H
	DD	imagerel ??_R3Material_CNShader@@8
rdata$r	ENDS
;	COMDAT ??_R0?AU_Crt_new_delete@std@@@8
data$rs	SEGMENT
??_R0?AU_Crt_new_delete@std@@@8 DQ FLAT:??_7type_info@@6B@ ; std::_Crt_new_delete `RTTI Type Descriptor'
	DQ	0000000000000000H
	DB	'.?AU_Crt_new_delete@std@@', 00H
data$rs	ENDS
;	COMDAT ??_R3bad_optional_access@std@@8
rdata$r	SEGMENT
??_R3bad_optional_access@std@@8 DD 00H			; std::bad_optional_access::`RTTI Class Hierarchy Descriptor'
	DD	00H
	DD	02H
	DD	imagerel ??_R2bad_optional_access@std@@8
rdata$r	ENDS
;	COMDAT ??_R0?AV_Generic_error_category@std@@@8
data$rs	SEGMENT
??_R0?AV_Generic_error_category@std@@@8 DQ FLAT:??_7type_info@@6B@ ; std::_Generic_error_category `RTTI Type Descriptor'
	DQ	0000000000000000H
	DB	'.?AV_Generic_error_category@std@@', 00H
data$rs	ENDS
;	COMDAT ??_R3_System_error@std@@8
rdata$r	SEGMENT
??_R3_System_error@std@@8 DD 00H			; std::_System_error::`RTTI Class Hierarchy Descriptor'
	DD	00H
	DD	03H
	DD	imagerel ??_R2_System_error@std@@8
rdata$r	ENDS
;	COMDAT ??_R2?$basic_istream@DU?$char_traits@D@std@@@std@@8
rdata$r	SEGMENT
??_R2?$basic_istream@DU?$char_traits@D@std@@@std@@8 DD imagerel ??_R1A@?0A@EA@?$basic_istream@DU?$char_traits@D@std@@@std@@8 ; std::basic_istream<char,std::char_traits<char> >::`RTTI Base Class Array'
	DD	imagerel ??_R1A@A@3FA@?$basic_ios@DU?$char_traits@D@std@@@std@@8
	DD	imagerel ??_R1A@A@3EA@ios_base@std@@8
	DD	imagerel ??_R17A@3EA@?$_Iosb@H@std@@8
	ORG $+3
rdata$r	ENDS
;	COMDAT ??_R1A@?0A@EA@?$_Fmt_buffer@D@std@@8
rdata$r	SEGMENT
??_R1A@?0A@EA@?$_Fmt_buffer@D@std@@8 DD imagerel ??_R0?AV?$_Fmt_buffer@D@std@@@8 ; std::_Fmt_buffer<char>::`RTTI Base Class Descriptor at (0,-1,0,64)'
	DD	00H
	DD	00H
	DD	0ffffffffH
	DD	00H
	DD	040H
	DD	imagerel ??_R3?$_Fmt_buffer@D@std@@8
rdata$r	ENDS
;	COMDAT ??_7Shader3d@@6B@
CONST	SEGMENT
??_7Shader3d@@6B@ DQ FLAT:??_R4Shader3d@@6B@		; Shader3d::`vftable'
	DQ	FLAT:?IsDepthShaderOverrided@Shader@@MEAA_NXZ
	DQ	FLAT:?IsHaveDepthShader@Shader3d@@UEAA_NXZ
	DQ	FLAT:?DepthVertex@Shader@@UEAA?AV?$basic_string@DU?$char_traits@D@std@@V?$allocator@D@2@@std@@XZ
	DQ	FLAT:?DepthFragment@Shader@@UEAA?AV?$basic_string@DU?$char_traits@D@std@@V?$allocator@D@2@@std@@XZ
	DQ	FLAT:?GetVertexCode@Shader3d@@UEAA?AV?$basic_string@DU?$char_traits@D@std@@V?$allocator@D@2@@std@@XZ
	DQ	FLAT:?GetFragmentCode@Shader3d@@UEAA?AV?$basic_string@DU?$char_traits@D@std@@V?$allocator@D@2@@std@@XZ
	DQ	FLAT:?vertexShaderSrc@Shader@@UEAAPEBDXZ
	DQ	FLAT:?init@Shader@@UEAAXXZ
	DQ	FLAT:?VVar@Shader3d@@MEAA?AV?$basic_string@DU?$char_traits@D@std@@V?$allocator@D@2@@std@@XZ
	DQ	FLAT:?VMain@Shader3d@@MEAA?AV?$basic_string@DU?$char_traits@D@std@@V?$allocator@D@2@@std@@XZ
	DQ	FLAT:?FVar@Shader3d@@MEAA?AV?$basic_string@DU?$char_traits@D@std@@V?$allocator@D@2@@std@@XZ
	DQ	FLAT:?FMain@Shader3d@@MEAA?AV?$basic_string@DU?$char_traits@D@std@@V?$allocator@D@2@@std@@XZ
	DQ	FLAT:?ShadowFVar@Shader3d@@MEAA?AV?$basic_string@DU?$char_traits@D@std@@V?$allocator@D@2@@std@@XZ
	DQ	FLAT:?ShadowFMain@Shader3d@@MEAA?AV?$basic_string@DU?$char_traits@D@std@@V?$allocator@D@2@@std@@XZ
CONST	ENDS
;	COMDAT ??_R0?AV?$_Fmt_buffer@D@std@@@8
data$rs	SEGMENT
??_R0?AV?$_Fmt_buffer@D@std@@@8 DQ FLAT:??_7type_info@@6B@ ; std::_Fmt_buffer<char> `RTTI Type Descriptor'
	DQ	0000000000000000H
	DB	'.?AV?$_Fmt_buffer@D@std@@', 00H
data$rs	ENDS
;	COMDAT ??_R0?AV_Facet_base@std@@@8
data$rs	SEGMENT
??_R0?AV_Facet_base@std@@@8 DQ FLAT:??_7type_info@@6B@	; std::_Facet_base `RTTI Type Descriptor'
	DQ	0000000000000000H
	DB	'.?AV_Facet_base@std@@', 00H
data$rs	ENDS
;	COMDAT ??_7?$basic_filebuf@DU?$char_traits@D@std@@@std@@6B@
CONST	SEGMENT
??_7?$basic_filebuf@DU?$char_traits@D@std@@@std@@6B@ DQ FLAT:??_R4?$basic_filebuf@DU?$char_traits@D@std@@@std@@6B@ ; std::basic_filebuf<char,std::char_traits<char> >::`vftable'
	DQ	FLAT:??_E?$basic_filebuf@DU?$char_traits@D@std@@@std@@UEAAPEAXI@Z
	DQ	FLAT:?_Lock@?$basic_filebuf@DU?$char_traits@D@std@@@std@@UEAAXXZ
	DQ	FLAT:?_Unlock@?$basic_filebuf@DU?$char_traits@D@std@@@std@@UEAAXXZ
	DQ	FLAT:?overflow@?$basic_filebuf@DU?$char_traits@D@std@@@std@@MEAAHH@Z
	DQ	FLAT:?pbackfail@?$basic_filebuf@DU?$char_traits@D@std@@@std@@MEAAHH@Z
	DQ	FLAT:?showmanyc@?$basic_streambuf@DU?$char_traits@D@std@@@std@@MEAA_JXZ
	DQ	FLAT:?underflow@?$basic_filebuf@DU?$char_traits@D@std@@@std@@MEAAHXZ
	DQ	FLAT:?uflow@?$basic_filebuf@DU?$char_traits@D@std@@@std@@MEAAHXZ
	DQ	FLAT:?xsgetn@?$basic_filebuf@DU?$char_traits@D@std@@@std@@MEAA_JPEAD_J@Z
	DQ	FLAT:?xsputn@?$basic_filebuf@DU?$char_traits@D@std@@@std@@MEAA_JPEBD_J@Z
	DQ	FLAT:?seekoff@?$basic_filebuf@DU?$char_traits@D@std@@@std@@MEAA?AV?$fpos@U_Mbstatet@@@2@_JHH@Z
	DQ	FLAT:?seekpos@?$basic_filebuf@DU?$char_traits@D@std@@@std@@MEAA?AV?$fpos@U_Mbstatet@@@2@V32@H@Z
	DQ	FLAT:?setbuf@?$basic_filebuf@DU?$char_traits@D@std@@@std@@MEAAPEAV?$basic_streambuf@DU?$char_traits@D@std@@@2@PEAD_J@Z
	DQ	FLAT:?sync@?$basic_filebuf@DU?$char_traits@D@std@@@std@@MEAAHXZ
	DQ	FLAT:?imbue@?$basic_filebuf@DU?$char_traits@D@std@@@std@@MEAAXAEBVlocale@2@@Z
CONST	ENDS
;	COMDAT ??_R1A@?0A@EA@bad_alloc@std@@8
rdata$r	SEGMENT
??_R1A@?0A@EA@bad_alloc@std@@8 DD imagerel ??_R0?AVbad_alloc@std@@@8 ; std::bad_alloc::`RTTI Base Class Descriptor at (0,-1,0,64)'
	DD	01H
	DD	00H
	DD	0ffffffffH
	DD	00H
	DD	040H
	DD	imagerel ??_R3bad_alloc@std@@8
rdata$r	ENDS
;	COMDAT ??_R2ScreenSpaceShadows@@8
rdata$r	SEGMENT
??_R2ScreenSpaceShadows@@8 DD imagerel ??_R1A@?0A@EA@ScreenSpaceShadows@@8 ; ScreenSpaceShadows::`RTTI Base Class Array'
	DD	imagerel ??_R1A@?0A@EA@ScreenSpacePostProcessing@@8
	ORG $+3
rdata$r	ENDS
;	COMDAT ??_R1A@?0A@EA@_Facet_base@std@@8
rdata$r	SEGMENT
??_R1A@?0A@EA@_Facet_base@std@@8 DD imagerel ??_R0?AV_Facet_base@std@@@8 ; std::_Facet_base::`RTTI Base Class Descriptor at (0,-1,0,64)'
	DD	00H
	DD	00H
	DD	0ffffffffH
	DD	00H
	DD	040H
	DD	imagerel ??_R3_Facet_base@std@@8
rdata$r	ENDS
;	COMDAT ??_R1A@?0A@EA@?$basic_streambuf@DU?$char_traits@D@std@@@std@@8
rdata$r	SEGMENT
??_R1A@?0A@EA@?$basic_streambuf@DU?$char_traits@D@std@@@std@@8 DD imagerel ??_R0?AV?$basic_streambuf@DU?$char_traits@D@std@@@std@@@8 ; std::basic_streambuf<char,std::char_traits<char> >::`RTTI Base Class Descriptor at (0,-1,0,64)'
	DD	00H
	DD	00H
	DD	0ffffffffH
	DD	00H
	DD	040H
	DD	imagerel ??_R3?$basic_streambuf@DU?$char_traits@D@std@@@std@@8
rdata$r	ENDS
;	COMDAT ??_R0?AVShader_CN@@@8
data$rs	SEGMENT
??_R0?AVShader_CN@@@8 DQ FLAT:??_7type_info@@6B@	; Shader_CN `RTTI Type Descriptor'
	DQ	0000000000000000H
	DB	'.?AVShader_CN@@', 00H
data$rs	ENDS
;	COMDAT ??_R1A@?0A@EA@_Generic_error_category@std@@8
rdata$r	SEGMENT
??_R1A@?0A@EA@_Generic_error_category@std@@8 DD imagerel ??_R0?AV_Generic_error_category@std@@@8 ; std::_Generic_error_category::`RTTI Base Class Descriptor at (0,-1,0,64)'
	DD	01H
	DD	00H
	DD	0ffffffffH
	DD	00H
	DD	040H
	DD	imagerel ??_R3_Generic_error_category@std@@8
rdata$r	ENDS
;	COMDAT ??_R3Shader@@8
rdata$r	SEGMENT
??_R3Shader@@8 DD 00H					; Shader::`RTTI Class Hierarchy Descriptor'
	DD	00H
	DD	01H
	DD	imagerel ??_R2Shader@@8
rdata$r	ENDS
;	COMDAT ?_Static@?1???$_Immortalize_memcpy_image@V_Generic_error_category@std@@@std@@YAAEBV_Generic_error_category@1@XZ@4V21@B
_DATA	SEGMENT
?_Static@?1???$_Immortalize_memcpy_image@V_Generic_error_category@std@@@std@@YAAEBV_Generic_error_category@1@XZ@4V21@B DQ FLAT:??_7_Generic_error_category@std@@6B@ ; `std::_Immortalize_memcpy_image<std::_Generic_error_category>'::`2'::_Static
	DQ	0000000000000003H
_DATA	ENDS
;	COMDAT ??_R4system_error@std@@6B@
rdata$r	SEGMENT
??_R4system_error@std@@6B@ DD 01H			; std::system_error::`RTTI Complete Object Locator'
	DD	00H
	DD	00H
	DD	imagerel ??_R0?AVsystem_error@std@@@8
	DD	imagerel ??_R3system_error@std@@8
	DD	imagerel ??_R4system_error@std@@6B@
rdata$r	ENDS
;	COMDAT ??_7LightSource@@6B@
CONST	SEGMENT
??_7LightSource@@6B@ DQ FLAT:??_R4LightSource@@6B@	; LightSource::`vftable'
	DQ	FLAT:_purecall
CONST	ENDS
;	COMDAT ??_R2LightShader@@8
rdata$r	SEGMENT
??_R2LightShader@@8 DD imagerel ??_R1A@?0A@EA@LightShader@@8 ; LightShader::`RTTI Base Class Array'
	DD	imagerel ??_R1A@?0A@EA@Shader@@8
	ORG $+3
rdata$r	ENDS
;	COMDAT ??_R1A@?0A@EA@exception@std@@8
rdata$r	SEGMENT
??_R1A@?0A@EA@exception@std@@8 DD imagerel ??_R0?AVexception@std@@@8 ; std::exception::`RTTI Base Class Descriptor at (0,-1,0,64)'
	DD	00H
	DD	00H
	DD	0ffffffffH
	DD	00H
	DD	040H
	DD	imagerel ??_R3exception@std@@8
rdata$r	ENDS
;	COMDAT ??_R4TextureWorker@@6B@
rdata$r	SEGMENT
??_R4TextureWorker@@6B@ DD 01H				; TextureWorker::`RTTI Complete Object Locator'
	DD	00H
	DD	00H
	DD	imagerel ??_R0?AVTextureWorker@@@8
	DD	imagerel ??_R3TextureWorker@@8
	DD	imagerel ??_R4TextureWorker@@6B@
rdata$r	ENDS
;	COMDAT ??_R0?AVWorker@@@8
data$rs	SEGMENT
??_R0?AVWorker@@@8 DQ FLAT:??_7type_info@@6B@		; Worker `RTTI Type Descriptor'
	DQ	0000000000000000H
	DB	'.?AVWorker@@', 00H
data$rs	ENDS
;	COMDAT ??_R4GlFrameBuffer@@6B@
rdata$r	SEGMENT
??_R4GlFrameBuffer@@6B@ DD 01H				; GlFrameBuffer::`RTTI Complete Object Locator'
	DD	00H
	DD	00H
	DD	imagerel ??_R0?AUGlFrameBuffer@@@8
	DD	imagerel ??_R3GlFrameBuffer@@8
	DD	imagerel ??_R4GlFrameBuffer@@6B@
rdata$r	ENDS
;	COMDAT ??_R17A@3EA@?$_Iosb@H@std@@8
rdata$r	SEGMENT
??_R17A@3EA@?$_Iosb@H@std@@8 DD imagerel ??_R0?AV?$_Iosb@H@std@@@8 ; std::_Iosb<int>::`RTTI Base Class Descriptor at (8,0,4,64)'
	DD	00H
	DD	08H
	DD	00H
	DD	04H
	DD	040H
	DD	imagerel ??_R3?$_Iosb@H@std@@8
rdata$r	ENDS
;	COMDAT ??_R3DepthBuffer@@8
rdata$r	SEGMENT
??_R3DepthBuffer@@8 DD 00H				; DepthBuffer::`RTTI Class Hierarchy Descriptor'
	DD	00H
	DD	02H
	DD	imagerel ??_R2DepthBuffer@@8
rdata$r	ENDS
;	COMDAT ??_R1A@?0A@EA@ScreenSpaceShadows@@8
rdata$r	SEGMENT
??_R1A@?0A@EA@ScreenSpaceShadows@@8 DD imagerel ??_R0?AVScreenSpaceShadows@@@8 ; ScreenSpaceShadows::`RTTI Base Class Descriptor at (0,-1,0,64)'
	DD	01H
	DD	00H
	DD	0ffffffffH
	DD	00H
	DD	040H
	DD	imagerel ??_R3ScreenSpaceShadows@@8
rdata$r	ENDS
;	COMDAT ??_7ScreenSpacePostProcessing@@6B@
CONST	SEGMENT
??_7ScreenSpacePostProcessing@@6B@ DQ FLAT:??_R4ScreenSpacePostProcessing@@6B@ ; ScreenSpacePostProcessing::`vftable'
	DQ	FLAT:_purecall
	DQ	FLAT:_purecall
	DQ	FLAT:_purecall
CONST	ENDS
;	COMDAT ??_R0?AVScreenSpaceShadowShader@@@8
data$rs	SEGMENT
??_R0?AVScreenSpaceShadowShader@@@8 DQ FLAT:??_7type_info@@6B@ ; ScreenSpaceShadowShader `RTTI Type Descriptor'
	DQ	0000000000000000H
	DB	'.?AVScreenSpaceShadowShader@@', 00H
data$rs	ENDS
;	COMDAT ??_R1A@?0A@EA@?$basic_ifstream@DU?$char_traits@D@std@@@std@@8
rdata$r	SEGMENT
??_R1A@?0A@EA@?$basic_ifstream@DU?$char_traits@D@std@@@std@@8 DD imagerel ??_R0?AV?$basic_ifstream@DU?$char_traits@D@std@@@std@@@8 ; std::basic_ifstream<char,std::char_traits<char> >::`RTTI Base Class Descriptor at (0,-1,0,64)'
	DD	04H
	DD	00H
	DD	0ffffffffH
	DD	00H
	DD	040H
	DD	imagerel ??_R3?$basic_ifstream@DU?$char_traits@D@std@@@std@@8
rdata$r	ENDS
;	COMDAT ??_7bad_array_new_length@std@@6B@
CONST	SEGMENT
??_7bad_array_new_length@std@@6B@ DQ FLAT:??_R4bad_array_new_length@std@@6B@ ; std::bad_array_new_length::`vftable'
	DQ	FLAT:??_Ebad_array_new_length@std@@UEAAPEAXI@Z
	DQ	FLAT:?what@exception@std@@UEBAPEBDXZ
CONST	ENDS
;	COMDAT _CTA3?AVbad_array_new_length@std@@
xdata$x	SEGMENT
_CTA3?AVbad_array_new_length@std@@ DD 03H
	DD	imagerel _CT??_R0?AVbad_array_new_length@std@@@8??0bad_array_new_length@std@@QEAA@AEBV01@@Z24
	DD	imagerel _CT??_R0?AVbad_alloc@std@@@8??0bad_alloc@std@@QEAA@AEBV01@@Z24
	DD	imagerel _CT??_R0?AVexception@std@@@8??0exception@std@@QEAA@AEBV01@@Z24
xdata$x	ENDS
;	COMDAT ??_R2ScreenSpaceShadowShader@@8
rdata$r	SEGMENT
??_R2ScreenSpaceShadowShader@@8 DD imagerel ??_R1A@?0A@EA@ScreenSpaceShadowShader@@8 ; ScreenSpaceShadowShader::`RTTI Base Class Array'
	DD	imagerel ??_R1A@?0A@EA@Shader@@8
	ORG $+3
rdata$r	ENDS
;	COMDAT ??_7ScreenSpaceShadows@@6B@
CONST	SEGMENT
??_7ScreenSpaceShadows@@6B@ DQ FLAT:??_R4ScreenSpaceShadows@@6B@ ; ScreenSpaceShadows::`vftable'
	DQ	FLAT:?init@ScreenSpaceShadows@@UEAAXXZ
	DQ	FLAT:?Prepare@ScreenSpaceShadows@@UEAAXXZ
	DQ	FLAT:?Render@ScreenSpaceShadows@@UEAAXXZ
CONST	ENDS
;	COMDAT ??_R3DirectionalLight@@8
rdata$r	SEGMENT
??_R3DirectionalLight@@8 DD 00H				; DirectionalLight::`RTTI Class Hierarchy Descriptor'
	DD	00H
	DD	03H
	DD	imagerel ??_R2DirectionalLight@@8
rdata$r	ENDS
;	COMDAT _TI2?AVbad_optional_access@std@@
xdata$x	SEGMENT
_TI2?AVbad_optional_access@std@@ DD 00H
	DD	imagerel ??1bad_optional_access@std@@UEAA@XZ
	DD	00H
	DD	imagerel _CTA2?AVbad_optional_access@std@@
xdata$x	ENDS
;	COMDAT ??_R0?AV_System_error_category@std@@@8
data$rs	SEGMENT
??_R0?AV_System_error_category@std@@@8 DQ FLAT:??_7type_info@@6B@ ; std::_System_error_category `RTTI Type Descriptor'
	DQ	0000000000000000H
	DB	'.?AV_System_error_category@std@@', 00H
data$rs	ENDS
;	COMDAT ??_R0?AV?$_Fmt_iterator_buffer@V?$back_insert_iterator@V?$basic_string@DU?$char_traits@D@std@@V?$allocator@D@2@@std@@@std@@DU_Fmt_buffer_traits@2@@std@@@8
data$rs	SEGMENT
??_R0?AV?$_Fmt_iterator_buffer@V?$back_insert_iterator@V?$basic_string@DU?$char_traits@D@std@@V?$allocator@D@2@@std@@@std@@DU_Fmt_buffer_traits@2@@std@@@8 DQ FLAT:??_7type_info@@6B@ ; std::_Fmt_iterator_buffer<std::back_insert_iterator<std::basic_string<char,std::char_traits<char>,std::allocator<char> > >,char,std::_Fmt_buffer_traits> `RTTI Type Descriptor'
	DQ	0000000000000000H
	DB	'.?AV?$_Fmt_iterator_buffer@V?$back_insert_iterator@V?$ba'
	DB	'sic_string@DU?$char_traits@D@std@@V?$allocator@D@2@@std@@@std'
	DB	'@@DU_Fmt_buffer_traits@2@@std@@', 00H
data$rs	ENDS
;	COMDAT ??_R0?AVsystem_error@std@@@8
data$r	SEGMENT
??_R0?AVsystem_error@std@@@8 DQ FLAT:??_7type_info@@6B@	; std::system_error `RTTI Type Descriptor'
	DQ	0000000000000000H
	DB	'.?AVsystem_error@std@@', 00H
data$r	ENDS
;	COMDAT ??_R2_System_error@std@@8
rdata$r	SEGMENT
??_R2_System_error@std@@8 DD imagerel ??_R1A@?0A@EA@_System_error@std@@8 ; std::_System_error::`RTTI Base Class Array'
	DD	imagerel ??_R1A@?0A@EA@runtime_error@std@@8
	DD	imagerel ??_R1A@?0A@EA@exception@std@@8
	ORG $+3
rdata$r	ENDS
;	COMDAT ??_R1A@?0A@EA@runtime_error@std@@8
rdata$r	SEGMENT
??_R1A@?0A@EA@runtime_error@std@@8 DD imagerel ??_R0?AVruntime_error@std@@@8 ; std::runtime_error::`RTTI Base Class Descriptor at (0,-1,0,64)'
	DD	01H
	DD	00H
	DD	0ffffffffH
	DD	00H
	DD	040H
	DD	imagerel ??_R3runtime_error@std@@8
rdata$r	ENDS
;	COMDAT ??_R3_Crt_new_delete@std@@8
rdata$r	SEGMENT
??_R3_Crt_new_delete@std@@8 DD 00H			; std::_Crt_new_delete::`RTTI Class Hierarchy Descriptor'
	DD	00H
	DD	01H
	DD	imagerel ??_R2_Crt_new_delete@std@@8
rdata$r	ENDS
;	COMDAT ??_R4ScreenSpaceShadowShader@@6B@
rdata$r	SEGMENT
??_R4ScreenSpaceShadowShader@@6B@ DD 01H		; ScreenSpaceShadowShader::`RTTI Complete Object Locator'
	DD	00H
	DD	00H
	DD	imagerel ??_R0?AVScreenSpaceShadowShader@@@8
	DD	imagerel ??_R3ScreenSpaceShadowShader@@8
	DD	imagerel ??_R4ScreenSpaceShadowShader@@6B@
rdata$r	ENDS
;	COMDAT ??_R2?$basic_stringbuf@DU?$char_traits@D@std@@V?$allocator@D@2@@std@@8
rdata$r	SEGMENT
??_R2?$basic_stringbuf@DU?$char_traits@D@std@@V?$allocator@D@2@@std@@8 DD imagerel ??_R1A@?0A@EA@?$basic_stringbuf@DU?$char_traits@D@std@@V?$allocator@D@2@@std@@8 ; std::basic_stringbuf<char,std::char_traits<char>,std::allocator<char> >::`RTTI Base Class Array'
	DD	imagerel ??_R1A@?0A@EA@?$basic_streambuf@DU?$char_traits@D@std@@@std@@8
	ORG $+3
rdata$r	ENDS
;	COMDAT ??_R0?AVerror_category@std@@@8
data$rs	SEGMENT
??_R0?AVerror_category@std@@@8 DQ FLAT:??_7type_info@@6B@ ; std::error_category `RTTI Type Descriptor'
	DQ	0000000000000000H
	DB	'.?AVerror_category@std@@', 00H
data$rs	ENDS
;	COMDAT ??_R4format_error@std@@6B@
rdata$r	SEGMENT
??_R4format_error@std@@6B@ DD 01H			; std::format_error::`RTTI Complete Object Locator'
	DD	00H
	DD	00H
	DD	imagerel ??_R0?AVformat_error@std@@@8
	DD	imagerel ??_R3format_error@std@@8
	DD	imagerel ??_R4format_error@std@@6B@
rdata$r	ENDS
;	COMDAT ??_R0?AVios_base@std@@@8
data$rs	SEGMENT
??_R0?AVios_base@std@@@8 DQ FLAT:??_7type_info@@6B@	; std::ios_base `RTTI Type Descriptor'
	DQ	0000000000000000H
	DB	'.?AVios_base@std@@', 00H
data$rs	ENDS
;	COMDAT ??_7_Generic_error_category@std@@6B@
CONST	SEGMENT
??_7_Generic_error_category@std@@6B@ DQ FLAT:??_R4_Generic_error_category@std@@6B@ ; std::_Generic_error_category::`vftable'
	DQ	FLAT:??_E_Generic_error_category@std@@UEAAPEAXI@Z
	DQ	FLAT:?name@_Generic_error_category@std@@UEBAPEBDXZ
	DQ	FLAT:?message@_Generic_error_category@std@@UEBA?AV?$basic_string@DU?$char_traits@D@std@@V?$allocator@D@2@@2@H@Z
	DQ	FLAT:?default_error_condition@error_category@std@@UEBA?AVerror_condition@2@H@Z
	DQ	FLAT:?equivalent@error_category@std@@UEBA_NAEBVerror_code@2@H@Z
	DQ	FLAT:?equivalent@error_category@std@@UEBA_NHAEBVerror_condition@2@@Z
CONST	ENDS
;	COMDAT ??_R2bad_alloc@std@@8
rdata$r	SEGMENT
??_R2bad_alloc@std@@8 DD imagerel ??_R1A@?0A@EA@bad_alloc@std@@8 ; std::bad_alloc::`RTTI Base Class Array'
	DD	imagerel ??_R1A@?0A@EA@exception@std@@8
	ORG $+3
rdata$r	ENDS
;	COMDAT ??_R0?AV?$basic_stringbuf@DU?$char_traits@D@std@@V?$allocator@D@2@@std@@@8
data$rs	SEGMENT
??_R0?AV?$basic_stringbuf@DU?$char_traits@D@std@@V?$allocator@D@2@@std@@@8 DQ FLAT:??_7type_info@@6B@ ; std::basic_stringbuf<char,std::char_traits<char>,std::allocator<char> > `RTTI Type Descriptor'
	DQ	0000000000000000H
	DB	'.?AV?$basic_stringbuf@DU?$char_traits@D@std@@V?$allocato'
	DB	'r@D@2@@std@@', 00H
data$rs	ENDS
;	COMDAT ??_R3GameObject@@8
rdata$r	SEGMENT
??_R3GameObject@@8 DD 00H				; GameObject::`RTTI Class Hierarchy Descriptor'
	DD	00H
	DD	01H
	DD	imagerel ??_R2GameObject@@8
rdata$r	ENDS
;	COMDAT ??_R3LightShader@@8
rdata$r	SEGMENT
??_R3LightShader@@8 DD 00H				; LightShader::`RTTI Class Hierarchy Descriptor'
	DD	00H
	DD	02H
	DD	imagerel ??_R2LightShader@@8
rdata$r	ENDS
;	COMDAT ??_R3?$basic_ifstream@DU?$char_traits@D@std@@@std@@8
rdata$r	SEGMENT
??_R3?$basic_ifstream@DU?$char_traits@D@std@@@std@@8 DD 00H ; std::basic_ifstream<char,std::char_traits<char> >::`RTTI Class Hierarchy Descriptor'
	DD	00H
	DD	05H
	DD	imagerel ??_R2?$basic_ifstream@DU?$char_traits@D@std@@@std@@8
rdata$r	ENDS
;	COMDAT ??_R4_Generic_error_category@std@@6B@
rdata$r	SEGMENT
??_R4_Generic_error_category@std@@6B@ DD 01H		; std::_Generic_error_category::`RTTI Complete Object Locator'
	DD	00H
	DD	00H
	DD	imagerel ??_R0?AV_Generic_error_category@std@@@8
	DD	imagerel ??_R3_Generic_error_category@std@@8
	DD	imagerel ??_R4_Generic_error_category@std@@6B@
rdata$r	ENDS
;	COMDAT ??_R1A@?0A@EA@bad_cast@std@@8
rdata$r	SEGMENT
??_R1A@?0A@EA@bad_cast@std@@8 DD imagerel ??_R0?AVbad_cast@std@@@8 ; std::bad_cast::`RTTI Base Class Descriptor at (0,-1,0,64)'
	DD	01H
	DD	00H
	DD	0ffffffffH
	DD	00H
	DD	040H
	DD	imagerel ??_R3bad_cast@std@@8
rdata$r	ENDS
;	COMDAT ??_R4bad_optional_access@std@@6B@
rdata$r	SEGMENT
??_R4bad_optional_access@std@@6B@ DD 01H		; std::bad_optional_access::`RTTI Complete Object Locator'
	DD	00H
	DD	00H
	DD	imagerel ??_R0?AVbad_optional_access@std@@@8
	DD	imagerel ??_R3bad_optional_access@std@@8
	DD	imagerel ??_R4bad_optional_access@std@@6B@
rdata$r	ENDS
;	COMDAT ?vert@M_Cube@@0QBMB
CONST	SEGMENT
?vert@M_Cube@@0QBMB DD 0bf000000r		; -0.5	; M_Cube::vert
	DD	03f000000r			; 0.5
	DD	03f000000r			; 0.5
	DD	0bf000000r			; -0.5
	DD	03f000000r			; 0.5
	DD	0bf000000r			; -0.5
	DD	03f000000r			; 0.5
	DD	03f000000r			; 0.5
	DD	03f000000r			; 0.5
	DD	03f000000r			; 0.5
	DD	03f000000r			; 0.5
	DD	0bf000000r			; -0.5
	DD	0bf000000r			; -0.5
	DD	0bf000000r			; -0.5
	DD	03f000000r			; 0.5
	DD	0bf000000r			; -0.5
	DD	0bf000000r			; -0.5
	DD	0bf000000r			; -0.5
	DD	03f000000r			; 0.5
	DD	0bf000000r			; -0.5
	DD	03f000000r			; 0.5
	DD	03f000000r			; 0.5
	DD	0bf000000r			; -0.5
	DD	0bf000000r			; -0.5
	DD	0bf000000r			; -0.5
	DD	03f000000r			; 0.5
	DD	03f000000r			; 0.5
	DD	0bf000000r			; -0.5
	DD	0bf000000r			; -0.5
	DD	03f000000r			; 0.5
	DD	0bf000000r			; -0.5
	DD	03f000000r			; 0.5
	DD	0bf000000r			; -0.5
	DD	0bf000000r			; -0.5
	DD	0bf000000r			; -0.5
	DD	0bf000000r			; -0.5
	DD	03f000000r			; 0.5
	DD	03f000000r			; 0.5
	DD	03f000000r			; 0.5
	DD	03f000000r			; 0.5
	DD	0bf000000r			; -0.5
	DD	03f000000r			; 0.5
	DD	03f000000r			; 0.5
	DD	03f000000r			; 0.5
	DD	0bf000000r			; -0.5
	DD	03f000000r			; 0.5
	DD	0bf000000r			; -0.5
	DD	0bf000000r			; -0.5
	DD	0bf000000r			; -0.5
	DD	03f000000r			; 0.5
	DD	03f000000r			; 0.5
	DD	0bf000000r			; -0.5
	DD	0bf000000r			; -0.5
	DD	03f000000r			; 0.5
	DD	03f000000r			; 0.5
	DD	03f000000r			; 0.5
	DD	03f000000r			; 0.5
	DD	03f000000r			; 0.5
	DD	0bf000000r			; -0.5
	DD	03f000000r			; 0.5
	DD	0bf000000r			; -0.5
	DD	03f000000r			; 0.5
	DD	0bf000000r			; -0.5
	DD	0bf000000r			; -0.5
	DD	0bf000000r			; -0.5
	DD	0bf000000r			; -0.5
	DD	03f000000r			; 0.5
	DD	03f000000r			; 0.5
	DD	0bf000000r			; -0.5
	DD	03f000000r			; 0.5
	DD	0bf000000r			; -0.5
	DD	0bf000000r			; -0.5
CONST	ENDS
;	COMDAT ??_R3_Facet_base@std@@8
rdata$r	SEGMENT
??_R3_Facet_base@std@@8 DD 00H				; std::_Facet_base::`RTTI Class Hierarchy Descriptor'
	DD	00H
	DD	01H
	DD	imagerel ??_R2_Facet_base@std@@8
rdata$r	ENDS
;	COMDAT ??_R4_System_error@std@@6B@
rdata$r	SEGMENT
??_R4_System_error@std@@6B@ DD 01H			; std::_System_error::`RTTI Complete Object Locator'
	DD	00H
	DD	00H
	DD	imagerel ??_R0?AV_System_error@std@@@8
	DD	imagerel ??_R3_System_error@std@@8
	DD	imagerel ??_R4_System_error@std@@6B@
rdata$r	ENDS
;	COMDAT ??_7filesystem_error@filesystem@std@@6B@
CONST	SEGMENT
??_7filesystem_error@filesystem@std@@6B@ DQ FLAT:??_R4filesystem_error@filesystem@std@@6B@ ; std::filesystem::filesystem_error::`vftable'
	DQ	FLAT:??_Efilesystem_error@filesystem@std@@UEAAPEAXI@Z
	DQ	FLAT:?what@filesystem_error@filesystem@std@@UEBAPEBDXZ
CONST	ENDS
;	COMDAT ??_R4_System_error_category@std@@6B@
rdata$r	SEGMENT
??_R4_System_error_category@std@@6B@ DD 01H		; std::_System_error_category::`RTTI Complete Object Locator'
	DD	00H
	DD	00H
	DD	imagerel ??_R0?AV_System_error_category@std@@@8
	DD	imagerel ??_R3_System_error_category@std@@8
	DD	imagerel ??_R4_System_error_category@std@@6B@
rdata$r	ENDS
;	COMDAT ??_R4runtime_error@std@@6B@
rdata$r	SEGMENT
??_R4runtime_error@std@@6B@ DD 01H			; std::runtime_error::`RTTI Complete Object Locator'
	DD	00H
	DD	00H
	DD	imagerel ??_R0?AVruntime_error@std@@@8
	DD	imagerel ??_R3runtime_error@std@@8
	DD	imagerel ??_R4runtime_error@std@@6B@
rdata$r	ENDS
;	COMDAT ??_R0?AVScreenSpaceShadows@@@8
data$rs	SEGMENT
??_R0?AVScreenSpaceShadows@@@8 DQ FLAT:??_7type_info@@6B@ ; ScreenSpaceShadows `RTTI Type Descriptor'
	DQ	0000000000000000H
	DB	'.?AVScreenSpaceShadows@@', 00H
data$rs	ENDS
;	COMDAT ??_R2Worker@@8
rdata$r	SEGMENT
??_R2Worker@@8 DD imagerel ??_R1A@?0A@EA@Worker@@8	; Worker::`RTTI Base Class Array'
	ORG $+3
rdata$r	ENDS
;	COMDAT ??_R0?AV?$basic_ifstream@DU?$char_traits@D@std@@@std@@@8
data$rs	SEGMENT
??_R0?AV?$basic_ifstream@DU?$char_traits@D@std@@@std@@@8 DQ FLAT:??_7type_info@@6B@ ; std::basic_ifstream<char,std::char_traits<char> > `RTTI Type Descriptor'
	DQ	0000000000000000H
	DB	'.?AV?$basic_ifstream@DU?$char_traits@D@std@@@std@@', 00H
data$rs	ENDS
;	COMDAT _CT??_R0?AVfilesystem_error@filesystem@std@@@8??0filesystem_error@filesystem@std@@QEAA@AEBV012@@Z136
xdata$x	SEGMENT
_CT??_R0?AVfilesystem_error@filesystem@std@@@8??0filesystem_error@filesystem@std@@QEAA@AEBV012@@Z136 DD 00H
	DD	imagerel ??_R0?AVfilesystem_error@filesystem@std@@@8
	DD	00H
	DD	0ffffffffH
	ORG $+4
	DD	088H
	DD	imagerel ??0filesystem_error@filesystem@std@@QEAA@AEBV012@@Z
xdata$x	ENDS
;	COMDAT ??_7format_error@std@@6B@
CONST	SEGMENT
??_7format_error@std@@6B@ DQ FLAT:??_R4format_error@std@@6B@ ; std::format_error::`vftable'
	DQ	FLAT:??_Eformat_error@std@@UEAAPEAXI@Z
	DQ	FLAT:?what@exception@std@@UEBAPEBDXZ
CONST	ENDS
;	COMDAT _TI4?AVsystem_error@std@@
xdata$x	SEGMENT
_TI4?AVsystem_error@std@@ DD 00H
	DD	imagerel ??1system_error@std@@UEAA@XZ
	DD	00H
	DD	imagerel _CTA4?AVsystem_error@std@@
xdata$x	ENDS
;	COMDAT ??_7?$numpunct@D@std@@6B@
CONST	SEGMENT
??_7?$numpunct@D@std@@6B@ DQ FLAT:??_R4?$numpunct@D@std@@6B@ ; std::numpunct<char>::`vftable'
	DQ	FLAT:??_E?$numpunct@D@std@@MEAAPEAXI@Z
	DQ	FLAT:?_Incref@facet@locale@std@@UEAAXXZ
	DQ	FLAT:?_Decref@facet@locale@std@@UEAAPEAV_Facet_base@3@XZ
	DQ	FLAT:?do_decimal_point@?$numpunct@D@std@@MEBADXZ
	DQ	FLAT:?do_thousands_sep@?$numpunct@D@std@@MEBADXZ
	DQ	FLAT:?do_grouping@?$numpunct@D@std@@MEBA?AV?$basic_string@DU?$char_traits@D@std@@V?$allocator@D@2@@2@XZ
	DQ	FLAT:?do_falsename@?$numpunct@D@std@@MEBA?AV?$basic_string@DU?$char_traits@D@std@@V?$allocator@D@2@@2@XZ
	DQ	FLAT:?do_truename@?$numpunct@D@std@@MEBA?AV?$basic_string@DU?$char_traits@D@std@@V?$allocator@D@2@@2@XZ
CONST	ENDS
;	COMDAT ??_R3LightSource@@8
rdata$r	SEGMENT
??_R3LightSource@@8 DD 00H				; LightSource::`RTTI Class Hierarchy Descriptor'
	DD	00H
	DD	02H
	DD	imagerel ??_R2LightSource@@8
rdata$r	ENDS
;	COMDAT ??_R3ScreenSpaceShadows@@8
rdata$r	SEGMENT
??_R3ScreenSpaceShadows@@8 DD 00H			; ScreenSpaceShadows::`RTTI Class Hierarchy Descriptor'
	DD	00H
	DD	02H
	DD	imagerel ??_R2ScreenSpaceShadows@@8
rdata$r	ENDS
;	COMDAT ??_R3_Fmt_buffer_traits@std@@8
rdata$r	SEGMENT
??_R3_Fmt_buffer_traits@std@@8 DD 00H			; std::_Fmt_buffer_traits::`RTTI Class Hierarchy Descriptor'
	DD	00H
	DD	01H
	DD	imagerel ??_R2_Fmt_buffer_traits@std@@8
rdata$r	ENDS
;	COMDAT ??_R1A@?0A@EA@?$basic_istream@DU?$char_traits@D@std@@@std@@8
rdata$r	SEGMENT
??_R1A@?0A@EA@?$basic_istream@DU?$char_traits@D@std@@@std@@8 DD imagerel ??_R0?AV?$basic_istream@DU?$char_traits@D@std@@@std@@@8 ; std::basic_istream<char,std::char_traits<char> >::`RTTI Base Class Descriptor at (0,-1,0,64)'
	DD	03H
	DD	00H
	DD	0ffffffffH
	DD	00H
	DD	040H
	DD	imagerel ??_R3?$basic_istream@DU?$char_traits@D@std@@@std@@8
rdata$r	ENDS
;	COMDAT ??_R0?AU_Fmt_buffer_traits@std@@@8
data$rs	SEGMENT
??_R0?AU_Fmt_buffer_traits@std@@@8 DQ FLAT:??_7type_info@@6B@ ; std::_Fmt_buffer_traits `RTTI Type Descriptor'
	DQ	0000000000000000H
	DB	'.?AU_Fmt_buffer_traits@std@@', 00H
data$rs	ENDS
;	COMDAT ??_R4Shader@@6B@
rdata$r	SEGMENT
??_R4Shader@@6B@ DD 01H					; Shader::`RTTI Complete Object Locator'
	DD	00H
	DD	00H
	DD	imagerel ??_R0?AVShader@@@8
	DD	imagerel ??_R3Shader@@8
	DD	imagerel ??_R4Shader@@6B@
rdata$r	ENDS
;	COMDAT ??_R1A@?0A@EA@Material@@8
rdata$r	SEGMENT
??_R1A@?0A@EA@Material@@8 DD imagerel ??_R0?AVMaterial@@@8 ; Material::`RTTI Base Class Descriptor at (0,-1,0,64)'
	DD	00H
	DD	00H
	DD	0ffffffffH
	DD	00H
	DD	040H
	DD	imagerel ??_R3Material@@8
rdata$r	ENDS
;	COMDAT ??_R0?AVbad_alloc@std@@@8
data$r	SEGMENT
??_R0?AVbad_alloc@std@@@8 DQ FLAT:??_7type_info@@6B@	; std::bad_alloc `RTTI Type Descriptor'
	DQ	0000000000000000H
	DB	'.?AVbad_alloc@std@@', 00H
data$r	ENDS
;	COMDAT ??_R1A@?0A@EA@system_error@std@@8
rdata$r	SEGMENT
??_R1A@?0A@EA@system_error@std@@8 DD imagerel ??_R0?AVsystem_error@std@@@8 ; std::system_error::`RTTI Base Class Descriptor at (0,-1,0,64)'
	DD	03H
	DD	00H
	DD	0ffffffffH
	DD	00H
	DD	040H
	DD	imagerel ??_R3system_error@std@@8
rdata$r	ENDS
;	COMDAT ??_R1A@?0A@EA@bad_optional_access@std@@8
rdata$r	SEGMENT
??_R1A@?0A@EA@bad_optional_access@std@@8 DD imagerel ??_R0?AVbad_optional_access@std@@@8 ; std::bad_optional_access::`RTTI Base Class Descriptor at (0,-1,0,64)'
	DD	01H
	DD	00H
	DD	0ffffffffH
	DD	00H
	DD	040H
	DD	imagerel ??_R3bad_optional_access@std@@8
rdata$r	ENDS
;	COMDAT ??_R2system_error@std@@8
rdata$r	SEGMENT
??_R2system_error@std@@8 DD imagerel ??_R1A@?0A@EA@system_error@std@@8 ; std::system_error::`RTTI Base Class Array'
	DD	imagerel ??_R1A@?0A@EA@_System_error@std@@8
	DD	imagerel ??_R1A@?0A@EA@runtime_error@std@@8
	DD	imagerel ??_R1A@?0A@EA@exception@std@@8
	ORG $+3
rdata$r	ENDS
;	COMDAT ??_R2DepthBuffer@@8
rdata$r	SEGMENT
??_R2DepthBuffer@@8 DD imagerel ??_R1A@?0A@EA@DepthBuffer@@8 ; DepthBuffer::`RTTI Base Class Array'
	DD	imagerel ??_R1A@?0A@EA@GlFrameBuffer@@8
	ORG $+3
rdata$r	ENDS
;	COMDAT ??_R2bad_array_new_length@std@@8
rdata$r	SEGMENT
??_R2bad_array_new_length@std@@8 DD imagerel ??_R1A@?0A@EA@bad_array_new_length@std@@8 ; std::bad_array_new_length::`RTTI Base Class Array'
	DD	imagerel ??_R1A@?0A@EA@bad_alloc@std@@8
	DD	imagerel ??_R1A@?0A@EA@exception@std@@8
	ORG $+3
rdata$r	ENDS
;	COMDAT ??_R2?$basic_istringstream@DU?$char_traits@D@std@@V?$allocator@D@2@@std@@8
rdata$r	SEGMENT
??_R2?$basic_istringstream@DU?$char_traits@D@std@@V?$allocator@D@2@@std@@8 DD imagerel ??_R1A@?0A@EA@?$basic_istringstream@DU?$char_traits@D@std@@V?$allocator@D@2@@std@@8 ; std::basic_istringstream<char,std::char_traits<char>,std::allocator<char> >::`RTTI Base Class Array'
	DD	imagerel ??_R1A@?0A@EA@?$basic_istream@DU?$char_traits@D@std@@@std@@8
	DD	imagerel ??_R1A@A@3FA@?$basic_ios@DU?$char_traits@D@std@@@std@@8
	DD	imagerel ??_R1A@A@3EA@ios_base@std@@8
	DD	imagerel ??_R17A@3EA@?$_Iosb@H@std@@8
	ORG $+3
rdata$r	ENDS
;	COMDAT ??_R3Material@@8
rdata$r	SEGMENT
??_R3Material@@8 DD 00H					; Material::`RTTI Class Hierarchy Descriptor'
	DD	00H
	DD	01H
	DD	imagerel ??_R2Material@@8
rdata$r	ENDS
;	COMDAT ?_Adjustment@?CB@???$__to_chars@D@std@@YA?AU?$pair@PEADW4errc@std@@@1@QEAD0U__floating_decimal_32@1@W4chars_format@1@II@Z@4QBEB
CONST	SEGMENT
?_Adjustment@?CB@???$__to_chars@D@std@@YA?AU?$pair@PEADW4errc@std@@@1@QEAD0U__floating_decimal_32@1@W4chars_format@1@II@Z@4QBEB DB 00H ; `std::__to_chars<char>'::`33'::_Adjustment
	DB	00H
	DB	00H
	DB	00H
	DB	00H
	DB	00H
	DB	00H
	DB	00H
	DB	00H
	DB	00H
	DB	00H
	DB	01H
	DB	01H
	DB	01H
	DB	00H
	DB	01H
	DB	00H
	DB	01H
	DB	01H
	DB	01H
	DB	00H
	DB	00H
	DB	01H
	DB	01H
	DB	00H
	DB	01H
	DB	00H
	DB	01H
	DB	01H
	DB	00H
	DB	00H
	DB	01H
	DB	00H
	DB	01H
	DB	01H
	DB	00H
	DB	01H
	DB	01H
	DB	01H
CONST	ENDS
;	COMDAT ??_R1A@?0A@EA@?$basic_istringstream@DU?$char_traits@D@std@@V?$allocator@D@2@@std@@8
rdata$r	SEGMENT
??_R1A@?0A@EA@?$basic_istringstream@DU?$char_traits@D@std@@V?$allocator@D@2@@std@@8 DD imagerel ??_R0?AV?$basic_istringstream@DU?$char_traits@D@std@@V?$allocator@D@2@@std@@@8 ; std::basic_istringstream<char,std::char_traits<char>,std::allocator<char> >::`RTTI Base Class Descriptor at (0,-1,0,64)'
	DD	04H
	DD	00H
	DD	0ffffffffH
	DD	00H
	DD	040H
	DD	imagerel ??_R3?$basic_istringstream@DU?$char_traits@D@std@@V?$allocator@D@2@@std@@8
rdata$r	ENDS
;	COMDAT ??_R4exception@std@@6B@
rdata$r	SEGMENT
??_R4exception@std@@6B@ DD 01H				; std::exception::`RTTI Complete Object Locator'
	DD	00H
	DD	00H
	DD	imagerel ??_R0?AVexception@std@@@8
	DD	imagerel ??_R3exception@std@@8
	DD	imagerel ??_R4exception@std@@6B@
rdata$r	ENDS
;	COMDAT ??_R1A@?0A@EA@TextureWorker@@8
rdata$r	SEGMENT
??_R1A@?0A@EA@TextureWorker@@8 DD imagerel ??_R0?AVTextureWorker@@@8 ; TextureWorker::`RTTI Base Class Descriptor at (0,-1,0,64)'
	DD	01H
	DD	00H
	DD	0ffffffffH
	DD	00H
	DD	040H
	DD	imagerel ??_R3TextureWorker@@8
rdata$r	ENDS
;	COMDAT ??_R0?AVruntime_error@std@@@8
data$r	SEGMENT
??_R0?AVruntime_error@std@@@8 DQ FLAT:??_7type_info@@6B@ ; std::runtime_error `RTTI Type Descriptor'
	DQ	0000000000000000H
	DB	'.?AVruntime_error@std@@', 00H
data$r	ENDS
;	COMDAT ??_R0?AV?$basic_filebuf@DU?$char_traits@D@std@@@std@@@8
data$rs	SEGMENT
??_R0?AV?$basic_filebuf@DU?$char_traits@D@std@@@std@@@8 DQ FLAT:??_7type_info@@6B@ ; std::basic_filebuf<char,std::char_traits<char> > `RTTI Type Descriptor'
	DQ	0000000000000000H
	DB	'.?AV?$basic_filebuf@DU?$char_traits@D@std@@@std@@', 00H
data$rs	ENDS
;	COMDAT ??_7Shader_CN@@6B@
CONST	SEGMENT
??_7Shader_CN@@6B@ DQ FLAT:??_R4Shader_CN@@6B@		; Shader_CN::`vftable'
	DQ	FLAT:?IsDepthShaderOverrided@Shader@@MEAA_NXZ
	DQ	FLAT:?IsHaveDepthShader@Shader3d@@UEAA_NXZ
	DQ	FLAT:?DepthVertex@Shader@@UEAA?AV?$basic_string@DU?$char_traits@D@std@@V?$allocator@D@2@@std@@XZ
	DQ	FLAT:?DepthFragment@Shader@@UEAA?AV?$basic_string@DU?$char_traits@D@std@@V?$allocator@D@2@@std@@XZ
	DQ	FLAT:?GetVertexCode@Shader3d@@UEAA?AV?$basic_string@DU?$char_traits@D@std@@V?$allocator@D@2@@std@@XZ
	DQ	FLAT:?GetFragmentCode@Shader3d@@UEAA?AV?$basic_string@DU?$char_traits@D@std@@V?$allocator@D@2@@std@@XZ
	DQ	FLAT:?vertexShaderSrc@Shader@@UEAAPEBDXZ
	DQ	FLAT:?init@Shader_CN@@UEAAXXZ
	DQ	FLAT:?VVar@Shader_CN@@MEAA?AV?$basic_string@DU?$char_traits@D@std@@V?$allocator@D@2@@std@@XZ
	DQ	FLAT:?VMain@Shader_CN@@MEAA?AV?$basic_string@DU?$char_traits@D@std@@V?$allocator@D@2@@std@@XZ
	DQ	FLAT:?FVar@Shader_CN@@MEAA?AV?$basic_string@DU?$char_traits@D@std@@V?$allocator@D@2@@std@@XZ
	DQ	FLAT:?FMain@Shader_CN@@MEAA?AV?$basic_string@DU?$char_traits@D@std@@V?$allocator@D@2@@std@@XZ
	DQ	FLAT:?ShadowFVar@Shader3d@@MEAA?AV?$basic_string@DU?$char_traits@D@std@@V?$allocator@D@2@@std@@XZ
	DQ	FLAT:?ShadowFMain@Shader3d@@MEAA?AV?$basic_string@DU?$char_traits@D@std@@V?$allocator@D@2@@std@@XZ
CONST	ENDS
;	COMDAT ??_7DepthBuffer@@6B@
CONST	SEGMENT
??_7DepthBuffer@@6B@ DQ FLAT:??_R4DepthBuffer@@6B@	; DepthBuffer::`vftable'
	DQ	FLAT:?Use@DepthBuffer@@UEAAXXZ
	DQ	FLAT:?Resize@DepthBuffer@@UEAAXHH@Z
	DQ	FLAT:?init@DepthBuffer@@UEAAXHH@Z
?Rotation@@3MA DD 041a00000r			; 20	; Rotation
?frameRate@@3MA DD 041f00000r			; 30	; frameRate
?DSided@@3_NA DB 01H					; DSided
?VSync@@3EA DB	01H					; VSync
?firstMouse@@3_NA DB 01H				; firstMouse
?IsProjectionDirty@@3EA DB 01H				; IsProjectionDirty
?SCR_HEIGHT@@3IA DD 0384H				; SCR_HEIGHT
?CameraDepth@@3UDepthBuffer@@A DQ FLAT:??_7DepthBuffer@@6B@ ; CameraDepth
	DD	00H
	DD	00H
?averageFrameTimeMilliseconds@@3MA DD 0420554fer ; 33.333 ; averageFrameTimeMilliseconds
?DRLOffest@@3MA DD 03dcccccdr			; 0.1	; DRLOffest
?DRLOffest2@@3MA DD 042c80000r			; 100	; DRLOffest2
?Quadratic@@3MA DD 03dcccccdr			; 0.1	; Quadratic
?precision@@3MA DD 03e4ccccdr			; 0.2	; precision
?Boost@@3MA DD	03f800000r			; 1	; Boost
?Linear@@3MA DD	03dcccccdr			; 0.1	; Linear
?Move@@3_NA DB	01H					; Move
	ORG $+3
?SCR_WIDTH@@3IA DD 0640H				; SCR_WIDTH
_DATA	ENDS
;	COMDAT ??_R3?$basic_istream@DU?$char_traits@D@std@@@std@@8
rdata$r	SEGMENT
??_R3?$basic_istream@DU?$char_traits@D@std@@@std@@8 DD 00H ; std::basic_istream<char,std::char_traits<char> >::`RTTI Class Hierarchy Descriptor'
	DD	00H
	DD	04H
	DD	imagerel ??_R2?$basic_istream@DU?$char_traits@D@std@@@std@@8
rdata$r	ENDS
;	COMDAT ??_R4?$_Fmt_iterator_buffer@V?$back_insert_iterator@V?$basic_string@DU?$char_traits@D@std@@V?$allocator@D@2@@std@@@std@@DU_Fmt_buffer_traits@2@@std@@6B@
rdata$r	SEGMENT
??_R4?$_Fmt_iterator_buffer@V?$back_insert_iterator@V?$basic_string@DU?$char_traits@D@std@@V?$allocator@D@2@@std@@@std@@DU_Fmt_buffer_traits@2@@std@@6B@ DD 01H ; std::_Fmt_iterator_buffer<std::back_insert_iterator<std::basic_string<char,std::char_traits<char>,std::allocator<char> > >,char,std::_Fmt_buffer_traits>::`RTTI Complete Object Locator'
	DD	00H
	DD	00H
	DD	imagerel ??_R0?AV?$_Fmt_iterator_buffer@V?$back_insert_iterator@V?$basic_string@DU?$char_traits@D@std@@V?$allocator@D@2@@std@@@std@@DU_Fmt_buffer_traits@2@@std@@@8
	DD	imagerel ??_R3?$_Fmt_iterator_buffer@V?$back_insert_iterator@V?$basic_string@DU?$char_traits@D@std@@V?$allocator@D@2@@std@@@std@@DU_Fmt_buffer_traits@2@@std@@8
	DD	imagerel ??_R4?$_Fmt_iterator_buffer@V?$back_insert_iterator@V?$basic_string@DU?$char_traits@D@std@@V?$allocator@D@2@@std@@@std@@DU_Fmt_buffer_traits@2@@std@@6B@
rdata$r	ENDS
;	COMDAT ??_C@_0BE@DEGOCOHL@Negative?5precision?4@
CONST	SEGMENT
??_C@_0BE@DEGOCOHL@Negative?5precision?4@ DB 'Negative precision.', 00H ; `string'
CONST	ENDS
;	COMDAT ??_C@_0BN@DNNEEKIC@Precision?5is?5not?5an?5integer?4@
CONST	SEGMENT
??_C@_0BN@DNNEEKIC@Precision?5is?5not?5an?5integer?4@ DB 'Precision is no'
	DB	't an integer.', 00H				; `string'
CONST	ENDS
;	COMDAT ??_C@_0BA@INGMONDA@Negative?5width?4@
CONST	SEGMENT
??_C@_0BA@INGMONDA@Negative?5width?4@ DB 'Negative width.', 00H ; `string'
CONST	ENDS
;	COMDAT ??_C@_0BJ@FLMOJPKL@Width?5is?5not?5an?5integer?4@
CONST	SEGMENT
??_C@_0BJ@FLMOJPKL@Width?5is?5not?5an?5integer?4@ DB 'Width is not an int'
	DB	'eger.', 00H					; `string'
CONST	ENDS
;	COMDAT ??_C@_0BD@GHJPJCGO@Number?5is?5too?5big?4@
CONST	SEGMENT
??_C@_0BD@GHJPJCGO@Number?5is?5too?5big?4@ DB 'Number is too big.', 00H ; `string'
CONST	ENDS
;	COMDAT ??_C@_02FGLHBECB@0X@
CONST	SEGMENT
??_C@_02FGLHBECB@0X@ DB '0X', 00H			; `string'
CONST	ENDS
;	COMDAT ??_C@_02MDDDDAID@0x@
CONST	SEGMENT
??_C@_02MDDDDAID@0x@ DB '0x', 00H			; `string'
CONST	ENDS
;	COMDAT ??_C@_02OGJKOOPK@0B@
CONST	SEGMENT
??_C@_02OGJKOOPK@0B@ DB '0B', 00H			; `string'
CONST	ENDS
;	COMDAT ??_C@_02HDBOMKFI@0b@
CONST	SEGMENT
??_C@_02HDBOMKFI@0b@ DB '0b', 00H			; `string'
CONST	ENDS
;	COMDAT ??_C@_0CC@OGKFJOLL@integral?5cannot?5be?5stored?5in?5ch@
CONST	SEGMENT
??_C@_0CC@OGKFJOLL@integral?5cannot?5be?5stored?5in?5ch@ DB 'integral can'
	DB	'not be stored in char', 00H			; `string'
CONST	ENDS
;	COMDAT ??_C@_0BI@KLAHEKGE@String?5pointer?5is?5null?4@
CONST	SEGMENT
??_C@_0BI@KLAHEKGE@String?5pointer?5is?5null?4@ DB 'String pointer is nul'
	DB	'l.', 00H					; `string'
CONST	ENDS
;	COMDAT ??_C@_0BE@JHBJMIJI@Argument?5not?5found?4@
CONST	SEGMENT
??_C@_0BE@JHBJMIJI@Argument?5not?5found?4@ DB 'Argument not found.', 00H ; `string'
CONST	ENDS
;	COMDAT ??_C@_0CO@ILLNLEBH@Precision?5not?5allowed?5for?5this?5@
CONST	SEGMENT
??_C@_0CO@ILLNLEBH@Precision?5not?5allowed?5for?5this?5@ DB 'Precision no'
	DB	't allowed for this argument type.', 00H	; `string'
CONST	ENDS
;	COMDAT ??_C@_0BJ@FNNNKMGD@Invalid?5fill?5?$CItoo?5long?$CJ?4@
CONST	SEGMENT
??_C@_0BJ@FNNNKMGD@Invalid?5fill?5?$CItoo?5long?$CJ?4@ DB 'Invalid fill ('
	DB	'too long).', 00H				; `string'
CONST	ENDS
;	COMDAT ??_C@_0BN@CAABEHAA@Missing?5precision?5specifier?4@
CONST	SEGMENT
??_C@_0BN@CAABEHAA@Missing?5precision?5specifier?4@ DB 'Missing precision'
	DB	' specifier.', 00H				; `string'
CONST	ENDS
;	COMDAT ??_C@_0BL@KNEDAEPA@invalid?5fill?5character?5?8?$HL?8@
CONST	SEGMENT
??_C@_0BL@KNEDAEPA@invalid?5fill?5character?5?8?$HL?8@ DB 'invalid fill c'
	DB	'haracter ''{''', 00H			; `string'
CONST	ENDS
;	COMDAT ??_C@_05JHILFKJA@0e?$CL00@
CONST	SEGMENT
??_C@_05JHILFKJA@0e?$CL00@ DB '0e+00', 00H		; `string'
CONST	ENDS
;	COMDAT ??_C@_0DI@JFEOALGI@Modifier?5requires?5an?5integer?5pr@
CONST	SEGMENT
??_C@_0DI@JFEOALGI@Modifier?5requires?5an?5integer?5pr@ DB 'Modifier requ'
	DB	'ires an integer presentation type for bool', 00H ; `string'
CONST	ENDS
;	COMDAT ??_C@_0CG@LHDOJLDP@Invalid?5presentation?5type?5for?5p@
CONST	SEGMENT
??_C@_0CG@LHDOJLDP@Invalid?5presentation?5type?5for?5p@ DB 'Invalid prese'
	DB	'ntation type for pointer', 00H		; `string'
CONST	ENDS
;	COMDAT ??_C@_0CF@MMFFCGKF@Invalid?5presentation?5type?5for?5s@
CONST	SEGMENT
??_C@_0CF@MMFFCGKF@Invalid?5presentation?5type?5for?5s@ DB 'Invalid prese'
	DB	'ntation type for string', 00H		; `string'
CONST	ENDS
;	COMDAT ??_C@_0CN@EEOMCCM@Invalid?5presentation?5type?5for?5f@
CONST	SEGMENT
??_C@_0CN@EEOMCCM@Invalid?5presentation?5type?5for?5f@ DB 'Invalid presen'
	DB	'tation type for floating-point', 00H	; `string'
CONST	ENDS
;	COMDAT ??_C@_0CG@PIIJGCKO@Invalid?5presentation?5type?5for?5i@
CONST	SEGMENT
??_C@_0CG@PIIJGCKO@Invalid?5presentation?5type?5for?5i@ DB 'Invalid prese'
	DB	'ntation type for integer', 00H		; `string'
CONST	ENDS
;	COMDAT ??_C@_0CD@IFHOEGFC@Invalid?5presentation?5type?5for?5c@
CONST	SEGMENT
??_C@_0CD@IFHOEGFC@Invalid?5presentation?5type?5for?5c@ DB 'Invalid prese'
	DB	'ntation type for char', 00H			; `string'
CONST	ENDS
;	COMDAT ??_C@_0CD@PLBGEFIO@Invalid?5presentation?5type?5for?5b@
CONST	SEGMENT
??_C@_0CD@PLBGEFIO@Invalid?5presentation?5type?5for?5b@ DB 'Invalid prese'
	DB	'ntation type for bool', 00H			; `string'
CONST	ENDS
;	COMDAT ??_C@_0CE@OLPMMFCN@Invalid?5presentation?5type?5speci@
CONST	SEGMENT
??_C@_0CE@OLPMMFCN@Invalid?5presentation?5type?5speci@ DB 'Invalid presen'
	DB	'tation type specifier', 00H			; `string'
CONST	ENDS
;	COMDAT ??_C@_0BM@ONFDPAFF@Invalid?5type?5specification?4@
CONST	SEGMENT
??_C@_0BM@ONFDPAFF@Invalid?5type?5specification?4@ DB 'Invalid type speci'
	DB	'fication.', 00H				; `string'
CONST	ENDS
;	COMDAT ??_C@_0CM@EFKJINMJ@Format?5specifier?5requires?5numer@
CONST	SEGMENT
??_C@_0CM@EFKJINMJ@Format?5specifier?5requires?5numer@ DB 'Format specifi'
	DB	'er requires numeric argument.', 00H		; `string'
CONST	ENDS
;	COMDAT ??_C@_0BC@JOAOKPFE@Number?5is?5too?5big@
CONST	SEGMENT
??_C@_0BC@JOAOKPFE@Number?5is?5too?5big@ DB 'Number is too big', 00H ; `string'
CONST	ENDS
;	COMDAT ??_C@_04BIJNIPAK@0p?$CL0@
CONST	SEGMENT
??_C@_04BIJNIPAK@0p?$CL0@ DB '0p+0', 00H		; `string'
CONST	ENDS
;	COMDAT ??_C@_0DB@FGJJGOLD@Can?5not?5switch?5from?5automatic?5t@
CONST	SEGMENT
??_C@_0DB@FGJJGOLD@Can?5not?5switch?5from?5automatic?5t@ DB 'Can not swit'
	DB	'ch from automatic to manual indexing', 00H	; `string'
CONST	ENDS
;	COMDAT ??_C@_0BC@KBDMBKEH@deque?$DMT?$DO?5too?5long@
CONST	SEGMENT
??_C@_0BC@KBDMBKEH@deque?$DMT?$DO?5too?5long@ DB 'deque<T> too long', 00H ; `string'
CONST	ENDS
;	COMDAT ??_C@_0BK@OGNNAFAB@invalid?5hash?5bucket?5count@
CONST	SEGMENT
??_C@_0BK@OGNNAFAB@invalid?5hash?5bucket?5count@ DB 'invalid hash bucket '
	DB	'count', 00H					; `string'
CONST	ENDS
;	COMDAT ??_C@_0BL@GOIGLPKN@unordered_map?1set?5too?5long@
CONST	SEGMENT
??_C@_0BL@GOIGLPKN@unordered_map?1set?5too?5long@ DB 'unordered_map/set t'
	DB	'oo long', 00H				; `string'
CONST	ENDS
;	COMDAT ??_C@_09IPFBKMDL@nan?$CIsnan?$CJ@
CONST	SEGMENT
??_C@_09IPFBKMDL@nan?$CIsnan?$CJ@ DB 'nan(snan)', 00H	; `string'
CONST	ENDS
;	COMDAT ??_C@_03LHCJEHON@nan@
CONST	SEGMENT
??_C@_03LHCJEHON@nan@ DB 'nan', 00H			; `string'
CONST	ENDS
;	COMDAT ??_C@_08OFCDMILK@nan?$CIind?$CJ@
CONST	SEGMENT
??_C@_08OFCDMILK@nan?$CIind?$CJ@ DB 'nan(ind)', 00H	; `string'
CONST	ENDS
;	COMDAT ??_C@_03OJHLLCGB@inf@
CONST	SEGMENT
??_C@_03OJHLLCGB@inf@ DB 'inf', 00H			; `string'
CONST	ENDS
;	COMDAT ??_C@_1BK@MHIKGOKE@?$AA?3?$AAA?$AAM?$AA?3?$AAa?$AAm?$AA?3?$AAP?$AAM?$AA?3?$AAp?$AAm@
CONST	SEGMENT
??_C@_1BK@MHIKGOKE@?$AA?3?$AAA?$AAM?$AA?3?$AAa?$AAm?$AA?3?$AAP?$AAM?$AA?3?$AAp?$AAm@ DB ':'
	DB	00H, 'A', 00H, 'M', 00H, ':', 00H, 'a', 00H, 'm', 00H, ':', 00H
	DB	'P', 00H, 'M', 00H, ':', 00H, 'p', 00H, 'm', 00H, 00H, 00H ; `string'
CONST	ENDS
;	COMDAT ??_C@_0BI@CFPLBAOH@invalid?5string?5position@
CONST	SEGMENT
??_C@_0BI@CFPLBAOH@invalid?5string?5position@ DB 'invalid string position'
	DB	00H						; `string'
CONST	ENDS
;	COMDAT ??_C@_0BA@FOIKENOD@vector?5too?5long@
CONST	SEGMENT
??_C@_0BA@FOIKENOD@vector?5too?5long@ DB 'vector too long', 00H ; `string'
CONST	ENDS
;	COMDAT ??_C@_0BJ@DHFDPMIM@invalid?5vector?5subscript@
CONST	SEGMENT
??_C@_0BJ@DHFDPMIM@invalid?5vector?5subscript@ DB 'invalid vector subscri'
	DB	'pt', 00H					; `string'
CONST	ENDS
;	COMDAT ??_C@_0N@LPFKKEBD@?3AM?3am?3PM?3pm@
CONST	SEGMENT
??_C@_0N@LPFKKEBD@?3AM?3am?3PM?3pm@ DB ':AM:am:PM:pm', 00H ; `string'
CONST	ENDS
;	COMDAT ??_C@_0O@FBLEKAML@V?3?5?$HL?$HN?0?5T?3?5?$HL?$HN?5@
CONST	SEGMENT
??_C@_0O@FBLEKAML@V?3?5?$HL?$HN?0?5T?3?5?$HL?$HN?5@ DB 'V: {}, T: {} ', 00H ; `string'
CONST	ENDS
;	COMDAT ??_C@_0BH@DCOOOFBH@avg?4Fps?3?5?$HL?$HN?5avg?4ms?3?5?$HL?$HN@
CONST	SEGMENT
??_C@_0BH@DCOOOFBH@avg?4Fps?3?5?$HL?$HN?5avg?4ms?3?5?$HL?$HN@ DB 'avg.Fps'
	DB	': {} avg.ms: {}', 00H			; `string'
CONST	ENDS
;	COMDAT ??_C@_0L@BPKHOCAB@Mem?3?5?$HL?$HN?5mb@
CONST	SEGMENT
??_C@_0L@BPKHOCAB@Mem?3?5?$HL?$HN?5mb@ DB 'Mem: {} mb', 00H ; `string'
CONST	ENDS
;	COMDAT ??_C@_0M@PKLFDBFC@Full?3?5?$HL?$HN?5ms@
CONST	SEGMENT
??_C@_0M@PKLFDBFC@Full?3?5?$HL?$HN?5ms@ DB 'Full: {} ms', 00H ; `string'
CONST	ENDS
;	COMDAT ??_C@_0L@LFOCLCCD@GPU?3?5?$HL?$HN?5ms@
CONST	SEGMENT
??_C@_0L@LFOCLCCD@GPU?3?5?$HL?$HN?5ms@ DB 'GPU: {} ms', 00H ; `string'
CONST	ENDS
;	COMDAT ??_C@_0L@FDLMBKB@CPU?3?5?$HL?$HN?5ms@
CONST	SEGMENT
??_C@_0L@FDLMBKB@CPU?3?5?$HL?$HN?5ms@ DB 'CPU: {} ms', 00H ; `string'
CONST	ENDS
;	COMDAT ??_C@_08JAEFKDLJ@Profiler@
CONST	SEGMENT
??_C@_08JAEFKDLJ@Profiler@ DB 'Profiler', 00H		; `string'
CONST	ENDS
;	COMDAT ??_C@_07DGBOLLPD@?5DSided@
CONST	SEGMENT
??_C@_07DGBOLLPD@?5DSided@ DB ' DSided', 00H		; `string'
CONST	ENDS
;	COMDAT ??_C@_0BF@LCOMFHIP@Draw?5Occlusion?5Boxes@
CONST	SEGMENT
??_C@_0BF@LCOMFHIP@Draw?5Occlusion?5Boxes@ DB 'Draw Occlusion Boxes', 00H ; `string'
CONST	ENDS
;	COMDAT ??_C@_05MCEBKLMH@?5Move@
CONST	SEGMENT
??_C@_05MCEBKLMH@?5Move@ DB ' Move', 00H		; `string'
CONST	ENDS
;	COMDAT ??_C@_09COKGFAGH@?5backCull@
CONST	SEGMENT
??_C@_09COKGFAGH@?5backCull@ DB ' backCull', 00H	; `string'
CONST	ENDS
;	COMDAT ??_C@_0BF@DHCIONHG@Screen?5Space?5Shadows@
CONST	SEGMENT
??_C@_0BF@DHCIONHG@Screen?5Space?5Shadows@ DB 'Screen Space Shadows', 00H ; `string'
CONST	ENDS
;	COMDAT ??_C@_0L@CHAIKEHD@DRLOffest2@
CONST	SEGMENT
??_C@_0L@CHAIKEHD@DRLOffest2@ DB 'DRLOffest2', 00H	; `string'
CONST	ENDS
;	COMDAT ??_C@_09MCDCIIPB@DRLOffest@
CONST	SEGMENT
??_C@_09MCDCIIPB@DRLOffest@ DB 'DRLOffest', 00H		; `string'
CONST	ENDS
;	COMDAT ??_C@_0L@LAJBCAOP@ShadowResY@
CONST	SEGMENT
??_C@_0L@LAJBCAOP@ShadowResY@ DB 'ShadowResY', 00H	; `string'
CONST	ENDS
;	COMDAT ??_C@_0L@KJIKBBKO@ShadowResX@
CONST	SEGMENT
??_C@_0L@KJIKBBKO@ShadowResX@ DB 'ShadowResX', 00H	; `string'
CONST	ENDS
;	COMDAT ??_C@_0BI@CGLLFBDD@v?5?5Full?5startup?5time?5?5v@
CONST	SEGMENT
??_C@_0BI@CGLLFBDD@v?5?5Full?5startup?5time?5?5v@ DB 'v  Full startup tim'
	DB	'e  v', 00H					; `string'
CONST	ENDS
;	COMDAT ??_C@_0DI@LJCEOEEM@?$FO?$DN?$DN?$DN?$DN?$DN?$DN?$DN?$DN?$DN?$DN?$DN?$DN?$DN?$DN?5?5?5Post?5Processi@
CONST	SEGMENT
??_C@_0DI@LJCEOEEM@?$FO?$DN?$DN?$DN?$DN?$DN?$DN?$DN?$DN?$DN?$DN?$DN?$DN?$DN?$DN?5?5?5Post?5Processi@ DB '^'
	DB	'==============   Post Processing Log   ==============^', 00H ; `string'
CONST	ENDS
;	COMDAT ??_C@_0DI@MJBKCDM@v?$DN?$DN?$DN?$DN?$DN?$DN?$DN?$DN?$DN?$DN?$DN?$DN?$DN?$DN?5?5?5Post?5Processi@
CONST	SEGMENT
??_C@_0DI@MJBKCDM@v?$DN?$DN?$DN?$DN?$DN?$DN?$DN?$DN?$DN?$DN?$DN?$DN?$DN?$DN?5?5?5Post?5Processi@ DB 'v'
	DB	'==============   Post Processing Log   ==============v', 00H ; `string'
CONST	ENDS
;	COMDAT ??_C@_0BK@FGACGJGF@Framebuffer?5not?5complete?$CB@
CONST	SEGMENT
??_C@_0BK@FGACGJGF@Framebuffer?5not?5complete?$CB@ DB 'Framebuffer not co'
	DB	'mplete!', 00H				; `string'
CONST	ENDS
;	COMDAT ??_C@_0DL@LOCJPJNJ@v?$DN?$DN?$DN?$DN?$DN?$DN?$DN?$DN?$DN?$DN?$DN?$DN?$DN?$DN?$DN?$DN?$DN?5?5?5Creating?5R@
CONST	SEGMENT
??_C@_0DL@LOCJPJNJ@v?$DN?$DN?$DN?$DN?$DN?$DN?$DN?$DN?$DN?$DN?$DN?$DN?$DN?$DN?$DN?$DN?$DN?5?5?5Creating?5R@ DB 'v'
	DB	'=================   Creating RendObj   =================v', 00H ; `string'
CONST	ENDS
;	COMDAT ??_C@_0DF@OIBOEPEE@?$FO?$DN?$DN?$DN?$DN?$DN?$DN?$DN?$DN?$DN?$DN?$DN?$DN?$DN?$DN?$DN?$DN?$DN?5?5?5Meshes?5Log@
CONST	SEGMENT
??_C@_0DF@OIBOEPEE@?$FO?$DN?$DN?$DN?$DN?$DN?$DN?$DN?$DN?$DN?$DN?$DN?$DN?$DN?$DN?$DN?$DN?$DN?5?5?5Meshes?5Log@ DB '^'
	DB	'=================   Meshes Log   =================^', 00H ; `string'
CONST	ENDS
;	COMDAT ??_C@_0BO@FHPOGOLG@Resources?2Models?2Hoodwink?4obj@
CONST	SEGMENT
??_C@_0BO@FHPOGOLG@Resources?2Models?2Hoodwink?4obj@ DB 'Resources\Models'
	DB	'\Hoodwink.obj', 00H				; `string'
CONST	ENDS
;	COMDAT ??_C@_0BO@HGBLLDDJ@Resources?2Models?2untitled?4obj@
CONST	SEGMENT
??_C@_0BO@HGBLLDDJ@Resources?2Models?2untitled?4obj@ DB 'Resources\Models'
	DB	'\untitled.obj', 00H				; `string'
CONST	ENDS
;	COMDAT ??_C@_0DF@COILFDAN@v?$DN?$DN?$DN?$DN?$DN?$DN?$DN?$DN?$DN?$DN?$DN?$DN?$DN?$DN?$DN?$DN?$DN?5?5?5Meshes?5Log@
CONST	SEGMENT
??_C@_0DF@COILFDAN@v?$DN?$DN?$DN?$DN?$DN?$DN?$DN?$DN?$DN?$DN?$DN?$DN?$DN?$DN?$DN?$DN?$DN?5?5?5Meshes?5Log@ DB 'v'
	DB	'=================   Meshes Log   =================v', 00H ; `string'
CONST	ENDS
;	COMDAT ??_C@_0DI@OPBAJGLF@?$FO?$DN?$DN?$DN?$DN?$DN?$DN?$DN?$DN?$DN?$DN?$DN?$DN?$DN?$DN?$DN?$DN?$DN?5?5?5Materials?5@
CONST	SEGMENT
??_C@_0DI@OPBAJGLF@?$FO?$DN?$DN?$DN?$DN?$DN?$DN?$DN?$DN?$DN?$DN?$DN?$DN?$DN?$DN?$DN?$DN?$DN?5?5?5Materials?5@ DB '^'
	DB	'=================   Materials Log   =================^', 00H ; `string'
CONST	ENDS
;	COMDAT ??_C@_0DI@FKKFNAMF@v?$DN?$DN?$DN?$DN?$DN?$DN?$DN?$DN?$DN?$DN?$DN?$DN?$DN?$DN?$DN?$DN?$DN?5?5?5Materials?5@
CONST	SEGMENT
??_C@_0DI@FKKFNAMF@v?$DN?$DN?$DN?$DN?$DN?$DN?$DN?$DN?$DN?$DN?$DN?$DN?$DN?$DN?$DN?$DN?$DN?5?5?5Materials?5@ DB 'v'
	DB	'=================   Materials Log   =================v', 00H ; `string'
CONST	ENDS
;	COMDAT ??_C@_0DF@HCINOLKF@?$FO?$DN?$DN?$DN?$DN?$DN?$DN?$DN?$DN?$DN?$DN?$DN?$DN?$DN?$DN?$DN?$DN?$DN?5?5Texture?5Log@
CONST	SEGMENT
??_C@_0DF@HCINOLKF@?$FO?$DN?$DN?$DN?$DN?$DN?$DN?$DN?$DN?$DN?$DN?$DN?$DN?$DN?$DN?$DN?$DN?$DN?5?5Texture?5Log@ DB '^'
	DB	'=================  Texture Log   =================^', 00H ; `string'
CONST	ENDS
;	COMDAT ??_C@_0DL@IKMDOAIA@?2Resources?2Images?2hoodwink_head@
CONST	SEGMENT
??_C@_0DL@IKMDOAIA@?2Resources?2Images?2hoodwink_head@ DB '\Resources\Ima'
	DB	'ges\hoodwink_head_color_psd_4e84f665_RGB.tga', 00H ; `string'
CONST	ENDS
;	COMDAT ??_C@_0DL@JGPDOPJL@?2Resources?2Images?2hoodwink_body@
CONST	SEGMENT
??_C@_0DL@JGPDOPJL@?2Resources?2Images?2hoodwink_body@ DB '\Resources\Ima'
	DB	'ges\hoodwink_body_color_psd_67916807_RGB.png', 00H ; `string'
CONST	ENDS
;	COMDAT ??_C@_0BO@DJJCCLJG@?2Resources?2Images?2Grassv2?4jpg@
CONST	SEGMENT
??_C@_0BO@DJJCCLJG@?2Resources?2Images?2Grassv2?4jpg@ DB '\Resources\Imag'
	DB	'es\Grassv2.jpg', 00H			; `string'
CONST	ENDS
;	COMDAT ??_C@_0BN@LIMKCLOC@?2Resources?2Images?2Brick2?4png@
CONST	SEGMENT
??_C@_0BN@LIMKCLOC@?2Resources?2Images?2Brick2?4png@ DB '\Resources\Image'
	DB	's\Brick2.png', 00H				; `string'
CONST	ENDS
;	COMDAT ??_C@_0BP@ODGJHABE@?2Resources?2Images?2texture3?4jpg@
CONST	SEGMENT
??_C@_0BP@ODGJHABE@?2Resources?2Images?2texture3?4jpg@ DB '\Resources\Ima'
	DB	'ges\texture3.jpg', 00H			; `string'
CONST	ENDS
;	COMDAT ??_C@_0BP@CIDFKDLB@?2Resources?2Images?2texture2?4jpg@
CONST	SEGMENT
??_C@_0BP@CIDFKDLB@?2Resources?2Images?2texture2?4jpg@ DB '\Resources\Ima'
	DB	'ges\texture2.jpg', 00H			; `string'
CONST	ENDS
;	COMDAT ??_C@_0BP@KOKBNBBP@?2Resources?2Images?2texture1?4jpg@
CONST	SEGMENT
??_C@_0BP@KOKBNBBP@?2Resources?2Images?2texture1?4jpg@ DB '\Resources\Ima'
	DB	'ges\texture1.jpg', 00H			; `string'
CONST	ENDS
;	COMDAT ??_C@_0CG@KFIOELEG@?2Resources?2Images?2checker?9map_t@
CONST	SEGMENT
??_C@_0CG@KFIOELEG@?2Resources?2Images?2checker?9map_t@ DB '\Resources\Im'
	DB	'ages\checker-map_tho.png', 00H		; `string'
CONST	ENDS
;	COMDAT ??_C@_0DF@LEBIPHOM@v?$DN?$DN?$DN?$DN?$DN?$DN?$DN?$DN?$DN?$DN?$DN?$DN?$DN?$DN?$DN?$DN?$DN?5?5Texture?5Log@
CONST	SEGMENT
??_C@_0DF@LEBIPHOM@v?$DN?$DN?$DN?$DN?$DN?$DN?$DN?$DN?$DN?$DN?$DN?$DN?$DN?$DN?$DN?$DN?$DN?5?5Texture?5Log@ DB 'v'
	DB	'=================  Texture Log   =================v', 00H ; `string'
CONST	ENDS
;	COMDAT ??_C@_0DF@ICEIEJPL@?$FO?$DN?$DN?$DN?$DN?$DN?$DN?$DN?$DN?$DN?$DN?$DN?$DN?$DN?$DN?$DN?$DN?$DN?5?5?5Shader?5Log@
CONST	SEGMENT
??_C@_0DF@ICEIEJPL@?$FO?$DN?$DN?$DN?$DN?$DN?$DN?$DN?$DN?$DN?$DN?$DN?$DN?$DN?$DN?$DN?$DN?$DN?5?5?5Shader?5Log@ DB '^'
	DB	'=================   Shader Log   =================^', 00H ; `string'
CONST	ENDS
;	COMDAT ??_C@_0DF@EENNFFLC@v?$DN?$DN?$DN?$DN?$DN?$DN?$DN?$DN?$DN?$DN?$DN?$DN?$DN?$DN?$DN?$DN?$DN?5?5?5Shader?5Log@
CONST	SEGMENT
??_C@_0DF@EENNFFLC@v?$DN?$DN?$DN?$DN?$DN?$DN?$DN?$DN?$DN?$DN?$DN?$DN?$DN?$DN?$DN?$DN?$DN?5?5?5Shader?5Log@ DB 'v'
	DB	'=================   Shader Log   =================v', 00H ; `string'
CONST	ENDS
;	COMDAT ??_C@_02PHMGELLB@?6?6@
CONST	SEGMENT
??_C@_02PHMGELLB@?6?6@ DB 0aH, 0aH, 00H			; `string'
CONST	ENDS
;	COMDAT ??_C@_0DC@FANMBCGC@?$FO?$DN?$DN?$DN?$DN?$DN?$DN?$DN?$DN?$DN?$DN?$DN?$DN?$DN?$DN?$DN?$DN?$DN?5?5Parallel?5?5?5@
CONST	SEGMENT
??_C@_0DC@FANMBCGC@?$FO?$DN?$DN?$DN?$DN?$DN?$DN?$DN?$DN?$DN?$DN?$DN?$DN?$DN?$DN?$DN?$DN?$DN?5?5Parallel?5?5?5@ DB '^'
	DB	'=================  Parallel   =================^', 00H ; `string'
CONST	ENDS
;	COMDAT ??_C@_0BK@HEFHANKG@Failed?5to?5initialize?5GLAD@
CONST	SEGMENT
??_C@_0BK@HEFHANKG@Failed?5to?5initialize?5GLAD@ DB 'Failed to initialize'
	DB	' GLAD', 00H					; `string'
CONST	ENDS
;	COMDAT ??_C@_0BN@NLIIBAPB@Failed?5to?5create?5GLFW?5window@
CONST	SEGMENT
??_C@_0BN@NLIIBAPB@Failed?5to?5create?5GLFW?5window@ DB 'Failed to create'
	DB	' GLFW window', 00H				; `string'
CONST	ENDS
;	COMDAT ??_C@_0M@KPICCEBP@LearnOpenGL@
CONST	SEGMENT
??_C@_0M@KPICCEBP@LearnOpenGL@ DB 'LearnOpenGL', 00H	; `string'
CONST	ENDS
;	COMDAT ??_C@_08EGHFDCKI@lightPos@
CONST	SEGMENT
??_C@_08EGHFDCKI@lightPos@ DB 'lightPos', 00H		; `string'
CONST	ENDS
;	COMDAT ??_C@_0BA@BAFMHDDH@shadowPrecision@
CONST	SEGMENT
??_C@_0BA@BAFMHDDH@shadowPrecision@ DB 'shadowPrecision', 00H ; `string'
CONST	ENDS
;	COMDAT ??_C@_09DIAMJLCM@shadowMap@
CONST	SEGMENT
??_C@_09DIAMJLCM@shadowMap@ DB 'shadowMap', 00H		; `string'
CONST	ENDS
;	COMDAT ??_C@_0M@OLBNGFPP@cameraDepth@
CONST	SEGMENT
??_C@_0M@OLBNGFPP@cameraDepth@ DB 'cameraDepth', 00H	; `string'
CONST	ENDS
;	COMDAT ??_C@_0BA@KFKPKPII@lightViewMatrix@
CONST	SEGMENT
??_C@_0BA@KFKPKPII@lightViewMatrix@ DB 'lightViewMatrix', 00H ; `string'
CONST	ENDS
;	COMDAT ??_C@_0BA@OAMELBLA@lightProjMatrix@
CONST	SEGMENT
??_C@_0BA@OAMELBLA@lightProjMatrix@ DB 'lightProjMatrix', 00H ; `string'
CONST	ENDS
;	COMDAT ??_C@_0M@CHMEDKGI@proj_matrix@
CONST	SEGMENT
??_C@_0M@CHMEDKGI@proj_matrix@ DB 'proj_matrix', 00H	; `string'
CONST	ENDS
;	COMDAT ??_C@_0M@PIDOJOI@view_matrix@
CONST	SEGMENT
??_C@_0M@PIDOJOI@view_matrix@ DB 'view_matrix', 00H	; `string'
CONST	ENDS
;	COMDAT ??_C@_0BF@DFIDHDPI@inv_lightSpaceMatrix@
CONST	SEGMENT
??_C@_0BF@DFIDHDPI@inv_lightSpaceMatrix@ DB 'inv_lightSpaceMatrix', 00H ; `string'
CONST	ENDS
;	COMDAT ??_C@_0BF@ICPALIIJ@inv_view_proj_matrix@
CONST	SEGMENT
??_C@_0BF@ICPALIIJ@inv_view_proj_matrix@ DB 'inv_view_proj_matrix', 00H ; `string'
CONST	ENDS
;	COMDAT ??_C@_07HBJDLKAL@viewPos@
CONST	SEGMENT
??_C@_07HBJDLKAL@viewPos@ DB 'viewPos', 00H		; `string'
CONST	ENDS
;	COMDAT ??_C@_0BB@EGOIFEHL@DirectionalLight@
CONST	SEGMENT
??_C@_0BB@EGOIFEHL@DirectionalLight@ DB 'DirectionalLight', 00H ; `string'
CONST	ENDS
;	COMDAT ??_C@_0BC@GFNKLKCF@Directional?5Light@
CONST	SEGMENT
??_C@_0BC@GFNKLKCF@Directional?5Light@ DB 'Directional Light', 00H ; `string'
CONST	ENDS
;	COMDAT ??_C@_0P@EIPPFLOO@projViewMatrix@
CONST	SEGMENT
??_C@_0P@EIPPFLOO@projViewMatrix@ DB 'projViewMatrix', 00H ; `string'
CONST	ENDS
;	COMDAT ??_C@_0BD@MDHNBLPI@DepthBuffer?5Id?3?5?$HL?$HN@
CONST	SEGMENT
??_C@_0BD@MDHNBLPI@DepthBuffer?5Id?3?5?$HL?$HN@ DB 'DepthBuffer Id: {}', 00H ; `string'
CONST	ENDS
;	COMDAT ??_C@_0L@EJMOOPIK@GameObject@
CONST	SEGMENT
??_C@_0L@EJMOOPIK@GameObject@ DB 'GameObject', 00H	; `string'
CONST	ENDS
;	COMDAT ??_C@_06JBMJMGAL@Sphere@
CONST	SEGMENT
??_C@_06JBMJMGAL@Sphere@ DB 'Sphere', 00H		; `string'
CONST	ENDS
;	COMDAT ??_C@_09FDONJCAH@Premetive@
CONST	SEGMENT
??_C@_09FDONJCAH@Premetive@ DB 'Premetive', 00H		; `string'
CONST	ENDS
;	COMDAT ??_C@_02NGLBIOFC@o?5@
CONST	SEGMENT
??_C@_02NGLBIOFC@o?5@ DB 'o ', 00H			; `string'
CONST	ENDS
;	COMDAT ??_C@_03MMGHDJKG@use@
CONST	SEGMENT
??_C@_03MMGHDJKG@use@ DB 'use', 00H			; `string'
CONST	ENDS
;	COMDAT ??_C@_0BE@JINKBLI@f?5?$CFi?1?$CFi?5?$CFi?1?$CFi?5?$CFi?1?$CFi@
CONST	SEGMENT
??_C@_0BE@JINKBLI@f?5?$CFi?1?$CFi?5?$CFi?1?$CFi?5?$CFi?1?$CFi@ DB 'f %i/%'
	DB	'i %i/%i %i/%i', 00H				; `string'
CONST	ENDS
;	COMDAT ??_C@_02NJGALFNN@f?5@
CONST	SEGMENT
??_C@_02NJGALFNN@f?5@ DB 'f ', 00H			; `string'
CONST	ENDS
;	COMDAT ??_C@_02BLJBIOPN@vt@
CONST	SEGMENT
??_C@_02BLJBIOPN@vt@ DB 'vt', 00H			; `string'
CONST	ENDS
;	COMDAT ??_C@_02MFEGBGKN@v?5@
CONST	SEGMENT
??_C@_02MFEGBGKN@v?5@ DB 'v ', 00H			; `string'
CONST	ENDS
;	COMDAT ??_C@_0N@DBIPJNPI@Cannot?5open?5@
CONST	SEGMENT
??_C@_0N@DBIPJNPI@Cannot?5open?5@ DB 'Cannot open ', 00H ; `string'
CONST	ENDS
;	COMDAT ??_C@_01KICIPPFI@?2@
CONST	SEGMENT
??_C@_01KICIPPFI@?2@ DB '\', 00H			; `string'
CONST	ENDS
;	COMDAT ??_C@_07EMPPFCON@Unnamed@
CONST	SEGMENT
??_C@_07EMPPFCON@Unnamed@ DB 'Unnamed', 00H		; `string'
CONST	ENDS
;	COMDAT ??_C@_07EJELELLN@UVScale@
CONST	SEGMENT
??_C@_07EJELELLN@UVScale@ DB 'UVScale', 00H		; `string'
CONST	ENDS
;	COMDAT ??_C@_08DPLIAGAA@specular@
CONST	SEGMENT
??_C@_08DPLIAGAA@specular@ DB 'specular', 00H		; `string'
CONST	ENDS
;	COMDAT ??_C@_06HCNFJPHJ@albedo@
CONST	SEGMENT
??_C@_06HCNFJPHJ@albedo@ DB 'albedo', 00H		; `string'
CONST	ENDS
;	COMDAT ??_C@_0CGMG@KEOCCHAF@?$HL?$HN?6out?5vec4?5FragColor?$DL?6?6?5?5?5?5in?5@
CONST	SEGMENT
??_C@_0CGMG@KEOCCHAF@?$HL?$HN?6out?5vec4?5FragColor?$DL?6?6?5?5?5?5in?5@ DB '{'
	DB	'}', 0aH, 'out vec4 FragColor;', 0aH, 0aH, '    in vec2 UV;', 0aH
	DB	0aH, 'uniform mat4 view_matrix;', 0aH, 'uniform mat4 proj_matr'
	DB	'ix;', 0aH, 0aH, 'uniform mat4 inv_view_proj_matrix;', 0aH, 'u'
	DB	'niform mat4 inv_lightSpaceMatrix;', 0aH, 'uniform mat4 lightP'
	DB	'rojMatrix;', 0aH, 'uniform mat4 lightViewMatrix;', 0aH, 'unif'
	DB	'orm sampler2D shadowMap;', 0aH, 'uniform sampler2D cameraDept'
	DB	'h;', 0aH, 'uniform float shadowPrecision;', 0aH, 'uniform vec'
	DB	'3 lightPos;', 0aH, 'uniform vec3 viewPos;', 0aH, 'const float'
	DB	' ts = 1/2048;', 0aH, 'const float texelsizeH = 1/800;', 0aH, 'c'
	DB	'onst float texelsizeW = 1/600;', 0aH, 0aH, 'uint hash( uint x'
	DB	' ) {{', 0aH, '    x += ( x << 10u );', 0aH, '    x ^= ( x >> '
	DB	' 6u );', 0aH, '    x += ( x <<  3u );', 0aH, '    x ^= ( x >>'
	DB	' 11u );', 0aH, '    x += ( x << 15u );', 0aH, '    return x;', 0aH
	DB	'}}', 0aH, 'in flat int InstanceID ;', 0aH, 0aH, 0aH, '// Comp'
	DB	'ound versions of the hashing algorithm I whipped together.', 0aH
	DB	'uint hash( uvec2 v ) {{ return hash( v.x ^ hash(v.y)         '
	DB	'                ); }}', 0aH, 'uint hash( uvec3 v ) {{ return '
	DB	'hash( v.x ^ hash(v.y) ^ hash(v.z)             ); }}', 0aH, 'u'
	DB	'int hash( uvec4 v ) {{ return hash( v.x ^ hash(v.y) ^ hash(v.'
	DB	'z) ^ hash(v.w) ); }}', 0aH, 0aH, 0aH, 0aH, '// Construct a fl'
	DB	'oat with half-open range [0:1] using low 23 bits.', 0aH, '// '
	DB	'All zeroes yields 0.0, all ones yields the next smallest repr'
	DB	'esentable value below 1.0.', 0aH, 'float floatConstruct( uint'
	DB	' m ) {{', 0aH, '    const uint ieeeMantissa = 0x007FFFFFu; //'
	DB	' binary32 mantissa bitmask', 0aH, '    const uint ieeeOne    '
	DB	'  = 0x3F800000u; // 1.0 in IEEE binary32', 0aH, 0aH, '    m &'
	DB	'= ieeeMantissa;                     // Keep only mantissa bit'
	DB	's (fractional part)', 0aH, '    m |= ieeeOne;                '
	DB	'          // Add fractional part to 1.0', 0aH, 0aH, '    floa'
	DB	't  f = uintBitsToFloat( m );       // Range [1:2]', 0aH, '   '
	DB	' return f - 1.0;                        // Range [0:1]', 0aH, '}'
	DB	'}', 0aH, 0aH, 0aH, 0aH, '// Pseudo-random value in half-open '
	DB	'range [0:1].', 0aH, 'float random( float x ) {{ return floatC'
	DB	'onstruct(hash(floatBitsToUint(x))); }}', 0aH, 'float random( '
	DB	'vec2  v ) {{ return floatConstruct(hash(floatBitsToUint(v)));'
	DB	' }}', 0aH, 'float random( vec3  v ) {{ return floatConstruct('
	DB	'hash(floatBitsToUint(v))); }}', 0aH, 'float random( vec4  v )'
	DB	' {{ return floatConstruct(hash(floatBitsToUint(v))); }}', 0aH
	DB	'float distS( vec3 A, vec3 B )', 0aH, '{{', 0aH, 0aH, '    vec'
	DB	'3 C = A - B;', 0aH, '    return dot( C, C );', 0aH, 0aH, '}}', 0aH
	DB	'//vec3 WorldSpaceFromDepth(float depth,vec2 uv,mat4 inv_matri'
	DB	'x)', 0aH, '//{{    ', 0aH, '//    depth = depth * 2.0 - 1.0;', 0aH
	DB	'//', 09H, 'vec4 v2 = inv_matrix*vec4(uv,depth,1);', 0aH, '// '
	DB	'   return v2.xyz/v2.w;', 0aH, '//}}', 0aH, 'vec3 WorldSpaceFr'
	DB	'omDepth(float depth,vec2 uv,mat4 projMatrixInv,mat4 viewMatri'
	DB	'xInv) {{', 0aH, 09H, 'projMatrixInv = inverse(projMatrixInv);'
	DB	0aH, 09H, 'viewMatrixInv = inverse(viewMatrixInv);', 0aH, 0aH, ' '
	DB	'   depth = depth * 2.0 - 1.0;', 0aH, 0aH, '    vec4 clipSpace'
	DB	'Position = vec4(uv * 2.0 - 1.0, depth, 1.0);', 0aH, '    vec4'
	DB	' viewSpacePosition = projMatrixInv * clipSpacePosition;', 0aH
	DB	0aH, '    // Perspective division', 0aH, '    viewSpacePositio'
	DB	'n /= viewSpacePosition.w;', 0aH, 0aH, '    vec4 worldSpacePos'
	DB	'ition = viewMatrixInv * viewSpacePosition;', 0aH, 0aH, '    r'
	DB	'eturn worldSpacePosition.xyz;', 0aH, '}}', 0aH, 'vec2 ndcspac'
	DB	'e(mat4 projectionMatrix,mat4 viewMatrix,vec3 position)', 0aH, '{'
	DB	'{', 0aH, 09H, 'vec4 clipSpacePos = projectionMatrix * (viewMa'
	DB	'trix * vec4(position, 1.0));', 0aH, 09H, 'vec3 ndcSpacePos = '
	DB	'clipSpacePos.xyz / clipSpacePos.w;', 0aH, 09H, '//vec2 screen'
	DB	'Space = ((ndcSpacePos.xy + 1.0) / 2.0) * vec2(800,600);', 0aH
	DB	09H, '//screenSpace.y = 600 - screenSpace.y;', 0aH, 09H, 'retu'
	DB	'rn (ndcSpacePos.xy+ 1.0) / 2.0;', 0aH, '}}', 0aH, '//float sm'
	DB	'oth(sampler2D tex,vec2 uv)', 0aH, '//{{', 0aH, '//', 09H, 've'
	DB	'c2 grid= vec2(texelsize/2);', 0aH, '//', 09H, 'vec2 cent = uv'
	DB	' - mod(uv,texelsize)+grid;', 0aH, '//', 09H, 'float src = tex'
	DB	'ture(tex,cent).r;', 0aH, '//', 09H, 'float res = distamce(cen'
	DB	't,uv)*src;', 0aH, '//', 09H, 0aH, '//', 09H, 'if(grid.x>=0)', 0aH
	DB	'//', 09H, '{{', 09H, 0aH, '//', 09H, 09H, 'cent+vec2(grid.x,0'
	DB	');', 0aH, '//', 09H, 09H, 'src = texture(tex,cent).r;', 0aH, '/'
	DB	'/', 09H, 09H, 'res = distamce(cent,uv)*src;', 0aH, '//', 09H, '}'
	DB	'}', 0aH, '//', 09H, 'float srcl = texture', 0aH, '//}}', 0aH, 'v'
	DB	'ec4 cubic(float v){{', 0aH, '    vec4 n = vec4(1.0, 2.0, 3.0,'
	DB	' 4.0) - v;', 0aH, '    vec4 s = n * n * n;', 0aH, '    float '
	DB	'x = s.x;', 0aH, '    float y = s.y - 4.0 * s.x;', 0aH, '    f'
	DB	'loat z = s.z - 4.0 * s.y + 6.0 * s.x;', 0aH, '    float w = 6'
	DB	'.0 - x - y - z;', 0aH, '    return vec4(x, y, z, w) * (1.0/6.'
	DB	'0);', 0aH, '}}', 0aH, 'float textureBicubic(sampler2D sampler'
	DB	', vec2 texCoords){{', 0aH, 0aH, '   vec2 texSize = textureSiz'
	DB	'e(sampler, 0);', 0aH, '   vec2 invTexSize = 1.0 / texSize;', 0aH
	DB	'   ', 0aH, '   texCoords = texCoords * texSize - 0.5;', 0aH, 0aH
	DB	'   ', 0aH, '    vec2 fxy = fract(texCoords);', 0aH, '    texC'
	DB	'oords -= fxy;', 0aH, 0aH, '    vec4 xcubic = cubic(fxy.x);', 0aH
	DB	'    vec4 ycubic = cubic(fxy.y);', 0aH, 0aH, '    vec4 c = tex'
	DB	'Coords.xxyy + vec2 (-0.5, +1.5).xyxy;', 0aH, '    ', 0aH, '  '
	DB	'  vec4 s = vec4(xcubic.xz + xcubic.yw, ycubic.xz + ycubic.yw)'
	DB	';', 0aH, '    vec4 offset = c + vec4 (xcubic.yw, ycubic.yw) /'
	DB	' s;', 0aH, '    ', 0aH, '    offset *= invTexSize.xxyy;', 0aH
	DB	'    ', 0aH, '    float sample0 = texture(sampler, offset.xz).'
	DB	'r;', 0aH, '    float sample1 = texture(sampler, offset.yz).r;'
	DB	0aH, '    float sample2 = texture(sampler, offset.xw).r;', 0aH
	DB	'    float sample3 = texture(sampler, offset.yw).r;', 0aH, 0aH
	DB	'    float sx = s.x / (s.x + s.y);', 0aH, '    float sy = s.z '
	DB	'/ (s.z + s.w);', 0aH, 0aH, '    return mix(', 0aH, '       mi'
	DB	'x(sample3, sample2, sx), mix(sample1, sample0, sx)', 0aH, '  '
	DB	'  , sy);', 0aH, '}}', 0aH, 0aH, 'float getSmuthDepth(sampler2'
	DB	'D t, vec2 uv)', 0aH, '{{', 0aH, 09H, 'float shadow=0.0;', 0aH
	DB	'    //vec2 texelSize = vec2(1.0 / textureSize(t, 0).x);', 0aH
	DB	0aH, 09H, '// shadow +=texture(t,  uv).r;        ', 0aH, 09H, '/'
	DB	'/ shadow +=texture(t,  uv + vec2(ts', 09H, ', 0))   .r;      '
	DB	'  ', 0aH, 09H, '// shadow +=texture(t,  uv - vec2(ts', 09H, ','
	DB	' 0))   .r;        ', 0aH, 09H, '// shadow +=texture(t,  uv + '
	DB	'vec2(0', 09H, ', ts))  .r;        ', 0aH, 09H, '// shadow +=t'
	DB	'exture(t,  uv - vec2(0', 09H, ', ts))  .r;        ', 0aH, 09H
	DB	'// shadow +=texture(t,  uv + vec2(ts', 09H, ', ts))  .r;     '
	DB	'   ', 0aH, 09H, '// shadow +=texture(t,  uv + vec2(-ts', 09H, ','
	DB	' ts))  .r;        ', 0aH, 09H, '// shadow +=texture(t,  uv - '
	DB	'vec2(ts', 09H, ', ts))  .r;        ', 0aH, 09H, '// shadow +='
	DB	'texture(t,  uv - vec2(-ts', 09H, ', ts))  .r;        ', 0aH, ' '
	DB	'//   shadow /= 9.0;', 0aH, 09H, '//return shadow;', 0aH, 0aH, 09H
	DB	'float s=0;', 0aH, 09H, 'int sampleC=2;', 0aH, 0aH, '    for(i'
	DB	'nt x = -sampleC; x <= sampleC; ++x)', 0aH, '    {{', 0aH, '  '
	DB	'      for(int y = -sampleC; y <= sampleC; ++y)', 0aH, '      '
	DB	'  {{', 0aH, '            shadow +=textureBicubic(t,  uv + vec'
	DB	'2(x, y)*ts).r;', 0aH, 09H, 09H, 09H, 's++;        ', 0aH, '  '
	DB	'      }}    ', 0aH, '    }}', 0aH, '    shadow /= s;', 0aH, 09H
	DB	'return shadow;', 0aH, '}}', 0aH, 0aH, 'float ShadowCalculatio'
	DB	'n()', 0aH, '{{', 0aH, 09H, 'float dth=texture(cameraDepth,UV)'
	DB	'.r;', 0aH, 09H, 'if(dth>0.99996)return 0;', 0aH, 09H, '//floa'
	DB	't dth=texture(cameraDepth,UV).r;', 0aH, '    vec4 worldPos =l'
	DB	'ightProjMatrix *lightViewMatrix* vec4(WorldSpaceFromDepth(dth'
	DB	',UV,proj_matrix, view_matrix),1.0);', 0aH, 0aH, 09H, 'vec3 pr'
	DB	'ojCoords = worldPos.xyz / worldPos.w;', 0aH, '    projCoords '
	DB	' = projCoords  * 0.5 + 0.5;', 0aH, 0aH, '    float currentDep'
	DB	'th =projCoords.z;', 0aH, '    //float closestDepth = getSmuth'
	DB	'Depth(shadowMap, projCoords.xy); ', 0aH, '    //float shadow '
	DB	'= currentDepth  >= closestDepth  ?  0.84:0.0 ;', 0aH, 09H, 'f'
	DB	'loat shadow = 0.0;', 0aH, 09H, 'vec2 texelSize = 1.0 / textur'
	DB	'eSize(shadowMap, 0);', 0aH, 09H, 'for(int x = -2; x <= 2; ++x'
	DB	')', 0aH, 09H, '{{', 0aH, 09H, 09H, 'for(int y = -2; y <= 2; +'
	DB	'+y)', 0aH, 09H, 09H, '{{', 0aH, 09H, 09H, 09H, 'float pcfDept'
	DB	'h = texture(shadowMap, projCoords.xy + vec2(x, y) * texelSize'
	DB	').r; ', 0aH, 09H, 09H, 09H, 'shadow += currentDepth-0.0000000'
	DB	'4> pcfDepth ? 0.35 : 0.0;        ', 0aH, 09H, 09H, '}}    ', 0aH
	DB	09H, '}}', 0aH, 09H, 'shadow /= 16.0*dth;', 0aH, 0aH, '    ret'
	DB	'urn shadow;', 0aH, '    //vec2 LightUV  = ndcspace(lightProjM'
	DB	'atrix,lightViewMatrix,worldPos);', 0aH, '    //vec3 worldPos2'
	DB	'= WorldSpaceFromDepth(getSmuthDepth(shadowMap, LightUV),Light'
	DB	'UV,lightProjMatrix,lightViewMatrix);', 0aH, 09H, '//', 0aH, 09H
	DB	'//float texelSize;', 0aH, 0aH, '   //float sumDst=distance(wo'
	DB	'rldPos2,worldPos);', 0aH, 0aH, 0aH, 0aH, 09H, 0aH, '//worldPo'
	DB	's = WorldSpaceFromDepth(textureBicubic(cameraDepth,UV+vec2(te'
	DB	'xelsizeH,texelsizeW)),UV+vec2(texelsizeH,texelsizeW),proj_mat'
	DB	'rix, view_matrix);', 0aH, '//', 09H, 'LightUV  = ndcspace(lig'
	DB	'htProjMatrix,lightViewMatrix,worldPos);', 0aH, '//    worldPo'
	DB	's2= WorldSpaceFromDepth(textureBicubic(shadowMap, LightUV),Li'
	DB	'ghtUV,lightProjMatrix,lightViewMatrix);', 0aH, '//sumDst+=dis'
	DB	'tance(worldPos2,worldPos);', 0aH, '//', 0aH, '//worldPos = Wo'
	DB	'rldSpaceFromDepth(textureBicubic(cameraDepth,UV-vec2(texelsiz'
	DB	'eH,texelsizeW)),UV-vec2(texelsizeH,texelsizeW),proj_matrix, v'
	DB	'iew_matrix);', 0aH, '//    LightUV  = ndcspace(lightProjMatri'
	DB	'x,lightViewMatrix,worldPos);', 0aH, '//    worldPos2= WorldSp'
	DB	'aceFromDepth(textureBicubic(shadowMap, LightUV),LightUV,light'
	DB	'ProjMatrix,lightViewMatrix);', 0aH, '//sumDst+=distance(world'
	DB	'Pos2,worldPos);', 0aH, '//', 0aH, '//worldPos = WorldSpaceFro'
	DB	'mDepth(textureBicubic(cameraDepth,UV-vec2(0,texelsizeW)),UV-v'
	DB	'ec2(0,texelsizeW),proj_matrix, view_matrix);', 0aH, '//    Li'
	DB	'ghtUV  = ndcspace(lightProjMatrix,lightViewMatrix,worldPos);', 0aH
	DB	'//    worldPos2= WorldSpaceFromDepth(textureBicubic(shadowMap'
	DB	', LightUV),LightUV,lightProjMatrix,lightViewMatrix);', 0aH, '/'
	DB	'/sumDst+=distance(worldPos2,worldPos);', 0aH, '//', 0aH, '//w'
	DB	'orldPos = WorldSpaceFromDepth(textureBicubic(cameraDepth,UV-v'
	DB	'ec2(texelsizeH,0)),UV-vec2(texelsizeH,0),proj_matrix, view_ma'
	DB	'trix);', 0aH, '//    LightUV  = ndcspace(lightProjMatrix,ligh'
	DB	'tViewMatrix,worldPos);', 0aH, '//    worldPos2= WorldSpaceFro'
	DB	'mDepth(textureBicubic(shadowMap, LightUV),LightUV,lightProjMa'
	DB	'trix,lightViewMatrix);', 0aH, '//sumDst+=distance(worldPos2,w'
	DB	'orldPos);', 0aH, '//', 0aH, '//worldPos = WorldSpaceFromDepth'
	DB	'(textureBicubic(cameraDepth,UV+vec2(texelsizeH,0)),UV+vec2(te'
	DB	'xelsizeH,0),proj_matrix, view_matrix);', 0aH, '//    LightUV '
	DB	' = ndcspace(lightProjMatrix,lightViewMatrix,worldPos);', 0aH, '/'
	DB	'/    worldPos2= WorldSpaceFromDepth(textureBicubic(shadowMap,'
	DB	' LightUV),LightUV,lightProjMatrix,lightViewMatrix); ', 0aH, '/'
	DB	'/sumDst+=distance(worldPos2,worldPos);  ', 0aH, '// ', 0aH, '/'
	DB	'/worldPos = WorldSpaceFromDepth(textureBicubic(cameraDepth,UV'
	DB	'+vec2(0,texelsizeW)),UV+vec2(0,texelsizeW),proj_matrix, view_'
	DB	'matrix);', 0aH, '//', 09H, 'LightUV  = ndcspace(lightProjMatr'
	DB	'ix,lightViewMatrix,worldPos);', 0aH, '//    worldPos2= WorldS'
	DB	'paceFromDepth(textureBicubic(shadowMap, LightUV),LightUV,ligh'
	DB	'tProjMatrix,lightViewMatrix);', 0aH, '//sumDst+=distance(worl'
	DB	'dPos2,worldPos);', 0aH, 0aH, '//float dst= distance(worldPos2'
	DB	',worldPos);', 0aH, 0aH, 0aH, '//dst = sumDst/7;', 0aH, 0aH, '/'
	DB	'/return dst-0.05;', 0aH, 0aH, 0aH, '  /*  return (dst<=0.0002'
	DB	'?  0.0: 0.6);*/', 0aH, ' /* return max(1-(1/sqrt(1+dst*25)),0'
	DB	'.0);*/', 0aH, 09H, '//return distance(worldPos2,worldPos)>121'
	DB	'2?  0.0: 0.6;', 0aH, '    //return distance(worldPos2,worldPo'
	DB	's)/8800  /*?  0.0: 0.6*/ ;', 0aH, 0aH, '}}', 0aH, 0aH, 0aH, 'v'
	DB	'oid main()', 0aH, '{{           ', 0aH, ' //   vec3 worldPos '
	DB	'= WorldSpaceFromDepth(texture(cameraDepth,UV).r,UV,proj_matri'
	DB	'x, view_matrix);', 0aH, ' //   vec2 LightUV  = ndcspace(light'
	DB	'ProjMatrix,lightViewMatrix,worldPos);', 0aH, ' //   vec3 worl'
	DB	'dPos2= WorldSpaceFromDepth(texture(shadowMap, LightUV).r,Ligh'
	DB	'tUV,lightProjMatrix,lightViewMatrix);', 0aH, 09H, '//FragColo'
	DB	'r = vec4(worldPos2,0.9);', 0aH, 09H, '//FragColor = vec4(Ligh'
	DB	'tUV,0.1,0.9);', 0aH, 09H, '//ShadowCalculation()         ', 0aH
	DB	0aH, '         float c =ShadowCalculation();', 0aH, 09H, 09H, 'i'
	DB	'f(c<0.5)', 0aH, '    FragColor = vec4(0.02,0.04 ,0.01,c*(rand'
	DB	'om(UV*c)/1.5+0.75));', 0aH, 09H, 09H, 'else ', 0aH, 09H, 'Fra'
	DB	'gColor = vec4(0.02,0.04 ,0.01,c);', 0aH, 0aH, '//FragColor = '
	DB	'vec4(WorldSpaceFromDepth(texture(cameraDepth,UV).r,UV, inv_vi'
	DB	'ew_proj_matrix),0.8);', 0aH, '  //FragColor = vec4(ShadowCalc'
	DB	'ulation(),1);', 0aH, 09H, '//FragColor = vec4(WorldSpaceFromD'
	DB	'epth(texture(cameraDepth,UV).r,UV, inv_view_proj_matrix),1);', 0aH
	DB	'}}', 00H					; `string'
CONST	ENDS
;	COMDAT ??_C@_0KC@LOJHPOGF@?$HL?$HN?6layout?5?$CIlocation?5?$DN?50?$CJ?5in?5vec@
CONST	SEGMENT
??_C@_0KC@LOJHPOGF@?$HL?$HN?6layout?5?$CIlocation?5?$DN?50?$CJ?5in?5vec@ DB '{'
	DB	'}', 0aH, 'layout (location = 0) in vec3 aPos;', 0aH, 'layout '
	DB	'(location = 1) in vec2 aTexCoords;', 0aH, 0aH, 'out  vec2 UV;'
	DB	0aH, 'void main()', 0aH, '{{', 0aH, 'UV = aTexCoords;', 0aH, 'g'
	DB	'l_Position = vec4(aPos, 1.0);', 0aH, '}}', 00H ; `string'
CONST	ENDS
;	COMDAT ??_C@_0CJ@EGJBBMHK@FragColor?5?$DNtexture?$CIalbedo?0?5UV?$CKU@
CONST	SEGMENT
??_C@_0CJ@EGJBBMHK@FragColor?5?$DNtexture?$CIalbedo?0?5UV?$CKU@ DB 'FragC'
	DB	'olor =texture(albedo, UV*UVScale);', 0aH, 00H ; `string'
CONST	ENDS
;	COMDAT ??_C@_0FM@POPKEIHD@?6in?5vec2?5UV?$DL?6?1?1uniform?5sampler2@
CONST	SEGMENT
??_C@_0FM@POPKEIHD@?6in?5vec2?5UV?$DL?6?1?1uniform?5sampler2@ DB 0aH, 'in'
	DB	' vec2 UV;', 0aH, '//uniform sampler2D specular;', 0aH, 'unifo'
	DB	'rm sampler2D albedo;', 0aH, 'uniform vec2 UVScale;', 0aH, 00H ; `string'
CONST	ENDS
;	COMDAT ??_C@_08HAGAMINK@UV?$DN?5aUV?$DL@
CONST	SEGMENT
??_C@_08HAGAMINK@UV?$DN?5aUV?$DL@ DB 'UV= aUV;', 00H	; `string'
CONST	ENDS
;	COMDAT ??_C@_0DB@LEHBABJ@?6layout?5?$CIlocation?5?$DN?52?$CJ?5in?5vec2?5@
CONST	SEGMENT
??_C@_0DB@LEHBABJ@?6layout?5?$CIlocation?5?$DN?52?$CJ?5in?5vec2?5@ DB 0aH
	DB	'layout (location = 2) in vec2 aUV;', 0aH, 'out vec2 UV;', 00H ; `string'
CONST	ENDS
;	COMDAT ??_C@_0CP@CCKLCCAM@?$HL?$HN?6out?5vec4?5FragColor?$DL?6?$HL?$HN?6void?5@
CONST	SEGMENT
??_C@_0CP@CCKLCCAM@?$HL?$HN?6out?5vec4?5FragColor?$DL?6?$HL?$HN?6void?5@ DB '{'
	DB	'}', 0aH, 'out vec4 FragColor;', 0aH, '{}', 0aH, 'void main()', 0aH
	DB	'{{', 0aH, '{}', 0aH, '}}', 00H		; `string'
CONST	ENDS
;	COMDAT ??_C@_0MA@JGIKEHMD@?$HL?$HN?6layout?$CIlocation?5?$DN?50?$CJ?5in?5vec3@
CONST	SEGMENT
??_C@_0MA@JGIKEHMD@?$HL?$HN?6layout?$CIlocation?5?$DN?50?$CJ?5in?5vec3@ DB '{'
	DB	'}', 0aH, 'layout(location = 0) in vec3 aPos;', 0aH, 'layout(l'
	DB	'ocation = 3) in mat4 Transform;', 0aH, 0aH, 'uniform mat4 pro'
	DB	'jViewMatrix;', 0aH, '{}', 0aH, 'void main()', 0aH, '{{', 0aH, 'g'
	DB	'l_Position = projViewMatrix * Transform * vec4(aPos, 1.0);', 0aH
	DB	'{}', 0aH, '}}', 00H				; `string'
CONST	ENDS
;	COMDAT ??_C@_0CM@DNCCJING@?5FragColor?5?$DN?5vec4?$CI1?40f?0?50?45f?0?50@
CONST	SEGMENT
??_C@_0CM@DNCCJING@?5FragColor?5?$DN?5vec4?$CI1?40f?0?50?45f?0?50@ DB ' F'
	DB	'ragColor = vec4(1.0f, 0.5f, 0.2f, 1.0f);', 0aH, 00H ; `string'
CONST	ENDS
;	COMDAT ??_C@_0FLH@KNLHCNKP@?$CDversion?5330?5core?6out?5vec4?5Frag@
CONST	SEGMENT
??_C@_0FLH@KNLHCNKP@?$CDversion?5330?5core?6out?5vec4?5Frag@ DB '#version'
	DB	' 330 core', 0aH, 'out vec4 FragColor;', 0aH, 'in vec2 UV;', 0aH
	DB	'uniform sampler2D gPosition;', 0aH, 'uniform sampler2D gNorma'
	DB	'l;', 0aH, 'uniform sampler2D gAlbedoSpec;', 0aH, 'struct Ligh'
	DB	't {', 0aH, 'vec3 Position;', 0aH, 'vec3 Color;', 0aH, 'float '
	DB	'Linear;', 0aH, 'float Quadratic;', 0aH, 'float Radius;', 0aH, '}'
	DB	';', 0aH, 'const int NR_LIGHTS = 4;', 0aH, 'uniform Light ligh'
	DB	'ts[NR_LIGHTS];', 0aH, 'uniform vec3 viewPos;', 0aH, 'void mai'
	DB	'n()', 0aH, '{', 0aH, 09H, 'vec3 FragPos = texture(gPosition, '
	DB	'UV).rgb; ', 0aH, 09H, 'vec3 Normal = texture(gNormal, UV).rgb'
	DB	';', 0aH, 09H, 'vec3 Diffuse = texture(gAlbedoSpec, UV).rgb; ', 0aH
	DB	09H, 'float Specular = texture(gAlbedoSpec, UV).a;', 0aH, 0aH, 09H
	DB	'// then calculate lighting as usual ', 0aH, 09H, 'vec3 lighti'
	DB	'ng = Diffuse * 0.1; // hard-coded ambient component', 0aH, 09H
	DB	'vec3 viewDir = normalize(viewPos - FragPos);', 0aH, 09H, 'for'
	DB	' (int i = 0; i < NR_LIGHTS; ++i) ', 0aH, 09H, '{', 0aH, 09H, 09H
	DB	'//calculate distance between light source and current fragmen'
	DB	't ', 0aH, 09H, 09H, 'float distance = length(lights[i].Positi'
	DB	'on - FragPos);', 0aH, 09H, 09H, 'if (distance < lights[i].Rad'
	DB	'ius)', 0aH, 09H, 09H, '{', 0aH, 09H, 09H, 09H, '// diffuse ', 0aH
	DB	09H, 09H, 09H, 'vec3 lightDir = normalize(lights[i].Position -'
	DB	' FragPos);', 0aH, 09H, 09H, 09H, 'vec3 diffuse = max(dot(Norm'
	DB	'al, lightDir), 0.0) * Diffuse * lights[i].Color;', 0aH, 09H, 09H
	DB	09H, '// specular ', 0aH, 09H, 09H, 09H, '//vec3 halfwayDir = '
	DB	'normalize(lightDir + viewDir);', 0aH, 09H, 09H, 09H, '//float'
	DB	' spec = pow(max(dot(Normal, halfwayDir), 0.0), 16.0); ', 0aH, 09H
	DB	09H, 09H, '//vec3 specular = lights[i].Color * spec * Specular'
	DB	';', 0aH, 0aH, 09H, 09H, 09H, 'float attenuation =max( 1.0 / ('
	DB	'1.0 + lights[i].Linear * distance + lights[i].Quadratic * dis'
	DB	'tance * distance),0.01); ', 0aH, 09H, 09H, 09H, 'diffuse *=at'
	DB	'tenuation; ', 0aH, 09H, 09H, 09H, '//specular *= attenuation;'
	DB	' ', 0aH, 09H, 09H, 09H, 'lighting += diffuse /*+ specular*/; '
	DB	0aH, 09H, 09H, '}', 0aH, 09H, '}', 0aH, '    FragColor = vec4('
	DB	'lighting, 1.0);', 0aH, '}', 00H		; `string'
CONST	ENDS
;	COMDAT ??_C@_0KK@HFKHFKCB@?$CDversion?5330?5core?6layout?$CIlocati@
CONST	SEGMENT
??_C@_0KK@HFKHFKCB@?$CDversion?5330?5core?6layout?$CIlocati@ DB '#version'
	DB	' 330 core', 0aH, 'layout(location = 0) in vec3 aPos;', 0aH, 'l'
	DB	'ayout (location = 1) in vec2 aTexCoords;', 0aH, 'out vec2 UV;'
	DB	0aH, 'void main()', 0aH, '{UV = aTexCoords;', 0aH, 'gl_Positio'
	DB	'n = vec4(aPos, 1.0);}', 00H			; `string'
CONST	ENDS
;	COMDAT ??_C@_0CH@FKKLOEIM@ERROR?3?3PROGRAM_LINKING_ERROR?5of@
CONST	SEGMENT
??_C@_0CH@FKKLOEIM@ERROR?3?3PROGRAM_LINKING_ERROR?5of@ DB 'ERROR::PROGRAM'
	DB	'_LINKING_ERROR of type: ', 00H		; `string'
CONST	ENDS
;	COMDAT ??_C@_0CK@EJCJJIBF@ERROR?3?3SHADER_COMPILATION_ERROR@
CONST	SEGMENT
??_C@_0CK@EJCJJIBF@ERROR?3?3SHADER_COMPILATION_ERROR@ DB 'ERROR::SHADER_C'
	DB	'OMPILATION_ERROR of type: ', 00H		; `string'
CONST	ENDS
;	COMDAT ??_C@_0DN@FAOBHOCO@?6?5?9?9?5?9?9?9?9?9?9?9?9?9?9?9?9?9?9?9?9?9?9?9?9?9?9?9?9?9?9@
CONST	SEGMENT
??_C@_0DN@FAOBHOCO@?6?5?9?9?5?9?9?9?9?9?9?9?9?9?9?9?9?9?9?9?9?9?9?9?9?9?9?9?9?9?9@ DB 0aH
	DB	' -- --------------------------------------------------- -- ', 00H ; `string'
CONST	ENDS
;	COMDAT ??_C@_0BF@FJEMFIMH@Compiled?5DEPTH_Id?5?3?5@
CONST	SEGMENT
??_C@_0BF@FJEMFIMH@Compiled?5DEPTH_Id?5?3?5@ DB 'Compiled DEPTH_Id : ', 00H ; `string'
CONST	ENDS
;	COMDAT ??_C@_06CMLPEGNC@Failed@
CONST	SEGMENT
??_C@_06CMLPEGNC@Failed@ DB 'Failed', 00H		; `string'
CONST	ENDS
;	COMDAT ??_C@_08DDIBCFCH@Status?3?5@
CONST	SEGMENT
??_C@_08DDIBCFCH@Status?3?5@ DB 'Status: ', 00H		; `string'
CONST	ENDS
;	COMDAT ??_C@_0BE@KAPIAMOG@Compiled?5MAIN_Id?5?3?5@
CONST	SEGMENT
??_C@_0BE@KAPIAMOG@Compiled?5MAIN_Id?5?3?5@ DB 'Compiled MAIN_Id : ', 00H ; `string'
CONST	ENDS
;	COMDAT ??_C@_07DKOHAGLI@PROGRAM@
CONST	SEGMENT
??_C@_07DKOHAGLI@PROGRAM@ DB 'PROGRAM', 00H		; `string'
CONST	ENDS
;	COMDAT ??_C@_08PLCGCNBD@FRAGMENT@
CONST	SEGMENT
??_C@_08PLCGCNBD@FRAGMENT@ DB 'FRAGMENT', 00H		; `string'
CONST	ENDS
;	COMDAT ??_C@_06HPIMPLPK@VERTEX@
CONST	SEGMENT
??_C@_06HPIMPLPK@VERTEX@ DB 'VERTEX', 00H		; `string'
CONST	ENDS
;	COMDAT ??_C@_0DD@ECODGHGI@Fragment?5Shader?5Code?3?6?$DN?$DN?$DN?$DN?$DN?$DN?$DN?$DN?$DN@
CONST	SEGMENT
??_C@_0DD@ECODGHGI@Fragment?5Shader?5Code?3?6?$DN?$DN?$DN?$DN?$DN?$DN?$DN?$DN?$DN@ DB 'F'
	DB	'ragment Shader Code:', 0aH, '===========================', 0aH
	DB	00H						; `string'
CONST	ENDS
;	COMDAT ??_C@_0BO@GGPJLJIB@?6?$DN?$DN?$DN?$DN?$DN?$DN?$DN?$DN?$DN?$DN?$DN?$DN?$DN?$DN?$DN?$DN?$DN?$DN?$DN?$DN?$DN?$DN?$DN?$DN?$DN?$DN?$DN?6@
CONST	SEGMENT
??_C@_0BO@GGPJLJIB@?6?$DN?$DN?$DN?$DN?$DN?$DN?$DN?$DN?$DN?$DN?$DN?$DN?$DN?$DN?$DN?$DN?$DN?$DN?$DN?$DN?$DN?$DN?$DN?$DN?$DN?$DN?$DN?6@ DB 0aH
	DB	'===========================', 0aH, 00H	; `string'
CONST	ENDS
;	COMDAT ??_C@_0DB@ECPFLOHG@Vertex?5Shader?5Code?3?6?$DN?$DN?$DN?$DN?$DN?$DN?$DN?$DN?$DN?$DN?$DN@
CONST	SEGMENT
??_C@_0DB@ECPFLOHG@Vertex?5Shader?5Code?3?6?$DN?$DN?$DN?$DN?$DN?$DN?$DN?$DN?$DN?$DN?$DN@ DB 'V'
	DB	'ertex Shader Code:', 0aH, '===========================', 0aH, 00H ; `string'
CONST	ENDS
;	COMDAT ??_C@_0DL@LAMHPFOC@?9?9?5?9?9?9?9?9?9?9?9?9?9?9?9?9?9?9?9?9?9?9?9?9?9?9?9?9?9?9?9@
CONST	SEGMENT
??_C@_0DL@LAMHPFOC@?9?9?5?9?9?9?9?9?9?9?9?9?9?9?9?9?9?9?9?9?9?9?9?9?9?9?9?9?9?9?9@ DB '-'
	DB	'- --------------------------------------------------- --', 0aH
	DB	00H						; `string'
CONST	ENDS
;	COMDAT ??_C@_07FAOHMOOG@Shader?$CI@
CONST	SEGMENT
??_C@_07FAOHMOOG@Shader?$CI@ DB 'Shader(', 00H		; `string'
CONST	ENDS
;	COMDAT ??_C@_02MNMNLDAI@?$CJ?6@
CONST	SEGMENT
??_C@_02MNMNLDAI@?$CJ?6@ DB ')', 0aH, 00H		; `string'
CONST	ENDS
;	COMDAT ??_C@_0GH@OLANIJEP@?$CDversion?5150?5core?6?7?7in?5vec2?5pos@
CONST	SEGMENT
??_C@_0GH@OLANIJEP@?$CDversion?5150?5core?6?7?7in?5vec2?5pos@ DB '#versio'
	DB	'n 150 core', 0aH, 09H, 09H, 'in vec2 position;', 0aH, 09H, 09H
	DB	'void main()', 0aH, 09H, 09H, '{', 0aH, 09H, 09H, 09H, 'gl_Pos'
	DB	'ition = vec4(position, 0.0, 1.0);', 0aH, 09H, 09H, '}', 00H ; `string'
CONST	ENDS
;	COMDAT ??_C@_0GN@PCHOLCAJ@?$CDversion?5330?5core?6?7?7out?5vec4?5Fr@
CONST	SEGMENT
??_C@_0GN@PCHOLCAJ@?$CDversion?5330?5core?6?7?7out?5vec4?5Fr@ DB '#versio'
	DB	'n 330 core', 0aH, 09H, 09H, 'out vec4 FragColor;', 0aH, 09H, 09H
	DB	'void main()', 0aH, 09H, 09H, '{', 0aH, 09H, 09H, '   FragColo'
	DB	'r = vec4(1.0f, 0.5f, 0.2f, 1.0f);', 0aH, 09H, 09H, '}', 00H ; `string'
CONST	ENDS
;	COMDAT ??_C@_0IB@DOLDEECH@?$CDversion?5330?5core?6?7?7layout?5?$CIloc@
CONST	SEGMENT
??_C@_0IB@DOLDEECH@?$CDversion?5330?5core?6?7?7layout?5?$CIloc@ DB '#vers'
	DB	'ion 330 core', 0aH, 09H, 09H, 'layout (location = 0) in vec3 '
	DB	'aPos;', 0aH, 09H, 09H, 'void main(){', 0aH, 09H, 09H, '   gl_'
	DB	'Position = vec4(aPos.x, aPos.y, aPos.z, 1.0);', 0aH, 09H, 09H
	DB	'}', 00H					; `string'
CONST	ENDS
;	COMDAT ??_C@_0EN@HDMKLAPC@?$HL?$HN?6out?5vec4?5FragColor?$DL?6void?5mai@
CONST	SEGMENT
??_C@_0EN@HDMKLAPC@?$HL?$HN?6out?5vec4?5FragColor?$DL?6void?5mai@ DB '{}', 0aH
	DB	'out vec4 FragColor;', 0aH, 'void main()', 0aH, '{{', 0aH, 'Fr'
	DB	'agColor = vec4(0.5,0.5,0.5, 1.0);', 0aH, '}}', 00H ; `string'
CONST	ENDS
;	COMDAT ??_C@_0LK@FDDBKKFA@?$HL?$HN?6layout?$CIlocation?5?$DN?50?$CJ?5in?5vec3@
CONST	SEGMENT
??_C@_0LK@FDDBKKFA@?$HL?$HN?6layout?$CIlocation?5?$DN?50?$CJ?5in?5vec3@ DB '{'
	DB	'}', 0aH, 'layout(location = 0) in vec3 aPos;', 0aH, 'layout(l'
	DB	'ocation = 3) in mat4 Transform;', 0aH, 0aH, 'uniform mat4 pro'
	DB	'jViewMatrix;', 0aH, 'void main()', 0aH, '{{', 0aH, 'gl_Positi'
	DB	'on = projViewMatrix * Transform * vec4(aPos, 1.0);', 0aH, '}}'
	DB	00H						; `string'
CONST	ENDS
;	COMDAT ??_C@_06EBGDJLCF@Worker@
CONST	SEGMENT
??_C@_06EBGDJLCF@Worker@ DB 'Worker', 00H		; `string'
CONST	ENDS
;	COMDAT ??_C@_0CF@IAPPHMEP@?2Resources?2Images?2MissingTextur@
CONST	SEGMENT
??_C@_0CF@IAPPHMEP@?2Resources?2Images?2MissingTextur@ DB '\Resources\Ima'
	DB	'ges\MissingTexture.jpg', 00H		; `string'
CONST	ENDS
;	COMDAT ??_C@_0L@NDKAJBEG@ID?3?5?$HL?$HN?0?5?$HL?$HN@
CONST	SEGMENT
??_C@_0L@NDKAJBEG@ID?3?5?$HL?$HN?0?5?$HL?$HN@ DB 'ID: {}, {}', 00H ; `string'
CONST	ENDS
;	COMDAT ??_C@_0P@DFDDALED@?$HL?$HN?7?$HM?$HL?$HN?7?$HM?$HL?$HN?7?$HM?$HL?$HN@
CONST	SEGMENT
??_C@_0P@DFDDALED@?$HL?$HN?7?$HM?$HL?$HN?7?$HM?$HL?$HN?7?$HM?$HL?$HN@ DB '{'
	DB	'}', 09H, '|{}', 09H, '|{}', 09H, '|{}', 00H	; `string'
CONST	ENDS
;	COMDAT ??_C@_05OLHCCIBJ@?$DN?$DN?$DN?$DN?$DN@
CONST	SEGMENT
